ARM GAS  /tmp/ccv9Zg3J.s 			page 1


   1              		.cpu cortex-m4
   2              		.eabi_attribute 27, 1
   3              		.eabi_attribute 28, 1
   4              		.eabi_attribute 20, 1
   5              		.eabi_attribute 21, 1
   6              		.eabi_attribute 23, 3
   7              		.eabi_attribute 24, 1
   8              		.eabi_attribute 25, 1
   9              		.eabi_attribute 26, 1
  10              		.eabi_attribute 30, 2
  11              		.eabi_attribute 34, 1
  12              		.eabi_attribute 18, 4
  13              		.file	"stm32f3xx_hal_wwdg.c"
  14              		.text
  15              	.Ltext0:
  16              		.cfi_sections	.debug_frame
  17              		.section	.text.HAL_WWDG_MspInit,"ax",%progbits
  18              		.align	1
  19              		.p2align 2,,3
  20              		.weak	HAL_WWDG_MspInit
  21              		.arch armv7e-m
  22              		.syntax unified
  23              		.thumb
  24              		.thumb_func
  25              		.fpu fpv4-sp-d16
  27              	HAL_WWDG_MspInit:
  28              	.LVL0:
  29              	.LFB696:
  30              		.file 1 "Drivers/STM32F3xx_HAL_Driver/Src/stm32f3xx_hal_wwdg.c"
   1:Drivers/STM32F3xx_HAL_Driver/Src/stm32f3xx_hal_wwdg.c **** /**
   2:Drivers/STM32F3xx_HAL_Driver/Src/stm32f3xx_hal_wwdg.c ****   ******************************************************************************
   3:Drivers/STM32F3xx_HAL_Driver/Src/stm32f3xx_hal_wwdg.c ****   * @file    stm32f3xx_hal_wwdg.c
   4:Drivers/STM32F3xx_HAL_Driver/Src/stm32f3xx_hal_wwdg.c ****   * @author  MCD Application Team
   5:Drivers/STM32F3xx_HAL_Driver/Src/stm32f3xx_hal_wwdg.c ****   * @brief   WWDG HAL module driver.
   6:Drivers/STM32F3xx_HAL_Driver/Src/stm32f3xx_hal_wwdg.c ****   *          This file provides firmware functions to manage the following 
   7:Drivers/STM32F3xx_HAL_Driver/Src/stm32f3xx_hal_wwdg.c ****   *          functionalities of the Window Watchdog (WWDG) peripheral:
   8:Drivers/STM32F3xx_HAL_Driver/Src/stm32f3xx_hal_wwdg.c ****   *           + Initialization and Configuration function
   9:Drivers/STM32F3xx_HAL_Driver/Src/stm32f3xx_hal_wwdg.c ****   *           + IO operation functions
  10:Drivers/STM32F3xx_HAL_Driver/Src/stm32f3xx_hal_wwdg.c ****   @verbatim
  11:Drivers/STM32F3xx_HAL_Driver/Src/stm32f3xx_hal_wwdg.c ****   ==============================================================================
  12:Drivers/STM32F3xx_HAL_Driver/Src/stm32f3xx_hal_wwdg.c ****                       ##### WWDG specific features #####
  13:Drivers/STM32F3xx_HAL_Driver/Src/stm32f3xx_hal_wwdg.c ****   ==============================================================================
  14:Drivers/STM32F3xx_HAL_Driver/Src/stm32f3xx_hal_wwdg.c ****   [..]
  15:Drivers/STM32F3xx_HAL_Driver/Src/stm32f3xx_hal_wwdg.c ****     Once enabled the WWDG generates a system reset on expiry of a programmed
  16:Drivers/STM32F3xx_HAL_Driver/Src/stm32f3xx_hal_wwdg.c ****     time period, unless the program refreshes the counter (T[6U;0] downcounter)
  17:Drivers/STM32F3xx_HAL_Driver/Src/stm32f3xx_hal_wwdg.c ****     before reaching 0x3F value (i.e. a reset is generated when the counter
  18:Drivers/STM32F3xx_HAL_Driver/Src/stm32f3xx_hal_wwdg.c ****     value rolls over from 0x40 to 0x3FU).
  19:Drivers/STM32F3xx_HAL_Driver/Src/stm32f3xx_hal_wwdg.c **** 
  20:Drivers/STM32F3xx_HAL_Driver/Src/stm32f3xx_hal_wwdg.c ****     (+) An MCU reset is also generated if the counter value is refreshed
  21:Drivers/STM32F3xx_HAL_Driver/Src/stm32f3xx_hal_wwdg.c ****         before the counter has reached the refresh window value. This
  22:Drivers/STM32F3xx_HAL_Driver/Src/stm32f3xx_hal_wwdg.c ****         implies that the counter must be refreshed in a limited window.
  23:Drivers/STM32F3xx_HAL_Driver/Src/stm32f3xx_hal_wwdg.c **** 
  24:Drivers/STM32F3xx_HAL_Driver/Src/stm32f3xx_hal_wwdg.c ****     (+) Once enabled the WWDG cannot be disabled except by a system reset.
  25:Drivers/STM32F3xx_HAL_Driver/Src/stm32f3xx_hal_wwdg.c **** 
  26:Drivers/STM32F3xx_HAL_Driver/Src/stm32f3xx_hal_wwdg.c ****     (+) WWDGRST flag in RCC_CSR register informs when a WWDG reset has 
  27:Drivers/STM32F3xx_HAL_Driver/Src/stm32f3xx_hal_wwdg.c ****         occurred (check available with __HAL_RCC_GET_FLAG(RCC_FLAG_WWDGRST)).
  28:Drivers/STM32F3xx_HAL_Driver/Src/stm32f3xx_hal_wwdg.c **** 
ARM GAS  /tmp/ccv9Zg3J.s 			page 2


  29:Drivers/STM32F3xx_HAL_Driver/Src/stm32f3xx_hal_wwdg.c ****     (+) The WWDG downcounter input clock is derived from the APB clock divided
  30:Drivers/STM32F3xx_HAL_Driver/Src/stm32f3xx_hal_wwdg.c ****         by a programmable prescaler.
  31:Drivers/STM32F3xx_HAL_Driver/Src/stm32f3xx_hal_wwdg.c **** 
  32:Drivers/STM32F3xx_HAL_Driver/Src/stm32f3xx_hal_wwdg.c ****     (+) WWDG downcounter clock (Hz) = PCLK1 / (4096U * Prescaler)
  33:Drivers/STM32F3xx_HAL_Driver/Src/stm32f3xx_hal_wwdg.c **** 
  34:Drivers/STM32F3xx_HAL_Driver/Src/stm32f3xx_hal_wwdg.c ****     (+) WWDG timeout (ms) = (1000U * (T[5U;0] + 1U)) / (WWDG downcounter clock)
  35:Drivers/STM32F3xx_HAL_Driver/Src/stm32f3xx_hal_wwdg.c ****         where T[5U;0] are the lowest 6 bits of downcounter.
  36:Drivers/STM32F3xx_HAL_Driver/Src/stm32f3xx_hal_wwdg.c **** 
  37:Drivers/STM32F3xx_HAL_Driver/Src/stm32f3xx_hal_wwdg.c ****     (+) WWDG Counter refresh is allowed between the following limits :
  38:Drivers/STM32F3xx_HAL_Driver/Src/stm32f3xx_hal_wwdg.c ****         (++) min time (ms) = (1000U * (T[5U;0] - Window)) / (WWDG downcounter clock)
  39:Drivers/STM32F3xx_HAL_Driver/Src/stm32f3xx_hal_wwdg.c ****         (++) max time (ms) = (1000U * (T[5U;0] - 0x40U)) / (WWDG downcounter clock)
  40:Drivers/STM32F3xx_HAL_Driver/Src/stm32f3xx_hal_wwdg.c **** 
  41:Drivers/STM32F3xx_HAL_Driver/Src/stm32f3xx_hal_wwdg.c ****     (+) Min-max timeout value @42 MHz(PCLK1): ~97.5 us / ~49.9 ms
  42:Drivers/STM32F3xx_HAL_Driver/Src/stm32f3xx_hal_wwdg.c **** 
  43:Drivers/STM32F3xx_HAL_Driver/Src/stm32f3xx_hal_wwdg.c ****     (+) The Early Wakeup Interrupt (EWI) can be used if specific safety 
  44:Drivers/STM32F3xx_HAL_Driver/Src/stm32f3xx_hal_wwdg.c ****         operations or data logging must be performed before the actual reset is
  45:Drivers/STM32F3xx_HAL_Driver/Src/stm32f3xx_hal_wwdg.c ****         generated. When the downcounter reaches the value 0x40U, an EWI interrupt
  46:Drivers/STM32F3xx_HAL_Driver/Src/stm32f3xx_hal_wwdg.c ****         is generated and the corresponding interrupt service routine (ISR) can 
  47:Drivers/STM32F3xx_HAL_Driver/Src/stm32f3xx_hal_wwdg.c ****         be used to trigger specific actions (such as communications or data 
  48:Drivers/STM32F3xx_HAL_Driver/Src/stm32f3xx_hal_wwdg.c ****         logging), before resetting the device.
  49:Drivers/STM32F3xx_HAL_Driver/Src/stm32f3xx_hal_wwdg.c ****         In some applications, the EWI interrupt can be used to manage a software
  50:Drivers/STM32F3xx_HAL_Driver/Src/stm32f3xx_hal_wwdg.c ****         system check and/or system recovery/graceful degradation, without 
  51:Drivers/STM32F3xx_HAL_Driver/Src/stm32f3xx_hal_wwdg.c ****         generating a WWDG reset. In this case, the corresponding interrupt 
  52:Drivers/STM32F3xx_HAL_Driver/Src/stm32f3xx_hal_wwdg.c ****         service routine (ISR) should reload the WWDG counter to avoid the WWDG 
  53:Drivers/STM32F3xx_HAL_Driver/Src/stm32f3xx_hal_wwdg.c ****         reset, then trigger the required actions.
  54:Drivers/STM32F3xx_HAL_Driver/Src/stm32f3xx_hal_wwdg.c ****         Note:When the EWI interrupt cannot be served, e.g. due to a system lock 
  55:Drivers/STM32F3xx_HAL_Driver/Src/stm32f3xx_hal_wwdg.c ****         in a higher priority task, the WWDG reset will eventually be generated.
  56:Drivers/STM32F3xx_HAL_Driver/Src/stm32f3xx_hal_wwdg.c **** 
  57:Drivers/STM32F3xx_HAL_Driver/Src/stm32f3xx_hal_wwdg.c ****     (+) Debug mode : When the microcontroller enters debug mode (core halted),
  58:Drivers/STM32F3xx_HAL_Driver/Src/stm32f3xx_hal_wwdg.c ****         the WWDG counter either continues to work normally or stops, depending 
  59:Drivers/STM32F3xx_HAL_Driver/Src/stm32f3xx_hal_wwdg.c ****         on DBG_WWDG_STOP configuration bit in DBG module, accessible through
  60:Drivers/STM32F3xx_HAL_Driver/Src/stm32f3xx_hal_wwdg.c ****         __HAL_DBGMCU_FREEZE_WWDG() and __HAL_DBGMCU_UNFREEZE_WWDG() macros
  61:Drivers/STM32F3xx_HAL_Driver/Src/stm32f3xx_hal_wwdg.c **** 
  62:Drivers/STM32F3xx_HAL_Driver/Src/stm32f3xx_hal_wwdg.c ****                      ##### How to use this driver #####
  63:Drivers/STM32F3xx_HAL_Driver/Src/stm32f3xx_hal_wwdg.c ****   ==============================================================================
  64:Drivers/STM32F3xx_HAL_Driver/Src/stm32f3xx_hal_wwdg.c ****   [..]
  65:Drivers/STM32F3xx_HAL_Driver/Src/stm32f3xx_hal_wwdg.c ****     (+) Enable WWDG APB1 clock using __HAL_RCC_WWDG_CLK_ENABLE().
  66:Drivers/STM32F3xx_HAL_Driver/Src/stm32f3xx_hal_wwdg.c **** 
  67:Drivers/STM32F3xx_HAL_Driver/Src/stm32f3xx_hal_wwdg.c ****     (+) Set the WWDG prescaler, refresh window, counter value and Early Wakeup 
  68:Drivers/STM32F3xx_HAL_Driver/Src/stm32f3xx_hal_wwdg.c ****         Interrupt mode using using HAL_WWDG_Init() function.
  69:Drivers/STM32F3xx_HAL_Driver/Src/stm32f3xx_hal_wwdg.c ****         This enables WWDG peripheral and the downcounter starts downcounting 
  70:Drivers/STM32F3xx_HAL_Driver/Src/stm32f3xx_hal_wwdg.c ****         from given counter value.
  71:Drivers/STM32F3xx_HAL_Driver/Src/stm32f3xx_hal_wwdg.c ****         Init function can be called again to modify all watchdog parameters, 
  72:Drivers/STM32F3xx_HAL_Driver/Src/stm32f3xx_hal_wwdg.c ****         however if EWI mode has been set once, it can't be clear until next 
  73:Drivers/STM32F3xx_HAL_Driver/Src/stm32f3xx_hal_wwdg.c ****         reset.
  74:Drivers/STM32F3xx_HAL_Driver/Src/stm32f3xx_hal_wwdg.c **** 
  75:Drivers/STM32F3xx_HAL_Driver/Src/stm32f3xx_hal_wwdg.c ****     (+) The application program must refresh the WWDG counter at regular
  76:Drivers/STM32F3xx_HAL_Driver/Src/stm32f3xx_hal_wwdg.c ****         intervals during normal operation to prevent an MCU reset using
  77:Drivers/STM32F3xx_HAL_Driver/Src/stm32f3xx_hal_wwdg.c ****         HAL_WWDG_Refresh() function. This operation must occur only when
  78:Drivers/STM32F3xx_HAL_Driver/Src/stm32f3xx_hal_wwdg.c ****         the counter is lower than the window value already programmed.
  79:Drivers/STM32F3xx_HAL_Driver/Src/stm32f3xx_hal_wwdg.c **** 
  80:Drivers/STM32F3xx_HAL_Driver/Src/stm32f3xx_hal_wwdg.c ****     (+) if Early Wakeup Interrupt mode is enable an interrupt is generated when 
  81:Drivers/STM32F3xx_HAL_Driver/Src/stm32f3xx_hal_wwdg.c ****         the counter reaches 0x40. User can add his own code in weak function 
  82:Drivers/STM32F3xx_HAL_Driver/Src/stm32f3xx_hal_wwdg.c ****         HAL_WWDG_EarlyWakeupCallback().
  83:Drivers/STM32F3xx_HAL_Driver/Src/stm32f3xx_hal_wwdg.c **** 
  84:Drivers/STM32F3xx_HAL_Driver/Src/stm32f3xx_hal_wwdg.c ****      *** WWDG HAL driver macros list ***
  85:Drivers/STM32F3xx_HAL_Driver/Src/stm32f3xx_hal_wwdg.c ****      ==================================
ARM GAS  /tmp/ccv9Zg3J.s 			page 3


  86:Drivers/STM32F3xx_HAL_Driver/Src/stm32f3xx_hal_wwdg.c ****      [..]
  87:Drivers/STM32F3xx_HAL_Driver/Src/stm32f3xx_hal_wwdg.c ****        Below the list of most used macros in WWDG HAL driver.
  88:Drivers/STM32F3xx_HAL_Driver/Src/stm32f3xx_hal_wwdg.c **** 
  89:Drivers/STM32F3xx_HAL_Driver/Src/stm32f3xx_hal_wwdg.c ****       (+) __HAL_WWDG_GET_IT_SOURCE: Check the selected WWDG's interrupt source.
  90:Drivers/STM32F3xx_HAL_Driver/Src/stm32f3xx_hal_wwdg.c ****       (+) __HAL_WWDG_GET_FLAG: Get the selected WWDG's flag status.
  91:Drivers/STM32F3xx_HAL_Driver/Src/stm32f3xx_hal_wwdg.c ****       (+) __HAL_WWDG_CLEAR_FLAG: Clear the WWDG's pending flags.
  92:Drivers/STM32F3xx_HAL_Driver/Src/stm32f3xx_hal_wwdg.c **** 
  93:Drivers/STM32F3xx_HAL_Driver/Src/stm32f3xx_hal_wwdg.c ****   @endverbatim
  94:Drivers/STM32F3xx_HAL_Driver/Src/stm32f3xx_hal_wwdg.c ****   ******************************************************************************
  95:Drivers/STM32F3xx_HAL_Driver/Src/stm32f3xx_hal_wwdg.c ****   * @attention
  96:Drivers/STM32F3xx_HAL_Driver/Src/stm32f3xx_hal_wwdg.c ****   *
  97:Drivers/STM32F3xx_HAL_Driver/Src/stm32f3xx_hal_wwdg.c ****   * <h2><center>&copy; COPYRIGHT(c) 2016 STMicroelectronics</center></h2>
  98:Drivers/STM32F3xx_HAL_Driver/Src/stm32f3xx_hal_wwdg.c ****   *
  99:Drivers/STM32F3xx_HAL_Driver/Src/stm32f3xx_hal_wwdg.c ****   * Redistribution and use in source and binary forms, with or without modification,
 100:Drivers/STM32F3xx_HAL_Driver/Src/stm32f3xx_hal_wwdg.c ****   * are permitted provided that the following conditions are met:
 101:Drivers/STM32F3xx_HAL_Driver/Src/stm32f3xx_hal_wwdg.c ****   *   1. Redistributions of source code must retain the above copyright notice,
 102:Drivers/STM32F3xx_HAL_Driver/Src/stm32f3xx_hal_wwdg.c ****   *      this list of conditions and the following disclaimer.
 103:Drivers/STM32F3xx_HAL_Driver/Src/stm32f3xx_hal_wwdg.c ****   *   2. Redistributions in binary form must reproduce the above copyright notice,
 104:Drivers/STM32F3xx_HAL_Driver/Src/stm32f3xx_hal_wwdg.c ****   *      this list of conditions and the following disclaimer in the documentation
 105:Drivers/STM32F3xx_HAL_Driver/Src/stm32f3xx_hal_wwdg.c ****   *      and/or other materials provided with the distribution.
 106:Drivers/STM32F3xx_HAL_Driver/Src/stm32f3xx_hal_wwdg.c ****   *   3. Neither the name of STMicroelectronics nor the names of its contributors
 107:Drivers/STM32F3xx_HAL_Driver/Src/stm32f3xx_hal_wwdg.c ****   *      may be used to endorse or promote products derived from this software
 108:Drivers/STM32F3xx_HAL_Driver/Src/stm32f3xx_hal_wwdg.c ****   *      without specific prior written permission.
 109:Drivers/STM32F3xx_HAL_Driver/Src/stm32f3xx_hal_wwdg.c ****   *
 110:Drivers/STM32F3xx_HAL_Driver/Src/stm32f3xx_hal_wwdg.c ****   * THIS SOFTWARE IS PROVIDED BY THE COPYRIGHT HOLDERS AND CONTRIBUTORS "AS IS"
 111:Drivers/STM32F3xx_HAL_Driver/Src/stm32f3xx_hal_wwdg.c ****   * AND ANY EXPRESS OR IMPLIED WARRANTIES, INCLUDING, BUT NOT LIMITED TO, THE
 112:Drivers/STM32F3xx_HAL_Driver/Src/stm32f3xx_hal_wwdg.c ****   * IMPLIED WARRANTIES OF MERCHANTABILITY AND FITNESS FOR A PARTICULAR PURPOSE ARE
 113:Drivers/STM32F3xx_HAL_Driver/Src/stm32f3xx_hal_wwdg.c ****   * DISCLAIMED. IN NO EVENT SHALL THE COPYRIGHT HOLDER OR CONTRIBUTORS BE LIABLE
 114:Drivers/STM32F3xx_HAL_Driver/Src/stm32f3xx_hal_wwdg.c ****   * FOR ANY DIRECT, INDIRECT, INCIDENTAL, SPECIAL, EXEMPLARY, OR CONSEQUENTIAL
 115:Drivers/STM32F3xx_HAL_Driver/Src/stm32f3xx_hal_wwdg.c ****   * DAMAGES (INCLUDING, BUT NOT LIMITED TO, PROCUREMENT OF SUBSTITUTE GOODS OR
 116:Drivers/STM32F3xx_HAL_Driver/Src/stm32f3xx_hal_wwdg.c ****   * SERVICES; LOSS OF USE, DATA, OR PROFITS; OR BUSINESS INTERRUPTION) HOWEVER
 117:Drivers/STM32F3xx_HAL_Driver/Src/stm32f3xx_hal_wwdg.c ****   * CAUSED AND ON ANY THEORY OF LIABILITY, WHETHER IN CONTRACT, STRICT LIABILITY,
 118:Drivers/STM32F3xx_HAL_Driver/Src/stm32f3xx_hal_wwdg.c ****   * OR TORT (INCLUDING NEGLIGENCE OR OTHERWISE) ARISING IN ANY WAY OUT OF THE USE
 119:Drivers/STM32F3xx_HAL_Driver/Src/stm32f3xx_hal_wwdg.c ****   * OF THIS SOFTWARE, EVEN IF ADVISED OF THE POSSIBILITY OF SUCH DAMAGE.
 120:Drivers/STM32F3xx_HAL_Driver/Src/stm32f3xx_hal_wwdg.c ****   *
 121:Drivers/STM32F3xx_HAL_Driver/Src/stm32f3xx_hal_wwdg.c ****   ******************************************************************************
 122:Drivers/STM32F3xx_HAL_Driver/Src/stm32f3xx_hal_wwdg.c ****   */
 123:Drivers/STM32F3xx_HAL_Driver/Src/stm32f3xx_hal_wwdg.c **** 
 124:Drivers/STM32F3xx_HAL_Driver/Src/stm32f3xx_hal_wwdg.c **** /* Includes ------------------------------------------------------------------*/
 125:Drivers/STM32F3xx_HAL_Driver/Src/stm32f3xx_hal_wwdg.c **** #include "stm32f3xx_hal.h"
 126:Drivers/STM32F3xx_HAL_Driver/Src/stm32f3xx_hal_wwdg.c **** 
 127:Drivers/STM32F3xx_HAL_Driver/Src/stm32f3xx_hal_wwdg.c **** /** @addtogroup STM32F3xx_HAL_Driver
 128:Drivers/STM32F3xx_HAL_Driver/Src/stm32f3xx_hal_wwdg.c ****   * @{
 129:Drivers/STM32F3xx_HAL_Driver/Src/stm32f3xx_hal_wwdg.c ****   */
 130:Drivers/STM32F3xx_HAL_Driver/Src/stm32f3xx_hal_wwdg.c **** 
 131:Drivers/STM32F3xx_HAL_Driver/Src/stm32f3xx_hal_wwdg.c **** #ifdef HAL_WWDG_MODULE_ENABLED
 132:Drivers/STM32F3xx_HAL_Driver/Src/stm32f3xx_hal_wwdg.c **** /** @defgroup WWDG WWDG
 133:Drivers/STM32F3xx_HAL_Driver/Src/stm32f3xx_hal_wwdg.c ****   * @brief WWDG HAL module driver.
 134:Drivers/STM32F3xx_HAL_Driver/Src/stm32f3xx_hal_wwdg.c ****   * @{
 135:Drivers/STM32F3xx_HAL_Driver/Src/stm32f3xx_hal_wwdg.c ****   */
 136:Drivers/STM32F3xx_HAL_Driver/Src/stm32f3xx_hal_wwdg.c **** 
 137:Drivers/STM32F3xx_HAL_Driver/Src/stm32f3xx_hal_wwdg.c **** /* Private typedef -----------------------------------------------------------*/
 138:Drivers/STM32F3xx_HAL_Driver/Src/stm32f3xx_hal_wwdg.c **** /* Private define ------------------------------------------------------------*/
 139:Drivers/STM32F3xx_HAL_Driver/Src/stm32f3xx_hal_wwdg.c **** /* Private macro -------------------------------------------------------------*/
 140:Drivers/STM32F3xx_HAL_Driver/Src/stm32f3xx_hal_wwdg.c **** /* Private variables ---------------------------------------------------------*/
 141:Drivers/STM32F3xx_HAL_Driver/Src/stm32f3xx_hal_wwdg.c **** /* Private function prototypes -----------------------------------------------*/
 142:Drivers/STM32F3xx_HAL_Driver/Src/stm32f3xx_hal_wwdg.c **** /* Exported functions --------------------------------------------------------*/
ARM GAS  /tmp/ccv9Zg3J.s 			page 4


 143:Drivers/STM32F3xx_HAL_Driver/Src/stm32f3xx_hal_wwdg.c **** 
 144:Drivers/STM32F3xx_HAL_Driver/Src/stm32f3xx_hal_wwdg.c **** /** @defgroup WWDG_Exported_Functions WWDG Exported Functions
 145:Drivers/STM32F3xx_HAL_Driver/Src/stm32f3xx_hal_wwdg.c ****   * @{
 146:Drivers/STM32F3xx_HAL_Driver/Src/stm32f3xx_hal_wwdg.c ****   */
 147:Drivers/STM32F3xx_HAL_Driver/Src/stm32f3xx_hal_wwdg.c **** 
 148:Drivers/STM32F3xx_HAL_Driver/Src/stm32f3xx_hal_wwdg.c **** /** @defgroup WWDG_Exported_Functions_Group1 Initialization and Configuration functions
 149:Drivers/STM32F3xx_HAL_Driver/Src/stm32f3xx_hal_wwdg.c ****  *  @brief    Initialization and Configuration functions.
 150:Drivers/STM32F3xx_HAL_Driver/Src/stm32f3xx_hal_wwdg.c ****  *
 151:Drivers/STM32F3xx_HAL_Driver/Src/stm32f3xx_hal_wwdg.c **** @verbatim
 152:Drivers/STM32F3xx_HAL_Driver/Src/stm32f3xx_hal_wwdg.c ****   ==============================================================================
 153:Drivers/STM32F3xx_HAL_Driver/Src/stm32f3xx_hal_wwdg.c ****           ##### Initialization and Configuration functions #####
 154:Drivers/STM32F3xx_HAL_Driver/Src/stm32f3xx_hal_wwdg.c ****   ==============================================================================
 155:Drivers/STM32F3xx_HAL_Driver/Src/stm32f3xx_hal_wwdg.c ****   [..]  
 156:Drivers/STM32F3xx_HAL_Driver/Src/stm32f3xx_hal_wwdg.c ****     This section provides functions allowing to:
 157:Drivers/STM32F3xx_HAL_Driver/Src/stm32f3xx_hal_wwdg.c ****       (+) Initialize and start the WWDG according to the specified parameters
 158:Drivers/STM32F3xx_HAL_Driver/Src/stm32f3xx_hal_wwdg.c ****           in the WWDG_InitTypeDef of associated handle.
 159:Drivers/STM32F3xx_HAL_Driver/Src/stm32f3xx_hal_wwdg.c ****       (+) Initialize the WWDG MSP.
 160:Drivers/STM32F3xx_HAL_Driver/Src/stm32f3xx_hal_wwdg.c **** 
 161:Drivers/STM32F3xx_HAL_Driver/Src/stm32f3xx_hal_wwdg.c **** @endverbatim
 162:Drivers/STM32F3xx_HAL_Driver/Src/stm32f3xx_hal_wwdg.c ****   * @{
 163:Drivers/STM32F3xx_HAL_Driver/Src/stm32f3xx_hal_wwdg.c ****   */
 164:Drivers/STM32F3xx_HAL_Driver/Src/stm32f3xx_hal_wwdg.c **** 
 165:Drivers/STM32F3xx_HAL_Driver/Src/stm32f3xx_hal_wwdg.c **** /**
 166:Drivers/STM32F3xx_HAL_Driver/Src/stm32f3xx_hal_wwdg.c ****   * @brief  Initialize the WWDG according to the specified.
 167:Drivers/STM32F3xx_HAL_Driver/Src/stm32f3xx_hal_wwdg.c ****   *         parameters in the WWDG_InitTypeDef of  associated handle.
 168:Drivers/STM32F3xx_HAL_Driver/Src/stm32f3xx_hal_wwdg.c ****   * @param  hwwdg  pointer to a WWDG_HandleTypeDef structure that contains
 169:Drivers/STM32F3xx_HAL_Driver/Src/stm32f3xx_hal_wwdg.c ****   *                the configuration information for the specified WWDG module.
 170:Drivers/STM32F3xx_HAL_Driver/Src/stm32f3xx_hal_wwdg.c ****   * @retval HAL status
 171:Drivers/STM32F3xx_HAL_Driver/Src/stm32f3xx_hal_wwdg.c ****   */
 172:Drivers/STM32F3xx_HAL_Driver/Src/stm32f3xx_hal_wwdg.c **** HAL_StatusTypeDef HAL_WWDG_Init(WWDG_HandleTypeDef *hwwdg)
 173:Drivers/STM32F3xx_HAL_Driver/Src/stm32f3xx_hal_wwdg.c **** {
 174:Drivers/STM32F3xx_HAL_Driver/Src/stm32f3xx_hal_wwdg.c ****   /* Check the WWDG handle allocation */
 175:Drivers/STM32F3xx_HAL_Driver/Src/stm32f3xx_hal_wwdg.c ****   if(hwwdg == NULL)
 176:Drivers/STM32F3xx_HAL_Driver/Src/stm32f3xx_hal_wwdg.c ****   {
 177:Drivers/STM32F3xx_HAL_Driver/Src/stm32f3xx_hal_wwdg.c ****     return HAL_ERROR;
 178:Drivers/STM32F3xx_HAL_Driver/Src/stm32f3xx_hal_wwdg.c ****   }
 179:Drivers/STM32F3xx_HAL_Driver/Src/stm32f3xx_hal_wwdg.c **** 
 180:Drivers/STM32F3xx_HAL_Driver/Src/stm32f3xx_hal_wwdg.c ****   /* Check the parameters */
 181:Drivers/STM32F3xx_HAL_Driver/Src/stm32f3xx_hal_wwdg.c ****   assert_param(IS_WWDG_ALL_INSTANCE(hwwdg->Instance));
 182:Drivers/STM32F3xx_HAL_Driver/Src/stm32f3xx_hal_wwdg.c ****   assert_param(IS_WWDG_PRESCALER(hwwdg->Init.Prescaler));
 183:Drivers/STM32F3xx_HAL_Driver/Src/stm32f3xx_hal_wwdg.c ****   assert_param(IS_WWDG_WINDOW(hwwdg->Init.Window));
 184:Drivers/STM32F3xx_HAL_Driver/Src/stm32f3xx_hal_wwdg.c ****   assert_param(IS_WWDG_COUNTER(hwwdg->Init.Counter));
 185:Drivers/STM32F3xx_HAL_Driver/Src/stm32f3xx_hal_wwdg.c ****   assert_param(IS_WWDG_EWI_MODE(hwwdg->Init.EWIMode));
 186:Drivers/STM32F3xx_HAL_Driver/Src/stm32f3xx_hal_wwdg.c **** 
 187:Drivers/STM32F3xx_HAL_Driver/Src/stm32f3xx_hal_wwdg.c ****   /* Init the low level hardware */
 188:Drivers/STM32F3xx_HAL_Driver/Src/stm32f3xx_hal_wwdg.c ****   HAL_WWDG_MspInit(hwwdg);
 189:Drivers/STM32F3xx_HAL_Driver/Src/stm32f3xx_hal_wwdg.c **** 
 190:Drivers/STM32F3xx_HAL_Driver/Src/stm32f3xx_hal_wwdg.c ****   /* Set WWDG Counter */
 191:Drivers/STM32F3xx_HAL_Driver/Src/stm32f3xx_hal_wwdg.c ****   WRITE_REG(hwwdg->Instance->CR, (WWDG_CR_WDGA | hwwdg->Init.Counter));
 192:Drivers/STM32F3xx_HAL_Driver/Src/stm32f3xx_hal_wwdg.c **** 
 193:Drivers/STM32F3xx_HAL_Driver/Src/stm32f3xx_hal_wwdg.c ****   /* Set WWDG Prescaler and Window */
 194:Drivers/STM32F3xx_HAL_Driver/Src/stm32f3xx_hal_wwdg.c ****   WRITE_REG(hwwdg->Instance->CFR, (hwwdg->Init.EWIMode | hwwdg->Init.Prescaler | hwwdg->Init.Window
 195:Drivers/STM32F3xx_HAL_Driver/Src/stm32f3xx_hal_wwdg.c **** 
 196:Drivers/STM32F3xx_HAL_Driver/Src/stm32f3xx_hal_wwdg.c ****   /* Return function status */
 197:Drivers/STM32F3xx_HAL_Driver/Src/stm32f3xx_hal_wwdg.c ****   return HAL_OK;
 198:Drivers/STM32F3xx_HAL_Driver/Src/stm32f3xx_hal_wwdg.c **** }
 199:Drivers/STM32F3xx_HAL_Driver/Src/stm32f3xx_hal_wwdg.c **** 
ARM GAS  /tmp/ccv9Zg3J.s 			page 5


 200:Drivers/STM32F3xx_HAL_Driver/Src/stm32f3xx_hal_wwdg.c **** 
 201:Drivers/STM32F3xx_HAL_Driver/Src/stm32f3xx_hal_wwdg.c **** /**
 202:Drivers/STM32F3xx_HAL_Driver/Src/stm32f3xx_hal_wwdg.c ****   * @brief  Initialize the WWDG MSP.
 203:Drivers/STM32F3xx_HAL_Driver/Src/stm32f3xx_hal_wwdg.c ****   * @param  hwwdg  pointer to a WWDG_HandleTypeDef structure that contains
 204:Drivers/STM32F3xx_HAL_Driver/Src/stm32f3xx_hal_wwdg.c ****   *                the configuration information for the specified WWDG module.
 205:Drivers/STM32F3xx_HAL_Driver/Src/stm32f3xx_hal_wwdg.c ****   * @note   When rewriting this function in user file, mechanism may be added
 206:Drivers/STM32F3xx_HAL_Driver/Src/stm32f3xx_hal_wwdg.c ****   *         to avoid multiple initialize when HAL_WWDG_Init function is called
 207:Drivers/STM32F3xx_HAL_Driver/Src/stm32f3xx_hal_wwdg.c ****   *         again to change parameters.
 208:Drivers/STM32F3xx_HAL_Driver/Src/stm32f3xx_hal_wwdg.c ****   * @retval None
 209:Drivers/STM32F3xx_HAL_Driver/Src/stm32f3xx_hal_wwdg.c ****   */
 210:Drivers/STM32F3xx_HAL_Driver/Src/stm32f3xx_hal_wwdg.c **** __weak void HAL_WWDG_MspInit(WWDG_HandleTypeDef *hwwdg)
 211:Drivers/STM32F3xx_HAL_Driver/Src/stm32f3xx_hal_wwdg.c **** {
  31              		.loc 1 211 1 view -0
  32              		.cfi_startproc
  33              		@ args = 0, pretend = 0, frame = 0
  34              		@ frame_needed = 0, uses_anonymous_args = 0
  35              		@ link register save eliminated.
 212:Drivers/STM32F3xx_HAL_Driver/Src/stm32f3xx_hal_wwdg.c ****   /* Prevent unused argument(s) compilation warning */
 213:Drivers/STM32F3xx_HAL_Driver/Src/stm32f3xx_hal_wwdg.c ****   UNUSED(hwwdg);
  36              		.loc 1 213 3 view .LVU1
 214:Drivers/STM32F3xx_HAL_Driver/Src/stm32f3xx_hal_wwdg.c **** 
 215:Drivers/STM32F3xx_HAL_Driver/Src/stm32f3xx_hal_wwdg.c ****   /* NOTE: This function should not be modified, when the callback is needed,
 216:Drivers/STM32F3xx_HAL_Driver/Src/stm32f3xx_hal_wwdg.c ****            the HAL_WWDG_MspInit could be implemented in the user file
 217:Drivers/STM32F3xx_HAL_Driver/Src/stm32f3xx_hal_wwdg.c ****    */
 218:Drivers/STM32F3xx_HAL_Driver/Src/stm32f3xx_hal_wwdg.c **** }
  37              		.loc 1 218 1 is_stmt 0 view .LVU2
  38 0000 7047     		bx	lr
  39              		.cfi_endproc
  40              	.LFE696:
  42 0002 00BF     		.section	.text.HAL_WWDG_Init,"ax",%progbits
  43              		.align	1
  44              		.p2align 2,,3
  45              		.global	HAL_WWDG_Init
  46              		.syntax unified
  47              		.thumb
  48              		.thumb_func
  49              		.fpu fpv4-sp-d16
  51              	HAL_WWDG_Init:
  52              	.LVL1:
  53              	.LFB695:
 173:Drivers/STM32F3xx_HAL_Driver/Src/stm32f3xx_hal_wwdg.c ****   /* Check the WWDG handle allocation */
  54              		.loc 1 173 1 is_stmt 1 view -0
  55              		.cfi_startproc
  56              		@ args = 0, pretend = 0, frame = 0
  57              		@ frame_needed = 0, uses_anonymous_args = 0
 175:Drivers/STM32F3xx_HAL_Driver/Src/stm32f3xx_hal_wwdg.c ****   {
  58              		.loc 1 175 3 view .LVU4
 175:Drivers/STM32F3xx_HAL_Driver/Src/stm32f3xx_hal_wwdg.c ****   {
  59              		.loc 1 175 5 is_stmt 0 view .LVU5
  60 0000 80B1     		cbz	r0, .L5
 173:Drivers/STM32F3xx_HAL_Driver/Src/stm32f3xx_hal_wwdg.c ****   /* Check the WWDG handle allocation */
  61              		.loc 1 173 1 view .LVU6
  62 0002 38B5     		push	{r3, r4, r5, lr}
  63              	.LCFI0:
  64              		.cfi_def_cfa_offset 16
  65              		.cfi_offset 3, -16
  66              		.cfi_offset 4, -12
ARM GAS  /tmp/ccv9Zg3J.s 			page 6


  67              		.cfi_offset 5, -8
  68              		.cfi_offset 14, -4
  69 0004 0446     		mov	r4, r0
 181:Drivers/STM32F3xx_HAL_Driver/Src/stm32f3xx_hal_wwdg.c ****   assert_param(IS_WWDG_PRESCALER(hwwdg->Init.Prescaler));
  70              		.loc 1 181 3 is_stmt 1 view .LVU7
 182:Drivers/STM32F3xx_HAL_Driver/Src/stm32f3xx_hal_wwdg.c ****   assert_param(IS_WWDG_WINDOW(hwwdg->Init.Window));
  71              		.loc 1 182 3 view .LVU8
 183:Drivers/STM32F3xx_HAL_Driver/Src/stm32f3xx_hal_wwdg.c ****   assert_param(IS_WWDG_COUNTER(hwwdg->Init.Counter));
  72              		.loc 1 183 3 view .LVU9
 184:Drivers/STM32F3xx_HAL_Driver/Src/stm32f3xx_hal_wwdg.c ****   assert_param(IS_WWDG_EWI_MODE(hwwdg->Init.EWIMode));
  73              		.loc 1 184 3 view .LVU10
 185:Drivers/STM32F3xx_HAL_Driver/Src/stm32f3xx_hal_wwdg.c **** 
  74              		.loc 1 185 3 view .LVU11
 188:Drivers/STM32F3xx_HAL_Driver/Src/stm32f3xx_hal_wwdg.c **** 
  75              		.loc 1 188 3 view .LVU12
  76 0006 FFF7FEFF 		bl	HAL_WWDG_MspInit
  77              	.LVL2:
 191:Drivers/STM32F3xx_HAL_Driver/Src/stm32f3xx_hal_wwdg.c **** 
  78              		.loc 1 191 3 view .LVU13
 194:Drivers/STM32F3xx_HAL_Driver/Src/stm32f3xx_hal_wwdg.c **** 
  79              		.loc 1 194 3 is_stmt 0 view .LVU14
  80 000a D4E90150 		ldrd	r5, r0, [r4, #4]
  81 000e 2369     		ldr	r3, [r4, #16]
 191:Drivers/STM32F3xx_HAL_Driver/Src/stm32f3xx_hal_wwdg.c **** 
  82              		.loc 1 191 3 view .LVU15
  83 0010 E268     		ldr	r2, [r4, #12]
  84 0012 2168     		ldr	r1, [r4]
 194:Drivers/STM32F3xx_HAL_Driver/Src/stm32f3xx_hal_wwdg.c **** 
  85              		.loc 1 194 3 view .LVU16
  86 0014 2B43     		orrs	r3, r3, r5
  87 0016 0343     		orrs	r3, r3, r0
 191:Drivers/STM32F3xx_HAL_Driver/Src/stm32f3xx_hal_wwdg.c **** 
  88              		.loc 1 191 3 view .LVU17
  89 0018 42F08002 		orr	r2, r2, #128
  90 001c 0A60     		str	r2, [r1]
 194:Drivers/STM32F3xx_HAL_Driver/Src/stm32f3xx_hal_wwdg.c **** 
  91              		.loc 1 194 3 is_stmt 1 view .LVU18
 197:Drivers/STM32F3xx_HAL_Driver/Src/stm32f3xx_hal_wwdg.c **** }
  92              		.loc 1 197 10 is_stmt 0 view .LVU19
  93 001e 0020     		movs	r0, #0
 194:Drivers/STM32F3xx_HAL_Driver/Src/stm32f3xx_hal_wwdg.c **** 
  94              		.loc 1 194 3 view .LVU20
  95 0020 4B60     		str	r3, [r1, #4]
 197:Drivers/STM32F3xx_HAL_Driver/Src/stm32f3xx_hal_wwdg.c **** }
  96              		.loc 1 197 3 is_stmt 1 view .LVU21
 198:Drivers/STM32F3xx_HAL_Driver/Src/stm32f3xx_hal_wwdg.c **** 
  97              		.loc 1 198 1 is_stmt 0 view .LVU22
  98 0022 38BD     		pop	{r3, r4, r5, pc}
  99              	.LVL3:
 100              	.L5:
 101              	.LCFI1:
 102              		.cfi_def_cfa_offset 0
 103              		.cfi_restore 3
 104              		.cfi_restore 4
 105              		.cfi_restore 5
 106              		.cfi_restore 14
 177:Drivers/STM32F3xx_HAL_Driver/Src/stm32f3xx_hal_wwdg.c ****   }
ARM GAS  /tmp/ccv9Zg3J.s 			page 7


 107              		.loc 1 177 12 view .LVU23
 108 0024 0120     		movs	r0, #1
 109              	.LVL4:
 198:Drivers/STM32F3xx_HAL_Driver/Src/stm32f3xx_hal_wwdg.c **** 
 110              		.loc 1 198 1 view .LVU24
 111 0026 7047     		bx	lr
 112              		.cfi_endproc
 113              	.LFE695:
 115              		.section	.text.HAL_WWDG_Refresh,"ax",%progbits
 116              		.align	1
 117              		.p2align 2,,3
 118              		.global	HAL_WWDG_Refresh
 119              		.syntax unified
 120              		.thumb
 121              		.thumb_func
 122              		.fpu fpv4-sp-d16
 124              	HAL_WWDG_Refresh:
 125              	.LVL5:
 126              	.LFB697:
 219:Drivers/STM32F3xx_HAL_Driver/Src/stm32f3xx_hal_wwdg.c **** 
 220:Drivers/STM32F3xx_HAL_Driver/Src/stm32f3xx_hal_wwdg.c **** /**
 221:Drivers/STM32F3xx_HAL_Driver/Src/stm32f3xx_hal_wwdg.c ****   * @}
 222:Drivers/STM32F3xx_HAL_Driver/Src/stm32f3xx_hal_wwdg.c ****   */
 223:Drivers/STM32F3xx_HAL_Driver/Src/stm32f3xx_hal_wwdg.c **** 
 224:Drivers/STM32F3xx_HAL_Driver/Src/stm32f3xx_hal_wwdg.c **** /** @defgroup WWDG_Exported_Functions_Group2 IO operation functions
 225:Drivers/STM32F3xx_HAL_Driver/Src/stm32f3xx_hal_wwdg.c ****  *  @brief    IO operation functions 
 226:Drivers/STM32F3xx_HAL_Driver/Src/stm32f3xx_hal_wwdg.c ****  *
 227:Drivers/STM32F3xx_HAL_Driver/Src/stm32f3xx_hal_wwdg.c **** @verbatim
 228:Drivers/STM32F3xx_HAL_Driver/Src/stm32f3xx_hal_wwdg.c ****   ==============================================================================
 229:Drivers/STM32F3xx_HAL_Driver/Src/stm32f3xx_hal_wwdg.c ****                       ##### IO operation functions #####
 230:Drivers/STM32F3xx_HAL_Driver/Src/stm32f3xx_hal_wwdg.c ****   ==============================================================================  
 231:Drivers/STM32F3xx_HAL_Driver/Src/stm32f3xx_hal_wwdg.c ****   [..]
 232:Drivers/STM32F3xx_HAL_Driver/Src/stm32f3xx_hal_wwdg.c ****     This section provides functions allowing to:
 233:Drivers/STM32F3xx_HAL_Driver/Src/stm32f3xx_hal_wwdg.c ****     (+) Refresh the WWDG.
 234:Drivers/STM32F3xx_HAL_Driver/Src/stm32f3xx_hal_wwdg.c ****     (+) Handle WWDG interrupt request and associated function callback.
 235:Drivers/STM32F3xx_HAL_Driver/Src/stm32f3xx_hal_wwdg.c **** 
 236:Drivers/STM32F3xx_HAL_Driver/Src/stm32f3xx_hal_wwdg.c **** @endverbatim
 237:Drivers/STM32F3xx_HAL_Driver/Src/stm32f3xx_hal_wwdg.c ****   * @{
 238:Drivers/STM32F3xx_HAL_Driver/Src/stm32f3xx_hal_wwdg.c ****   */
 239:Drivers/STM32F3xx_HAL_Driver/Src/stm32f3xx_hal_wwdg.c **** 
 240:Drivers/STM32F3xx_HAL_Driver/Src/stm32f3xx_hal_wwdg.c **** /**
 241:Drivers/STM32F3xx_HAL_Driver/Src/stm32f3xx_hal_wwdg.c ****   * @brief  Refresh the WWDG.
 242:Drivers/STM32F3xx_HAL_Driver/Src/stm32f3xx_hal_wwdg.c ****   * @param  hwwdg  pointer to a WWDG_HandleTypeDef structure that contains
 243:Drivers/STM32F3xx_HAL_Driver/Src/stm32f3xx_hal_wwdg.c ****   *                the configuration information for the specified WWDG module.
 244:Drivers/STM32F3xx_HAL_Driver/Src/stm32f3xx_hal_wwdg.c ****   * @retval HAL status
 245:Drivers/STM32F3xx_HAL_Driver/Src/stm32f3xx_hal_wwdg.c ****   */
 246:Drivers/STM32F3xx_HAL_Driver/Src/stm32f3xx_hal_wwdg.c **** HAL_StatusTypeDef HAL_WWDG_Refresh(WWDG_HandleTypeDef *hwwdg)
 247:Drivers/STM32F3xx_HAL_Driver/Src/stm32f3xx_hal_wwdg.c **** {
 127              		.loc 1 247 1 is_stmt 1 view -0
 128              		.cfi_startproc
 129              		@ args = 0, pretend = 0, frame = 0
 130              		@ frame_needed = 0, uses_anonymous_args = 0
 131              		@ link register save eliminated.
 248:Drivers/STM32F3xx_HAL_Driver/Src/stm32f3xx_hal_wwdg.c ****   /* Write to WWDG CR the WWDG Counter value to refresh with */
 249:Drivers/STM32F3xx_HAL_Driver/Src/stm32f3xx_hal_wwdg.c ****   WRITE_REG(hwwdg->Instance->CR, (hwwdg->Init.Counter));
 132              		.loc 1 249 3 view .LVU26
 247:Drivers/STM32F3xx_HAL_Driver/Src/stm32f3xx_hal_wwdg.c ****   /* Write to WWDG CR the WWDG Counter value to refresh with */
ARM GAS  /tmp/ccv9Zg3J.s 			page 8


 133              		.loc 1 247 1 is_stmt 0 view .LVU27
 134 0000 0346     		mov	r3, r0
 250:Drivers/STM32F3xx_HAL_Driver/Src/stm32f3xx_hal_wwdg.c **** 
 251:Drivers/STM32F3xx_HAL_Driver/Src/stm32f3xx_hal_wwdg.c ****   /* Return function status */
 252:Drivers/STM32F3xx_HAL_Driver/Src/stm32f3xx_hal_wwdg.c ****   return HAL_OK;
 253:Drivers/STM32F3xx_HAL_Driver/Src/stm32f3xx_hal_wwdg.c **** }
 135              		.loc 1 253 1 view .LVU28
 136 0002 0020     		movs	r0, #0
 137              	.LVL6:
 249:Drivers/STM32F3xx_HAL_Driver/Src/stm32f3xx_hal_wwdg.c **** 
 138              		.loc 1 249 3 view .LVU29
 139 0004 1A68     		ldr	r2, [r3]
 140 0006 DB68     		ldr	r3, [r3, #12]
 141              	.LVL7:
 249:Drivers/STM32F3xx_HAL_Driver/Src/stm32f3xx_hal_wwdg.c **** 
 142              		.loc 1 249 3 view .LVU30
 143 0008 1360     		str	r3, [r2]
 252:Drivers/STM32F3xx_HAL_Driver/Src/stm32f3xx_hal_wwdg.c **** }
 144              		.loc 1 252 3 is_stmt 1 view .LVU31
 145              		.loc 1 253 1 is_stmt 0 view .LVU32
 146 000a 7047     		bx	lr
 147              		.cfi_endproc
 148              	.LFE697:
 150              		.section	.text.HAL_WWDG_EarlyWakeupCallback,"ax",%progbits
 151              		.align	1
 152              		.p2align 2,,3
 153              		.weak	HAL_WWDG_EarlyWakeupCallback
 154              		.syntax unified
 155              		.thumb
 156              		.thumb_func
 157              		.fpu fpv4-sp-d16
 159              	HAL_WWDG_EarlyWakeupCallback:
 160              	.LFB701:
 161              		.cfi_startproc
 162              		@ args = 0, pretend = 0, frame = 0
 163              		@ frame_needed = 0, uses_anonymous_args = 0
 164              		@ link register save eliminated.
 165 0000 7047     		bx	lr
 166              		.cfi_endproc
 167              	.LFE701:
 169 0002 00BF     		.section	.text.HAL_WWDG_IRQHandler,"ax",%progbits
 170              		.align	1
 171              		.p2align 2,,3
 172              		.global	HAL_WWDG_IRQHandler
 173              		.syntax unified
 174              		.thumb
 175              		.thumb_func
 176              		.fpu fpv4-sp-d16
 178              	HAL_WWDG_IRQHandler:
 179              	.LVL8:
 180              	.LFB698:
 254:Drivers/STM32F3xx_HAL_Driver/Src/stm32f3xx_hal_wwdg.c **** 
 255:Drivers/STM32F3xx_HAL_Driver/Src/stm32f3xx_hal_wwdg.c **** /**
 256:Drivers/STM32F3xx_HAL_Driver/Src/stm32f3xx_hal_wwdg.c ****   * @brief  Handle WWDG interrupt request.
 257:Drivers/STM32F3xx_HAL_Driver/Src/stm32f3xx_hal_wwdg.c ****   * @note   The Early Wakeup Interrupt (EWI) can be used if specific safety operations
 258:Drivers/STM32F3xx_HAL_Driver/Src/stm32f3xx_hal_wwdg.c ****   *         or data logging must be performed before the actual reset is generated.
 259:Drivers/STM32F3xx_HAL_Driver/Src/stm32f3xx_hal_wwdg.c ****   *         The EWI interrupt is enabled by calling HAL_WWDG_Init function with 
ARM GAS  /tmp/ccv9Zg3J.s 			page 9


 260:Drivers/STM32F3xx_HAL_Driver/Src/stm32f3xx_hal_wwdg.c ****   *         EWIMode set to WWDG_EWI_ENABLE.
 261:Drivers/STM32F3xx_HAL_Driver/Src/stm32f3xx_hal_wwdg.c ****   *         When the downcounter reaches the value 0x40, and EWI interrupt is
 262:Drivers/STM32F3xx_HAL_Driver/Src/stm32f3xx_hal_wwdg.c ****   *         generated and the corresponding Interrupt Service Routine (ISR) can
 263:Drivers/STM32F3xx_HAL_Driver/Src/stm32f3xx_hal_wwdg.c ****   *         be used to trigger specific actions (such as communications or data
 264:Drivers/STM32F3xx_HAL_Driver/Src/stm32f3xx_hal_wwdg.c ****   *         logging), before resetting the device.
 265:Drivers/STM32F3xx_HAL_Driver/Src/stm32f3xx_hal_wwdg.c ****   * @param  hwwdg  pointer to a WWDG_HandleTypeDef structure that contains
 266:Drivers/STM32F3xx_HAL_Driver/Src/stm32f3xx_hal_wwdg.c ****   *                the configuration information for the specified WWDG module.
 267:Drivers/STM32F3xx_HAL_Driver/Src/stm32f3xx_hal_wwdg.c ****   * @retval None
 268:Drivers/STM32F3xx_HAL_Driver/Src/stm32f3xx_hal_wwdg.c ****   */
 269:Drivers/STM32F3xx_HAL_Driver/Src/stm32f3xx_hal_wwdg.c **** void HAL_WWDG_IRQHandler(WWDG_HandleTypeDef *hwwdg)
 270:Drivers/STM32F3xx_HAL_Driver/Src/stm32f3xx_hal_wwdg.c **** {
 181              		.loc 1 270 1 is_stmt 1 view -0
 182              		.cfi_startproc
 183              		@ args = 0, pretend = 0, frame = 0
 184              		@ frame_needed = 0, uses_anonymous_args = 0
 271:Drivers/STM32F3xx_HAL_Driver/Src/stm32f3xx_hal_wwdg.c ****   /* Check if Early Wakeup Interrupt is enable */
 272:Drivers/STM32F3xx_HAL_Driver/Src/stm32f3xx_hal_wwdg.c ****   if(__HAL_WWDG_GET_IT_SOURCE(hwwdg, WWDG_IT_EWI) != RESET)
 185              		.loc 1 272 3 view .LVU34
 270:Drivers/STM32F3xx_HAL_Driver/Src/stm32f3xx_hal_wwdg.c ****   /* Check if Early Wakeup Interrupt is enable */
 186              		.loc 1 270 1 is_stmt 0 view .LVU35
 187 0000 08B5     		push	{r3, lr}
 188              	.LCFI2:
 189              		.cfi_def_cfa_offset 8
 190              		.cfi_offset 3, -8
 191              		.cfi_offset 14, -4
 192              		.loc 1 272 6 view .LVU36
 193 0002 0368     		ldr	r3, [r0]
 194 0004 5A68     		ldr	r2, [r3, #4]
 195              		.loc 1 272 5 view .LVU37
 196 0006 9105     		lsls	r1, r2, #22
 197 0008 02D5     		bpl	.L12
 273:Drivers/STM32F3xx_HAL_Driver/Src/stm32f3xx_hal_wwdg.c ****   {
 274:Drivers/STM32F3xx_HAL_Driver/Src/stm32f3xx_hal_wwdg.c ****     /* Check if WWDG Early Wakeup Interrupt occurred */
 275:Drivers/STM32F3xx_HAL_Driver/Src/stm32f3xx_hal_wwdg.c ****     if(__HAL_WWDG_GET_FLAG(hwwdg, WWDG_FLAG_EWIF) != RESET)
 198              		.loc 1 275 5 is_stmt 1 view .LVU38
 199              		.loc 1 275 8 is_stmt 0 view .LVU39
 200 000a 9A68     		ldr	r2, [r3, #8]
 201              		.loc 1 275 7 view .LVU40
 202 000c D207     		lsls	r2, r2, #31
 203 000e 00D4     		bmi	.L21
 204              	.L12:
 276:Drivers/STM32F3xx_HAL_Driver/Src/stm32f3xx_hal_wwdg.c ****     {
 277:Drivers/STM32F3xx_HAL_Driver/Src/stm32f3xx_hal_wwdg.c ****       /* Clear the WWDG Early Wakeup flag */
 278:Drivers/STM32F3xx_HAL_Driver/Src/stm32f3xx_hal_wwdg.c ****       __HAL_WWDG_CLEAR_FLAG(hwwdg, WWDG_FLAG_EWIF);
 279:Drivers/STM32F3xx_HAL_Driver/Src/stm32f3xx_hal_wwdg.c **** 
 280:Drivers/STM32F3xx_HAL_Driver/Src/stm32f3xx_hal_wwdg.c ****       /* Early Wakeup callback */ 
 281:Drivers/STM32F3xx_HAL_Driver/Src/stm32f3xx_hal_wwdg.c ****       HAL_WWDG_EarlyWakeupCallback(hwwdg);
 282:Drivers/STM32F3xx_HAL_Driver/Src/stm32f3xx_hal_wwdg.c ****     }
 283:Drivers/STM32F3xx_HAL_Driver/Src/stm32f3xx_hal_wwdg.c ****   }
 284:Drivers/STM32F3xx_HAL_Driver/Src/stm32f3xx_hal_wwdg.c **** }
 205              		.loc 1 284 1 view .LVU41
 206 0010 08BD     		pop	{r3, pc}
 207              	.L21:
 278:Drivers/STM32F3xx_HAL_Driver/Src/stm32f3xx_hal_wwdg.c **** 
 208              		.loc 1 278 7 is_stmt 1 view .LVU42
 209 0012 6FF00102 		mvn	r2, #1
 210 0016 9A60     		str	r2, [r3, #8]
ARM GAS  /tmp/ccv9Zg3J.s 			page 10


 281:Drivers/STM32F3xx_HAL_Driver/Src/stm32f3xx_hal_wwdg.c ****     }
 211              		.loc 1 281 7 view .LVU43
 212 0018 FFF7FEFF 		bl	HAL_WWDG_EarlyWakeupCallback
 213              	.LVL9:
 214              		.loc 1 284 1 is_stmt 0 view .LVU44
 215 001c 08BD     		pop	{r3, pc}
 216              		.cfi_endproc
 217              	.LFE698:
 219 001e 00BF     		.text
 220              	.Letext0:
 221              		.file 2 "/usr/arm-none-eabi/include/machine/_default_types.h"
 222              		.file 3 "/usr/arm-none-eabi/include/sys/_stdint.h"
 223              		.file 4 "Drivers/CMSIS/Include/core_cm4.h"
 224              		.file 5 "Drivers/CMSIS/Device/ST/STM32F3xx/Include/system_stm32f3xx.h"
 225              		.file 6 "Drivers/CMSIS/Device/ST/STM32F3xx/Include/stm32f303x8.h"
 226              		.file 7 "/usr/arm-none-eabi/include/sys/lock.h"
 227              		.file 8 "/usr/arm-none-eabi/include/sys/_types.h"
 228              		.file 9 "/usr/lib/gcc/arm-none-eabi/8.2.0/include/stddef.h"
 229              		.file 10 "/usr/arm-none-eabi/include/sys/reent.h"
 230              		.file 11 "Drivers/CMSIS/Device/ST/STM32F3xx/Include/stm32f3xx.h"
 231              		.file 12 "Drivers/STM32F3xx_HAL_Driver/Inc/stm32f3xx_hal_def.h"
 232              		.file 13 "Drivers/STM32F3xx_HAL_Driver/Inc/stm32f3xx_hal_wwdg.h"
 233              		.file 14 "Drivers/STM32F3xx_HAL_Driver/Inc/stm32f3xx_ll_dma.h"
ARM GAS  /tmp/ccv9Zg3J.s 			page 11

