ARM GAS  /tmp/cc1baImv.s 			page 1


   1              		.cpu cortex-m4
   2              		.eabi_attribute 27, 1
   3              		.eabi_attribute 28, 1
   4              		.eabi_attribute 20, 1
   5              		.eabi_attribute 21, 1
   6              		.eabi_attribute 23, 3
   7              		.eabi_attribute 24, 1
   8              		.eabi_attribute 25, 1
   9              		.eabi_attribute 26, 1
  10              		.eabi_attribute 30, 2
  11              		.eabi_attribute 34, 1
  12              		.eabi_attribute 18, 4
  13              		.file	"stm32f3xx_hal_tim_ex.c"
  14              		.text
  15              	.Ltext0:
  16              		.cfi_sections	.debug_frame
  17              		.section	.text.HAL_TIMEx_HallSensor_MspInit,"ax",%progbits
  18              		.align	1
  19              		.p2align 2,,3
  20              		.weak	HAL_TIMEx_HallSensor_MspInit
  21              		.arch armv7e-m
  22              		.syntax unified
  23              		.thumb
  24              		.thumb_func
  25              		.fpu fpv4-sp-d16
  27              	HAL_TIMEx_HallSensor_MspInit:
  28              	.LVL0:
  29              	.LFB697:
  30              		.file 1 "Drivers/STM32F3xx_HAL_Driver/Src/stm32f3xx_hal_tim_ex.c"
   1:Drivers/STM32F3xx_HAL_Driver/Src/stm32f3xx_hal_tim_ex.c **** /**
   2:Drivers/STM32F3xx_HAL_Driver/Src/stm32f3xx_hal_tim_ex.c ****   ******************************************************************************
   3:Drivers/STM32F3xx_HAL_Driver/Src/stm32f3xx_hal_tim_ex.c ****   * @file    stm32f3xx_hal_tim_ex.c
   4:Drivers/STM32F3xx_HAL_Driver/Src/stm32f3xx_hal_tim_ex.c ****   * @author  MCD Application Team
   5:Drivers/STM32F3xx_HAL_Driver/Src/stm32f3xx_hal_tim_ex.c ****   * @brief   TIM HAL module driver.
   6:Drivers/STM32F3xx_HAL_Driver/Src/stm32f3xx_hal_tim_ex.c ****   *          This file provides firmware functions to manage the following 
   7:Drivers/STM32F3xx_HAL_Driver/Src/stm32f3xx_hal_tim_ex.c ****   *          functionalities of the Timer Extended peripheral:
   8:Drivers/STM32F3xx_HAL_Driver/Src/stm32f3xx_hal_tim_ex.c ****   *           + Time Hall Sensor Interface Initialization
   9:Drivers/STM32F3xx_HAL_Driver/Src/stm32f3xx_hal_tim_ex.c ****   *           + Time Hall Sensor Interface Start
  10:Drivers/STM32F3xx_HAL_Driver/Src/stm32f3xx_hal_tim_ex.c ****   *           + Time Complementary signal bread and dead time configuration  
  11:Drivers/STM32F3xx_HAL_Driver/Src/stm32f3xx_hal_tim_ex.c ****   *           + Time Master and Slave synchronization configuration
  12:Drivers/STM32F3xx_HAL_Driver/Src/stm32f3xx_hal_tim_ex.c ****   *           + Time Output Compare/PWM Channel Configuration (for channels 5 and 6)
  13:Drivers/STM32F3xx_HAL_Driver/Src/stm32f3xx_hal_tim_ex.c ****   *           + Time OCRef clear configuration
  14:Drivers/STM32F3xx_HAL_Driver/Src/stm32f3xx_hal_tim_ex.c ****   *           + Timer remapping capabilities configuration
  15:Drivers/STM32F3xx_HAL_Driver/Src/stm32f3xx_hal_tim_ex.c ****   @verbatim
  16:Drivers/STM32F3xx_HAL_Driver/Src/stm32f3xx_hal_tim_ex.c ****   ==============================================================================
  17:Drivers/STM32F3xx_HAL_Driver/Src/stm32f3xx_hal_tim_ex.c ****                       ##### TIMER Extended features #####
  18:Drivers/STM32F3xx_HAL_Driver/Src/stm32f3xx_hal_tim_ex.c ****   ==============================================================================
  19:Drivers/STM32F3xx_HAL_Driver/Src/stm32f3xx_hal_tim_ex.c ****   [..] 
  20:Drivers/STM32F3xx_HAL_Driver/Src/stm32f3xx_hal_tim_ex.c ****     The Timer Extended features include: 
  21:Drivers/STM32F3xx_HAL_Driver/Src/stm32f3xx_hal_tim_ex.c ****     (#) Complementary outputs with programmable dead-time for :
  22:Drivers/STM32F3xx_HAL_Driver/Src/stm32f3xx_hal_tim_ex.c ****         (++) Output Compare
  23:Drivers/STM32F3xx_HAL_Driver/Src/stm32f3xx_hal_tim_ex.c ****         (++) PWM generation (Edge and Center-aligned Mode)
  24:Drivers/STM32F3xx_HAL_Driver/Src/stm32f3xx_hal_tim_ex.c ****         (++) One-pulse mode output
  25:Drivers/STM32F3xx_HAL_Driver/Src/stm32f3xx_hal_tim_ex.c ****     (#) Synchronization circuit to control the timer with external signals and to 
  26:Drivers/STM32F3xx_HAL_Driver/Src/stm32f3xx_hal_tim_ex.c ****         interconnect several timers together.
  27:Drivers/STM32F3xx_HAL_Driver/Src/stm32f3xx_hal_tim_ex.c ****     (#) Break input to put the timer output signals in reset state or in a known state.
  28:Drivers/STM32F3xx_HAL_Driver/Src/stm32f3xx_hal_tim_ex.c ****     (#) Supports incremental (quadrature) encoder and hall-sensor circuitry for 
ARM GAS  /tmp/cc1baImv.s 			page 2


  29:Drivers/STM32F3xx_HAL_Driver/Src/stm32f3xx_hal_tim_ex.c ****         positioning purposes                
  30:Drivers/STM32F3xx_HAL_Driver/Src/stm32f3xx_hal_tim_ex.c **** 
  31:Drivers/STM32F3xx_HAL_Driver/Src/stm32f3xx_hal_tim_ex.c ****             ##### How to use this driver #####
  32:Drivers/STM32F3xx_HAL_Driver/Src/stm32f3xx_hal_tim_ex.c ****   ==============================================================================
  33:Drivers/STM32F3xx_HAL_Driver/Src/stm32f3xx_hal_tim_ex.c ****     [..]
  34:Drivers/STM32F3xx_HAL_Driver/Src/stm32f3xx_hal_tim_ex.c ****      (#) Initialize the TIM low level resources by implementing the following functions 
  35:Drivers/STM32F3xx_HAL_Driver/Src/stm32f3xx_hal_tim_ex.c ****          depending from feature used :
  36:Drivers/STM32F3xx_HAL_Driver/Src/stm32f3xx_hal_tim_ex.c ****            (++) Complementary Output Compare : HAL_TIM_OC_MspInit()
  37:Drivers/STM32F3xx_HAL_Driver/Src/stm32f3xx_hal_tim_ex.c ****            (++) Complementary PWM generation : HAL_TIM_PWM_MspInit()
  38:Drivers/STM32F3xx_HAL_Driver/Src/stm32f3xx_hal_tim_ex.c ****            (++) Complementary One-pulse mode output : HAL_TIM_OnePulse_MspInit()
  39:Drivers/STM32F3xx_HAL_Driver/Src/stm32f3xx_hal_tim_ex.c ****            (++) Hall Sensor output : HAL_TIM_HallSensor_MspInit()
  40:Drivers/STM32F3xx_HAL_Driver/Src/stm32f3xx_hal_tim_ex.c ****            
  41:Drivers/STM32F3xx_HAL_Driver/Src/stm32f3xx_hal_tim_ex.c ****      (#) Initialize the TIM low level resources :
  42:Drivers/STM32F3xx_HAL_Driver/Src/stm32f3xx_hal_tim_ex.c ****         (##) Enable the TIM interface clock using __HAL_RCC_TIMx_CLK_ENABLE  (); 
  43:Drivers/STM32F3xx_HAL_Driver/Src/stm32f3xx_hal_tim_ex.c ****         (##) TIM pins configuration
  44:Drivers/STM32F3xx_HAL_Driver/Src/stm32f3xx_hal_tim_ex.c ****             (+++) Enable the clock for the TIM GPIOs using the following function:
  45:Drivers/STM32F3xx_HAL_Driver/Src/stm32f3xx_hal_tim_ex.c ****               __HAL_RCC_GPIOx_CLK_ENABLE();   
  46:Drivers/STM32F3xx_HAL_Driver/Src/stm32f3xx_hal_tim_ex.c ****             (+++) Configure these TIM pins in Alternate function mode using HAL_GPIO_Init();  
  47:Drivers/STM32F3xx_HAL_Driver/Src/stm32f3xx_hal_tim_ex.c **** 
  48:Drivers/STM32F3xx_HAL_Driver/Src/stm32f3xx_hal_tim_ex.c ****      (#) The external Clock can be configured, if needed (the default clock is the 
  49:Drivers/STM32F3xx_HAL_Driver/Src/stm32f3xx_hal_tim_ex.c ****          internal clock from the APBx), using the following function:
  50:Drivers/STM32F3xx_HAL_Driver/Src/stm32f3xx_hal_tim_ex.c ****          HAL_TIM_ConfigClockSource, the clock configuration should be done before 
  51:Drivers/STM32F3xx_HAL_Driver/Src/stm32f3xx_hal_tim_ex.c ****          any start function.
  52:Drivers/STM32F3xx_HAL_Driver/Src/stm32f3xx_hal_tim_ex.c ****   
  53:Drivers/STM32F3xx_HAL_Driver/Src/stm32f3xx_hal_tim_ex.c ****      (#) Configure the TIM in the desired functioning mode using one of the 
  54:Drivers/STM32F3xx_HAL_Driver/Src/stm32f3xx_hal_tim_ex.c ****          initialization function of this driver:
  55:Drivers/STM32F3xx_HAL_Driver/Src/stm32f3xx_hal_tim_ex.c ****           (++) HAL_TIMEx_HallSensor_Init and HAL_TIMEx_ConfigCommutationEvent: to use the 
  56:Drivers/STM32F3xx_HAL_Driver/Src/stm32f3xx_hal_tim_ex.c ****               Timer Hall Sensor Interface and the commutation event with the corresponding 
  57:Drivers/STM32F3xx_HAL_Driver/Src/stm32f3xx_hal_tim_ex.c ****               Interrupt and DMA request if needed (Note that One Timer is used to interface 
  58:Drivers/STM32F3xx_HAL_Driver/Src/stm32f3xx_hal_tim_ex.c ****              with the Hall sensor Interface and another Timer should be used to use 
  59:Drivers/STM32F3xx_HAL_Driver/Src/stm32f3xx_hal_tim_ex.c ****              the commutation event).
  60:Drivers/STM32F3xx_HAL_Driver/Src/stm32f3xx_hal_tim_ex.c **** 
  61:Drivers/STM32F3xx_HAL_Driver/Src/stm32f3xx_hal_tim_ex.c ****      (#) Activate the TIM peripheral using one of the start functions: 
  62:Drivers/STM32F3xx_HAL_Driver/Src/stm32f3xx_hal_tim_ex.c ****            (++) Complementary Output Compare : HAL_TIMEx_OCN_Start(), HAL_TIMEx_OCN_Start_DMA(), HA
  63:Drivers/STM32F3xx_HAL_Driver/Src/stm32f3xx_hal_tim_ex.c ****            (++) Complementary PWM generation : HAL_TIMEx_PWMN_Start(), HAL_TIMEx_PWMN_Start_DMA(), 
  64:Drivers/STM32F3xx_HAL_Driver/Src/stm32f3xx_hal_tim_ex.c ****            (++) Complementary One-pulse mode output : HAL_TIMEx_OnePulseN_Start(), HAL_TIMEx_OnePul
  65:Drivers/STM32F3xx_HAL_Driver/Src/stm32f3xx_hal_tim_ex.c ****            (++) Hall Sensor output : HAL_TIMEx_HallSensor_Start(), HAL_TIMEx_HallSensor_Start_DMA()
  66:Drivers/STM32F3xx_HAL_Driver/Src/stm32f3xx_hal_tim_ex.c **** 
  67:Drivers/STM32F3xx_HAL_Driver/Src/stm32f3xx_hal_tim_ex.c ****   
  68:Drivers/STM32F3xx_HAL_Driver/Src/stm32f3xx_hal_tim_ex.c ****   @endverbatim
  69:Drivers/STM32F3xx_HAL_Driver/Src/stm32f3xx_hal_tim_ex.c ****   ******************************************************************************
  70:Drivers/STM32F3xx_HAL_Driver/Src/stm32f3xx_hal_tim_ex.c ****   * @attention
  71:Drivers/STM32F3xx_HAL_Driver/Src/stm32f3xx_hal_tim_ex.c ****   *
  72:Drivers/STM32F3xx_HAL_Driver/Src/stm32f3xx_hal_tim_ex.c ****   * <h2><center>&copy; COPYRIGHT(c) 2016 STMicroelectronics</center></h2>
  73:Drivers/STM32F3xx_HAL_Driver/Src/stm32f3xx_hal_tim_ex.c ****   *
  74:Drivers/STM32F3xx_HAL_Driver/Src/stm32f3xx_hal_tim_ex.c ****   * Redistribution and use in source and binary forms, with or without modification,
  75:Drivers/STM32F3xx_HAL_Driver/Src/stm32f3xx_hal_tim_ex.c ****   * are permitted provided that the following conditions are met:
  76:Drivers/STM32F3xx_HAL_Driver/Src/stm32f3xx_hal_tim_ex.c ****   *   1. Redistributions of source code must retain the above copyright notice,
  77:Drivers/STM32F3xx_HAL_Driver/Src/stm32f3xx_hal_tim_ex.c ****   *      this list of conditions and the following disclaimer.
  78:Drivers/STM32F3xx_HAL_Driver/Src/stm32f3xx_hal_tim_ex.c ****   *   2. Redistributions in binary form must reproduce the above copyright notice,
  79:Drivers/STM32F3xx_HAL_Driver/Src/stm32f3xx_hal_tim_ex.c ****   *      this list of conditions and the following disclaimer in the documentation
  80:Drivers/STM32F3xx_HAL_Driver/Src/stm32f3xx_hal_tim_ex.c ****   *      and/or other materials provided with the distribution.
  81:Drivers/STM32F3xx_HAL_Driver/Src/stm32f3xx_hal_tim_ex.c ****   *   3. Neither the name of STMicroelectronics nor the names of its contributors
  82:Drivers/STM32F3xx_HAL_Driver/Src/stm32f3xx_hal_tim_ex.c ****   *      may be used to endorse or promote products derived from this software
  83:Drivers/STM32F3xx_HAL_Driver/Src/stm32f3xx_hal_tim_ex.c ****   *      without specific prior written permission.
  84:Drivers/STM32F3xx_HAL_Driver/Src/stm32f3xx_hal_tim_ex.c ****   *
  85:Drivers/STM32F3xx_HAL_Driver/Src/stm32f3xx_hal_tim_ex.c ****   * THIS SOFTWARE IS PROVIDED BY THE COPYRIGHT HOLDERS AND CONTRIBUTORS "AS IS"
ARM GAS  /tmp/cc1baImv.s 			page 3


  86:Drivers/STM32F3xx_HAL_Driver/Src/stm32f3xx_hal_tim_ex.c ****   * AND ANY EXPRESS OR IMPLIED WARRANTIES, INCLUDING, BUT NOT LIMITED TO, THE
  87:Drivers/STM32F3xx_HAL_Driver/Src/stm32f3xx_hal_tim_ex.c ****   * IMPLIED WARRANTIES OF MERCHANTABILITY AND FITNESS FOR A PARTICULAR PURPOSE ARE
  88:Drivers/STM32F3xx_HAL_Driver/Src/stm32f3xx_hal_tim_ex.c ****   * DISCLAIMED. IN NO EVENT SHALL THE COPYRIGHT HOLDER OR CONTRIBUTORS BE LIABLE
  89:Drivers/STM32F3xx_HAL_Driver/Src/stm32f3xx_hal_tim_ex.c ****   * FOR ANY DIRECT, INDIRECT, INCIDENTAL, SPECIAL, EXEMPLARY, OR CONSEQUENTIAL
  90:Drivers/STM32F3xx_HAL_Driver/Src/stm32f3xx_hal_tim_ex.c ****   * DAMAGES (INCLUDING, BUT NOT LIMITED TO, PROCUREMENT OF SUBSTITUTE GOODS OR
  91:Drivers/STM32F3xx_HAL_Driver/Src/stm32f3xx_hal_tim_ex.c ****   * SERVICES; LOSS OF USE, DATA, OR PROFITS; OR BUSINESS INTERRUPTION) HOWEVER
  92:Drivers/STM32F3xx_HAL_Driver/Src/stm32f3xx_hal_tim_ex.c ****   * CAUSED AND ON ANY THEORY OF LIABILITY, WHETHER IN CONTRACT, STRICT LIABILITY,
  93:Drivers/STM32F3xx_HAL_Driver/Src/stm32f3xx_hal_tim_ex.c ****   * OR TORT (INCLUDING NEGLIGENCE OR OTHERWISE) ARISING IN ANY WAY OUT OF THE USE
  94:Drivers/STM32F3xx_HAL_Driver/Src/stm32f3xx_hal_tim_ex.c ****   * OF THIS SOFTWARE, EVEN IF ADVISED OF THE POSSIBILITY OF SUCH DAMAGE.
  95:Drivers/STM32F3xx_HAL_Driver/Src/stm32f3xx_hal_tim_ex.c ****   *
  96:Drivers/STM32F3xx_HAL_Driver/Src/stm32f3xx_hal_tim_ex.c ****   ******************************************************************************
  97:Drivers/STM32F3xx_HAL_Driver/Src/stm32f3xx_hal_tim_ex.c **** */ 
  98:Drivers/STM32F3xx_HAL_Driver/Src/stm32f3xx_hal_tim_ex.c **** 
  99:Drivers/STM32F3xx_HAL_Driver/Src/stm32f3xx_hal_tim_ex.c **** /* Includes ------------------------------------------------------------------*/
 100:Drivers/STM32F3xx_HAL_Driver/Src/stm32f3xx_hal_tim_ex.c **** #include "stm32f3xx_hal.h"
 101:Drivers/STM32F3xx_HAL_Driver/Src/stm32f3xx_hal_tim_ex.c **** 
 102:Drivers/STM32F3xx_HAL_Driver/Src/stm32f3xx_hal_tim_ex.c **** /** @addtogroup STM32F3xx_HAL_Driver
 103:Drivers/STM32F3xx_HAL_Driver/Src/stm32f3xx_hal_tim_ex.c ****   * @{
 104:Drivers/STM32F3xx_HAL_Driver/Src/stm32f3xx_hal_tim_ex.c ****   */
 105:Drivers/STM32F3xx_HAL_Driver/Src/stm32f3xx_hal_tim_ex.c **** 
 106:Drivers/STM32F3xx_HAL_Driver/Src/stm32f3xx_hal_tim_ex.c **** /** @defgroup TIMEx TIMEx
 107:Drivers/STM32F3xx_HAL_Driver/Src/stm32f3xx_hal_tim_ex.c ****   * @brief TIM Extended HAL module driver
 108:Drivers/STM32F3xx_HAL_Driver/Src/stm32f3xx_hal_tim_ex.c ****   * @{
 109:Drivers/STM32F3xx_HAL_Driver/Src/stm32f3xx_hal_tim_ex.c ****   */
 110:Drivers/STM32F3xx_HAL_Driver/Src/stm32f3xx_hal_tim_ex.c **** 
 111:Drivers/STM32F3xx_HAL_Driver/Src/stm32f3xx_hal_tim_ex.c **** #ifdef HAL_TIM_MODULE_ENABLED
 112:Drivers/STM32F3xx_HAL_Driver/Src/stm32f3xx_hal_tim_ex.c **** 
 113:Drivers/STM32F3xx_HAL_Driver/Src/stm32f3xx_hal_tim_ex.c **** /* Private typedef -----------------------------------------------------------*/
 114:Drivers/STM32F3xx_HAL_Driver/Src/stm32f3xx_hal_tim_ex.c **** /* Private define ------------------------------------------------------------*/
 115:Drivers/STM32F3xx_HAL_Driver/Src/stm32f3xx_hal_tim_ex.c **** #if defined(STM32F302xE) || defined(STM32F303xE) || defined(STM32F398xx) || \
 116:Drivers/STM32F3xx_HAL_Driver/Src/stm32f3xx_hal_tim_ex.c ****     defined(STM32F302xC) || defined(STM32F303xC) || defined(STM32F358xx) || \
 117:Drivers/STM32F3xx_HAL_Driver/Src/stm32f3xx_hal_tim_ex.c ****     defined(STM32F303x8) || defined(STM32F334x8) || defined(STM32F328xx) || \
 118:Drivers/STM32F3xx_HAL_Driver/Src/stm32f3xx_hal_tim_ex.c ****     defined(STM32F301x8) || defined(STM32F302x8) || defined(STM32F318xx)
 119:Drivers/STM32F3xx_HAL_Driver/Src/stm32f3xx_hal_tim_ex.c ****       
 120:Drivers/STM32F3xx_HAL_Driver/Src/stm32f3xx_hal_tim_ex.c **** #define BDTR_BKF_SHIFT (16U)
 121:Drivers/STM32F3xx_HAL_Driver/Src/stm32f3xx_hal_tim_ex.c **** #define BDTR_BK2F_SHIFT (20U)
 122:Drivers/STM32F3xx_HAL_Driver/Src/stm32f3xx_hal_tim_ex.c **** #endif /* STM32F302xE || STM32F303xE || STM32F398xx || */
 123:Drivers/STM32F3xx_HAL_Driver/Src/stm32f3xx_hal_tim_ex.c ****        /* STM32F302xC || STM32F303xC || STM32F358xx || */
 124:Drivers/STM32F3xx_HAL_Driver/Src/stm32f3xx_hal_tim_ex.c ****        /* STM32F303x8 || STM32F334x8 || STM32F328xx || */
 125:Drivers/STM32F3xx_HAL_Driver/Src/stm32f3xx_hal_tim_ex.c ****        /* STM32F301x8 || STM32F302x8 || STM32F318xx    */
 126:Drivers/STM32F3xx_HAL_Driver/Src/stm32f3xx_hal_tim_ex.c ****       
 127:Drivers/STM32F3xx_HAL_Driver/Src/stm32f3xx_hal_tim_ex.c **** /* Private macro -------------------------------------------------------------*/
 128:Drivers/STM32F3xx_HAL_Driver/Src/stm32f3xx_hal_tim_ex.c **** /* Private variables ---------------------------------------------------------*/
 129:Drivers/STM32F3xx_HAL_Driver/Src/stm32f3xx_hal_tim_ex.c **** /* Private function prototypes -----------------------------------------------*/
 130:Drivers/STM32F3xx_HAL_Driver/Src/stm32f3xx_hal_tim_ex.c **** 
 131:Drivers/STM32F3xx_HAL_Driver/Src/stm32f3xx_hal_tim_ex.c **** /** @defgroup TIMEx_Private_Functions TIMEx Private Functions
 132:Drivers/STM32F3xx_HAL_Driver/Src/stm32f3xx_hal_tim_ex.c ****   * @{
 133:Drivers/STM32F3xx_HAL_Driver/Src/stm32f3xx_hal_tim_ex.c ****   */
 134:Drivers/STM32F3xx_HAL_Driver/Src/stm32f3xx_hal_tim_ex.c **** static void TIM_CCxNChannelCmd(TIM_TypeDef* TIMx, uint32_t Channel, uint32_t ChannelNState); 
 135:Drivers/STM32F3xx_HAL_Driver/Src/stm32f3xx_hal_tim_ex.c ****    
 136:Drivers/STM32F3xx_HAL_Driver/Src/stm32f3xx_hal_tim_ex.c **** #if defined(STM32F302xE) || defined(STM32F303xE) || defined(STM32F398xx) || \
 137:Drivers/STM32F3xx_HAL_Driver/Src/stm32f3xx_hal_tim_ex.c ****     defined(STM32F302xC) || defined(STM32F303xC) || defined(STM32F358xx) || \
 138:Drivers/STM32F3xx_HAL_Driver/Src/stm32f3xx_hal_tim_ex.c ****     defined(STM32F303x8) || defined(STM32F334x8) || defined(STM32F328xx) || \
 139:Drivers/STM32F3xx_HAL_Driver/Src/stm32f3xx_hal_tim_ex.c ****     defined(STM32F301x8) || defined(STM32F302x8) || defined(STM32F318xx)
 140:Drivers/STM32F3xx_HAL_Driver/Src/stm32f3xx_hal_tim_ex.c **** static void TIM_OC5_SetConfig(TIM_TypeDef *TIMx,
 141:Drivers/STM32F3xx_HAL_Driver/Src/stm32f3xx_hal_tim_ex.c ****                               TIM_OC_InitTypeDef *OC_Config);
 142:Drivers/STM32F3xx_HAL_Driver/Src/stm32f3xx_hal_tim_ex.c **** 
ARM GAS  /tmp/cc1baImv.s 			page 4


 143:Drivers/STM32F3xx_HAL_Driver/Src/stm32f3xx_hal_tim_ex.c **** static void TIM_OC6_SetConfig(TIM_TypeDef *TIMx, 
 144:Drivers/STM32F3xx_HAL_Driver/Src/stm32f3xx_hal_tim_ex.c ****                               TIM_OC_InitTypeDef *OC_Config);
 145:Drivers/STM32F3xx_HAL_Driver/Src/stm32f3xx_hal_tim_ex.c **** #endif /* STM32F302xE || STM32F303xE || STM32F398xx || */
 146:Drivers/STM32F3xx_HAL_Driver/Src/stm32f3xx_hal_tim_ex.c ****        /* STM32F302xC || STM32F303xC || STM32F358xx || */
 147:Drivers/STM32F3xx_HAL_Driver/Src/stm32f3xx_hal_tim_ex.c ****        /* STM32F303x8 || STM32F334x8 || STM32F328xx || */
 148:Drivers/STM32F3xx_HAL_Driver/Src/stm32f3xx_hal_tim_ex.c ****        /* STM32F301x8 || STM32F302x8 || STM32F318xx    */
 149:Drivers/STM32F3xx_HAL_Driver/Src/stm32f3xx_hal_tim_ex.c **** 
 150:Drivers/STM32F3xx_HAL_Driver/Src/stm32f3xx_hal_tim_ex.c **** /**
 151:Drivers/STM32F3xx_HAL_Driver/Src/stm32f3xx_hal_tim_ex.c ****   * @}
 152:Drivers/STM32F3xx_HAL_Driver/Src/stm32f3xx_hal_tim_ex.c ****   */
 153:Drivers/STM32F3xx_HAL_Driver/Src/stm32f3xx_hal_tim_ex.c **** 
 154:Drivers/STM32F3xx_HAL_Driver/Src/stm32f3xx_hal_tim_ex.c **** /* Exported functions ---------------------------------------------------------*/
 155:Drivers/STM32F3xx_HAL_Driver/Src/stm32f3xx_hal_tim_ex.c **** 
 156:Drivers/STM32F3xx_HAL_Driver/Src/stm32f3xx_hal_tim_ex.c **** /** @defgroup TIMEx_Exported_Functions TIMEx Exported Functions
 157:Drivers/STM32F3xx_HAL_Driver/Src/stm32f3xx_hal_tim_ex.c ****   * @{
 158:Drivers/STM32F3xx_HAL_Driver/Src/stm32f3xx_hal_tim_ex.c ****   */
 159:Drivers/STM32F3xx_HAL_Driver/Src/stm32f3xx_hal_tim_ex.c **** 
 160:Drivers/STM32F3xx_HAL_Driver/Src/stm32f3xx_hal_tim_ex.c **** /** @defgroup TIMEx_Exported_Functions_Group1 Timer Hall Sensor functions 
 161:Drivers/STM32F3xx_HAL_Driver/Src/stm32f3xx_hal_tim_ex.c ****   * @brief    Timer Hall Sensor functions
 162:Drivers/STM32F3xx_HAL_Driver/Src/stm32f3xx_hal_tim_ex.c ****   *
 163:Drivers/STM32F3xx_HAL_Driver/Src/stm32f3xx_hal_tim_ex.c **** @verbatim    
 164:Drivers/STM32F3xx_HAL_Driver/Src/stm32f3xx_hal_tim_ex.c ****   ==============================================================================
 165:Drivers/STM32F3xx_HAL_Driver/Src/stm32f3xx_hal_tim_ex.c ****                       ##### Timer Hall Sensor functions #####
 166:Drivers/STM32F3xx_HAL_Driver/Src/stm32f3xx_hal_tim_ex.c ****   ==============================================================================
 167:Drivers/STM32F3xx_HAL_Driver/Src/stm32f3xx_hal_tim_ex.c ****   [..]  
 168:Drivers/STM32F3xx_HAL_Driver/Src/stm32f3xx_hal_tim_ex.c ****     This section provides functions allowing to:
 169:Drivers/STM32F3xx_HAL_Driver/Src/stm32f3xx_hal_tim_ex.c ****     (+) Initialize and configure TIM HAL Sensor. 
 170:Drivers/STM32F3xx_HAL_Driver/Src/stm32f3xx_hal_tim_ex.c ****     (+) De-initialize TIM HAL Sensor.
 171:Drivers/STM32F3xx_HAL_Driver/Src/stm32f3xx_hal_tim_ex.c ****     (+) Start the Hall Sensor Interface.
 172:Drivers/STM32F3xx_HAL_Driver/Src/stm32f3xx_hal_tim_ex.c ****     (+) Stop the Hall Sensor Interface.
 173:Drivers/STM32F3xx_HAL_Driver/Src/stm32f3xx_hal_tim_ex.c ****     (+) Start the Hall Sensor Interface and enable interrupts.
 174:Drivers/STM32F3xx_HAL_Driver/Src/stm32f3xx_hal_tim_ex.c ****     (+) Stop the Hall Sensor Interface and disable interrupts.
 175:Drivers/STM32F3xx_HAL_Driver/Src/stm32f3xx_hal_tim_ex.c ****     (+) Start the Hall Sensor Interface and enable DMA transfers.
 176:Drivers/STM32F3xx_HAL_Driver/Src/stm32f3xx_hal_tim_ex.c ****     (+) Stop the Hall Sensor Interface and disable DMA transfers.
 177:Drivers/STM32F3xx_HAL_Driver/Src/stm32f3xx_hal_tim_ex.c ****  
 178:Drivers/STM32F3xx_HAL_Driver/Src/stm32f3xx_hal_tim_ex.c **** @endverbatim
 179:Drivers/STM32F3xx_HAL_Driver/Src/stm32f3xx_hal_tim_ex.c ****   * @{
 180:Drivers/STM32F3xx_HAL_Driver/Src/stm32f3xx_hal_tim_ex.c ****   */
 181:Drivers/STM32F3xx_HAL_Driver/Src/stm32f3xx_hal_tim_ex.c **** /**
 182:Drivers/STM32F3xx_HAL_Driver/Src/stm32f3xx_hal_tim_ex.c ****   * @brief  Initializes the TIM Hall Sensor Interface and create the associated handle.
 183:Drivers/STM32F3xx_HAL_Driver/Src/stm32f3xx_hal_tim_ex.c ****   * @param  htim TIM Encoder Interface handle
 184:Drivers/STM32F3xx_HAL_Driver/Src/stm32f3xx_hal_tim_ex.c ****   * @param  sConfig TIM Hall Sensor configuration structure
 185:Drivers/STM32F3xx_HAL_Driver/Src/stm32f3xx_hal_tim_ex.c ****   * @retval HAL status
 186:Drivers/STM32F3xx_HAL_Driver/Src/stm32f3xx_hal_tim_ex.c ****   */
 187:Drivers/STM32F3xx_HAL_Driver/Src/stm32f3xx_hal_tim_ex.c **** HAL_StatusTypeDef HAL_TIMEx_HallSensor_Init(TIM_HandleTypeDef *htim, TIM_HallSensor_InitTypeDef* sC
 188:Drivers/STM32F3xx_HAL_Driver/Src/stm32f3xx_hal_tim_ex.c **** {
 189:Drivers/STM32F3xx_HAL_Driver/Src/stm32f3xx_hal_tim_ex.c ****   TIM_OC_InitTypeDef OC_Config;
 190:Drivers/STM32F3xx_HAL_Driver/Src/stm32f3xx_hal_tim_ex.c ****     
 191:Drivers/STM32F3xx_HAL_Driver/Src/stm32f3xx_hal_tim_ex.c ****   /* Check the TIM handle allocation */
 192:Drivers/STM32F3xx_HAL_Driver/Src/stm32f3xx_hal_tim_ex.c ****   if(htim == NULL)
 193:Drivers/STM32F3xx_HAL_Driver/Src/stm32f3xx_hal_tim_ex.c ****   {
 194:Drivers/STM32F3xx_HAL_Driver/Src/stm32f3xx_hal_tim_ex.c ****     return HAL_ERROR;
 195:Drivers/STM32F3xx_HAL_Driver/Src/stm32f3xx_hal_tim_ex.c ****   }
 196:Drivers/STM32F3xx_HAL_Driver/Src/stm32f3xx_hal_tim_ex.c ****   
 197:Drivers/STM32F3xx_HAL_Driver/Src/stm32f3xx_hal_tim_ex.c ****   assert_param(IS_TIM_HALL_INTERFACE_INSTANCE(htim->Instance));
 198:Drivers/STM32F3xx_HAL_Driver/Src/stm32f3xx_hal_tim_ex.c ****   assert_param(IS_TIM_COUNTER_MODE(htim->Init.CounterMode));
 199:Drivers/STM32F3xx_HAL_Driver/Src/stm32f3xx_hal_tim_ex.c ****   assert_param(IS_TIM_CLOCKDIVISION_DIV(htim->Init.ClockDivision));
ARM GAS  /tmp/cc1baImv.s 			page 5


 200:Drivers/STM32F3xx_HAL_Driver/Src/stm32f3xx_hal_tim_ex.c ****   assert_param(IS_TIM_AUTORELOAD_PRELOAD(htim->Init.AutoReloadPreload));
 201:Drivers/STM32F3xx_HAL_Driver/Src/stm32f3xx_hal_tim_ex.c ****   assert_param(IS_TIM_IC_POLARITY(sConfig->IC1Polarity));
 202:Drivers/STM32F3xx_HAL_Driver/Src/stm32f3xx_hal_tim_ex.c ****   assert_param(IS_TIM_IC_PRESCALER(sConfig->IC1Prescaler));
 203:Drivers/STM32F3xx_HAL_Driver/Src/stm32f3xx_hal_tim_ex.c ****   assert_param(IS_TIM_IC_FILTER(sConfig->IC1Filter));
 204:Drivers/STM32F3xx_HAL_Driver/Src/stm32f3xx_hal_tim_ex.c **** 
 205:Drivers/STM32F3xx_HAL_Driver/Src/stm32f3xx_hal_tim_ex.c ****   if(htim->State == HAL_TIM_STATE_RESET)
 206:Drivers/STM32F3xx_HAL_Driver/Src/stm32f3xx_hal_tim_ex.c ****   {
 207:Drivers/STM32F3xx_HAL_Driver/Src/stm32f3xx_hal_tim_ex.c ****     /* Allocate lock resource and initialize it */
 208:Drivers/STM32F3xx_HAL_Driver/Src/stm32f3xx_hal_tim_ex.c ****     htim->Lock = HAL_UNLOCKED;
 209:Drivers/STM32F3xx_HAL_Driver/Src/stm32f3xx_hal_tim_ex.c **** 
 210:Drivers/STM32F3xx_HAL_Driver/Src/stm32f3xx_hal_tim_ex.c ****     /* Init the low level hardware : GPIO, CLOCK, NVIC and DMA */
 211:Drivers/STM32F3xx_HAL_Driver/Src/stm32f3xx_hal_tim_ex.c ****     HAL_TIMEx_HallSensor_MspInit(htim);
 212:Drivers/STM32F3xx_HAL_Driver/Src/stm32f3xx_hal_tim_ex.c ****   }
 213:Drivers/STM32F3xx_HAL_Driver/Src/stm32f3xx_hal_tim_ex.c **** 
 214:Drivers/STM32F3xx_HAL_Driver/Src/stm32f3xx_hal_tim_ex.c ****   /* Set the TIM state */
 215:Drivers/STM32F3xx_HAL_Driver/Src/stm32f3xx_hal_tim_ex.c ****   htim->State = HAL_TIM_STATE_BUSY;
 216:Drivers/STM32F3xx_HAL_Driver/Src/stm32f3xx_hal_tim_ex.c ****   
 217:Drivers/STM32F3xx_HAL_Driver/Src/stm32f3xx_hal_tim_ex.c ****   /* Configure the Time base in the Encoder Mode */
 218:Drivers/STM32F3xx_HAL_Driver/Src/stm32f3xx_hal_tim_ex.c ****   TIM_Base_SetConfig(htim->Instance, &htim->Init);
 219:Drivers/STM32F3xx_HAL_Driver/Src/stm32f3xx_hal_tim_ex.c ****   
 220:Drivers/STM32F3xx_HAL_Driver/Src/stm32f3xx_hal_tim_ex.c ****   /* Configure the Channel 1 as Input Channel to interface with the three Outputs of the  Hall sens
 221:Drivers/STM32F3xx_HAL_Driver/Src/stm32f3xx_hal_tim_ex.c ****   TIM_TI1_SetConfig(htim->Instance, sConfig->IC1Polarity, TIM_ICSELECTION_TRC, sConfig->IC1Filter);
 222:Drivers/STM32F3xx_HAL_Driver/Src/stm32f3xx_hal_tim_ex.c ****   
 223:Drivers/STM32F3xx_HAL_Driver/Src/stm32f3xx_hal_tim_ex.c ****   /* Reset the IC1PSC Bits */
 224:Drivers/STM32F3xx_HAL_Driver/Src/stm32f3xx_hal_tim_ex.c ****   htim->Instance->CCMR1 &= ~TIM_CCMR1_IC1PSC;
 225:Drivers/STM32F3xx_HAL_Driver/Src/stm32f3xx_hal_tim_ex.c ****   /* Set the IC1PSC value */
 226:Drivers/STM32F3xx_HAL_Driver/Src/stm32f3xx_hal_tim_ex.c ****   htim->Instance->CCMR1 |= sConfig->IC1Prescaler;
 227:Drivers/STM32F3xx_HAL_Driver/Src/stm32f3xx_hal_tim_ex.c ****   
 228:Drivers/STM32F3xx_HAL_Driver/Src/stm32f3xx_hal_tim_ex.c ****   /* Enable the Hall sensor interface (XOR function of the three inputs) */
 229:Drivers/STM32F3xx_HAL_Driver/Src/stm32f3xx_hal_tim_ex.c ****   htim->Instance->CR2 |= TIM_CR2_TI1S;
 230:Drivers/STM32F3xx_HAL_Driver/Src/stm32f3xx_hal_tim_ex.c ****   
 231:Drivers/STM32F3xx_HAL_Driver/Src/stm32f3xx_hal_tim_ex.c ****   /* Select the TIM_TS_TI1F_ED signal as Input trigger for the TIM */
 232:Drivers/STM32F3xx_HAL_Driver/Src/stm32f3xx_hal_tim_ex.c ****   htim->Instance->SMCR &= ~TIM_SMCR_TS;
 233:Drivers/STM32F3xx_HAL_Driver/Src/stm32f3xx_hal_tim_ex.c ****   htim->Instance->SMCR |= TIM_TS_TI1F_ED;
 234:Drivers/STM32F3xx_HAL_Driver/Src/stm32f3xx_hal_tim_ex.c ****   
 235:Drivers/STM32F3xx_HAL_Driver/Src/stm32f3xx_hal_tim_ex.c ****   /* Use the TIM_TS_TI1F_ED signal to reset the TIM counter each edge detection */  
 236:Drivers/STM32F3xx_HAL_Driver/Src/stm32f3xx_hal_tim_ex.c ****   htim->Instance->SMCR &= ~TIM_SMCR_SMS;
 237:Drivers/STM32F3xx_HAL_Driver/Src/stm32f3xx_hal_tim_ex.c ****   htim->Instance->SMCR |= TIM_SLAVEMODE_RESET;
 238:Drivers/STM32F3xx_HAL_Driver/Src/stm32f3xx_hal_tim_ex.c ****   
 239:Drivers/STM32F3xx_HAL_Driver/Src/stm32f3xx_hal_tim_ex.c ****   /* Program channel 2 in PWM 2 mode with the desired Commutation_Delay*/
 240:Drivers/STM32F3xx_HAL_Driver/Src/stm32f3xx_hal_tim_ex.c ****   OC_Config.OCFastMode = TIM_OCFAST_DISABLE;
 241:Drivers/STM32F3xx_HAL_Driver/Src/stm32f3xx_hal_tim_ex.c ****   OC_Config.OCIdleState = TIM_OCIDLESTATE_RESET;
 242:Drivers/STM32F3xx_HAL_Driver/Src/stm32f3xx_hal_tim_ex.c ****   OC_Config.OCMode = TIM_OCMODE_PWM2;
 243:Drivers/STM32F3xx_HAL_Driver/Src/stm32f3xx_hal_tim_ex.c ****   OC_Config.OCNIdleState = TIM_OCNIDLESTATE_RESET;
 244:Drivers/STM32F3xx_HAL_Driver/Src/stm32f3xx_hal_tim_ex.c ****   OC_Config.OCNPolarity = TIM_OCNPOLARITY_HIGH;
 245:Drivers/STM32F3xx_HAL_Driver/Src/stm32f3xx_hal_tim_ex.c ****   OC_Config.OCPolarity = TIM_OCPOLARITY_HIGH;
 246:Drivers/STM32F3xx_HAL_Driver/Src/stm32f3xx_hal_tim_ex.c ****   OC_Config.Pulse = sConfig->Commutation_Delay; 
 247:Drivers/STM32F3xx_HAL_Driver/Src/stm32f3xx_hal_tim_ex.c ****     
 248:Drivers/STM32F3xx_HAL_Driver/Src/stm32f3xx_hal_tim_ex.c ****   TIM_OC2_SetConfig(htim->Instance, &OC_Config);
 249:Drivers/STM32F3xx_HAL_Driver/Src/stm32f3xx_hal_tim_ex.c ****   
 250:Drivers/STM32F3xx_HAL_Driver/Src/stm32f3xx_hal_tim_ex.c ****   /* Select OC2REF as trigger output on TRGO: write the MMS bits in the TIMx_CR2
 251:Drivers/STM32F3xx_HAL_Driver/Src/stm32f3xx_hal_tim_ex.c ****     register to 101U */
 252:Drivers/STM32F3xx_HAL_Driver/Src/stm32f3xx_hal_tim_ex.c ****   htim->Instance->CR2 &= ~TIM_CR2_MMS;
 253:Drivers/STM32F3xx_HAL_Driver/Src/stm32f3xx_hal_tim_ex.c ****   htim->Instance->CR2 |= TIM_TRGO_OC2REF; 
 254:Drivers/STM32F3xx_HAL_Driver/Src/stm32f3xx_hal_tim_ex.c ****   
 255:Drivers/STM32F3xx_HAL_Driver/Src/stm32f3xx_hal_tim_ex.c ****   /* Initialize the TIM state*/
 256:Drivers/STM32F3xx_HAL_Driver/Src/stm32f3xx_hal_tim_ex.c ****   htim->State= HAL_TIM_STATE_READY;
ARM GAS  /tmp/cc1baImv.s 			page 6


 257:Drivers/STM32F3xx_HAL_Driver/Src/stm32f3xx_hal_tim_ex.c **** 
 258:Drivers/STM32F3xx_HAL_Driver/Src/stm32f3xx_hal_tim_ex.c ****   return HAL_OK;
 259:Drivers/STM32F3xx_HAL_Driver/Src/stm32f3xx_hal_tim_ex.c **** }
 260:Drivers/STM32F3xx_HAL_Driver/Src/stm32f3xx_hal_tim_ex.c **** 
 261:Drivers/STM32F3xx_HAL_Driver/Src/stm32f3xx_hal_tim_ex.c **** /**
 262:Drivers/STM32F3xx_HAL_Driver/Src/stm32f3xx_hal_tim_ex.c ****   * @brief  DeInitializes the TIM Hall Sensor interface  
 263:Drivers/STM32F3xx_HAL_Driver/Src/stm32f3xx_hal_tim_ex.c ****   * @param  htim TIM Hall Sensor handle
 264:Drivers/STM32F3xx_HAL_Driver/Src/stm32f3xx_hal_tim_ex.c ****   * @retval HAL status
 265:Drivers/STM32F3xx_HAL_Driver/Src/stm32f3xx_hal_tim_ex.c ****   */
 266:Drivers/STM32F3xx_HAL_Driver/Src/stm32f3xx_hal_tim_ex.c **** HAL_StatusTypeDef HAL_TIMEx_HallSensor_DeInit(TIM_HandleTypeDef *htim)
 267:Drivers/STM32F3xx_HAL_Driver/Src/stm32f3xx_hal_tim_ex.c **** {
 268:Drivers/STM32F3xx_HAL_Driver/Src/stm32f3xx_hal_tim_ex.c ****   /* Check the parameters */
 269:Drivers/STM32F3xx_HAL_Driver/Src/stm32f3xx_hal_tim_ex.c ****   assert_param(IS_TIM_INSTANCE(htim->Instance));
 270:Drivers/STM32F3xx_HAL_Driver/Src/stm32f3xx_hal_tim_ex.c **** 
 271:Drivers/STM32F3xx_HAL_Driver/Src/stm32f3xx_hal_tim_ex.c ****   htim->State = HAL_TIM_STATE_BUSY;
 272:Drivers/STM32F3xx_HAL_Driver/Src/stm32f3xx_hal_tim_ex.c ****   
 273:Drivers/STM32F3xx_HAL_Driver/Src/stm32f3xx_hal_tim_ex.c ****   /* Disable the TIM Peripheral Clock */
 274:Drivers/STM32F3xx_HAL_Driver/Src/stm32f3xx_hal_tim_ex.c ****   __HAL_TIM_DISABLE(htim);
 275:Drivers/STM32F3xx_HAL_Driver/Src/stm32f3xx_hal_tim_ex.c ****     
 276:Drivers/STM32F3xx_HAL_Driver/Src/stm32f3xx_hal_tim_ex.c ****   /* DeInit the low level hardware: GPIO, CLOCK, NVIC */
 277:Drivers/STM32F3xx_HAL_Driver/Src/stm32f3xx_hal_tim_ex.c ****   HAL_TIMEx_HallSensor_MspDeInit(htim);
 278:Drivers/STM32F3xx_HAL_Driver/Src/stm32f3xx_hal_tim_ex.c ****     
 279:Drivers/STM32F3xx_HAL_Driver/Src/stm32f3xx_hal_tim_ex.c ****   /* Change TIM state */  
 280:Drivers/STM32F3xx_HAL_Driver/Src/stm32f3xx_hal_tim_ex.c ****   htim->State = HAL_TIM_STATE_RESET; 
 281:Drivers/STM32F3xx_HAL_Driver/Src/stm32f3xx_hal_tim_ex.c ****   
 282:Drivers/STM32F3xx_HAL_Driver/Src/stm32f3xx_hal_tim_ex.c ****   /* Release Lock */
 283:Drivers/STM32F3xx_HAL_Driver/Src/stm32f3xx_hal_tim_ex.c ****   __HAL_UNLOCK(htim);
 284:Drivers/STM32F3xx_HAL_Driver/Src/stm32f3xx_hal_tim_ex.c **** 
 285:Drivers/STM32F3xx_HAL_Driver/Src/stm32f3xx_hal_tim_ex.c ****   return HAL_OK;
 286:Drivers/STM32F3xx_HAL_Driver/Src/stm32f3xx_hal_tim_ex.c **** }
 287:Drivers/STM32F3xx_HAL_Driver/Src/stm32f3xx_hal_tim_ex.c **** 
 288:Drivers/STM32F3xx_HAL_Driver/Src/stm32f3xx_hal_tim_ex.c **** /**
 289:Drivers/STM32F3xx_HAL_Driver/Src/stm32f3xx_hal_tim_ex.c ****   * @brief  Initializes the TIM Hall Sensor MSP.
 290:Drivers/STM32F3xx_HAL_Driver/Src/stm32f3xx_hal_tim_ex.c ****   * @param  htim TIM handle
 291:Drivers/STM32F3xx_HAL_Driver/Src/stm32f3xx_hal_tim_ex.c ****   * @retval None
 292:Drivers/STM32F3xx_HAL_Driver/Src/stm32f3xx_hal_tim_ex.c ****   */
 293:Drivers/STM32F3xx_HAL_Driver/Src/stm32f3xx_hal_tim_ex.c **** __weak void HAL_TIMEx_HallSensor_MspInit(TIM_HandleTypeDef *htim)
 294:Drivers/STM32F3xx_HAL_Driver/Src/stm32f3xx_hal_tim_ex.c **** {
  31              		.loc 1 294 1 view -0
  32              		.cfi_startproc
  33              		@ args = 0, pretend = 0, frame = 0
  34              		@ frame_needed = 0, uses_anonymous_args = 0
  35              		@ link register save eliminated.
 295:Drivers/STM32F3xx_HAL_Driver/Src/stm32f3xx_hal_tim_ex.c ****   /* Prevent unused argument(s) compilation warning */
 296:Drivers/STM32F3xx_HAL_Driver/Src/stm32f3xx_hal_tim_ex.c ****   UNUSED(htim);
  36              		.loc 1 296 3 view .LVU1
 297:Drivers/STM32F3xx_HAL_Driver/Src/stm32f3xx_hal_tim_ex.c **** 
 298:Drivers/STM32F3xx_HAL_Driver/Src/stm32f3xx_hal_tim_ex.c ****   /* NOTE : This function Should not be modified, when the callback is needed,
 299:Drivers/STM32F3xx_HAL_Driver/Src/stm32f3xx_hal_tim_ex.c ****             the HAL_TIMEx_HallSensor_MspInit could be implemented in the user file
 300:Drivers/STM32F3xx_HAL_Driver/Src/stm32f3xx_hal_tim_ex.c ****    */
 301:Drivers/STM32F3xx_HAL_Driver/Src/stm32f3xx_hal_tim_ex.c **** }
  37              		.loc 1 301 1 is_stmt 0 view .LVU2
  38 0000 7047     		bx	lr
  39              		.cfi_endproc
  40              	.LFE697:
  42 0002 00BF     		.section	.text.HAL_TIMEx_HallSensor_Init,"ax",%progbits
  43              		.align	1
ARM GAS  /tmp/cc1baImv.s 			page 7


  44              		.p2align 2,,3
  45              		.global	HAL_TIMEx_HallSensor_Init
  46              		.syntax unified
  47              		.thumb
  48              		.thumb_func
  49              		.fpu fpv4-sp-d16
  51              	HAL_TIMEx_HallSensor_Init:
  52              	.LVL1:
  53              	.LFB695:
 188:Drivers/STM32F3xx_HAL_Driver/Src/stm32f3xx_hal_tim_ex.c ****   TIM_OC_InitTypeDef OC_Config;
  54              		.loc 1 188 1 is_stmt 1 view -0
  55              		.cfi_startproc
  56              		@ args = 0, pretend = 0, frame = 32
  57              		@ frame_needed = 0, uses_anonymous_args = 0
 189:Drivers/STM32F3xx_HAL_Driver/Src/stm32f3xx_hal_tim_ex.c ****     
  58              		.loc 1 189 3 view .LVU4
 192:Drivers/STM32F3xx_HAL_Driver/Src/stm32f3xx_hal_tim_ex.c ****   {
  59              		.loc 1 192 3 view .LVU5
 192:Drivers/STM32F3xx_HAL_Driver/Src/stm32f3xx_hal_tim_ex.c ****   {
  60              		.loc 1 192 5 is_stmt 0 view .LVU6
  61 0000 0028     		cmp	r0, #0
  62 0002 57D0     		beq	.L6
 197:Drivers/STM32F3xx_HAL_Driver/Src/stm32f3xx_hal_tim_ex.c ****   assert_param(IS_TIM_COUNTER_MODE(htim->Init.CounterMode));
  63              		.loc 1 197 3 is_stmt 1 view .LVU7
 198:Drivers/STM32F3xx_HAL_Driver/Src/stm32f3xx_hal_tim_ex.c ****   assert_param(IS_TIM_CLOCKDIVISION_DIV(htim->Init.ClockDivision));
  64              		.loc 1 198 3 view .LVU8
 199:Drivers/STM32F3xx_HAL_Driver/Src/stm32f3xx_hal_tim_ex.c ****   assert_param(IS_TIM_AUTORELOAD_PRELOAD(htim->Init.AutoReloadPreload));
  65              		.loc 1 199 3 view .LVU9
 200:Drivers/STM32F3xx_HAL_Driver/Src/stm32f3xx_hal_tim_ex.c ****   assert_param(IS_TIM_IC_POLARITY(sConfig->IC1Polarity));
  66              		.loc 1 200 3 view .LVU10
 201:Drivers/STM32F3xx_HAL_Driver/Src/stm32f3xx_hal_tim_ex.c ****   assert_param(IS_TIM_IC_PRESCALER(sConfig->IC1Prescaler));
  67              		.loc 1 201 3 view .LVU11
 202:Drivers/STM32F3xx_HAL_Driver/Src/stm32f3xx_hal_tim_ex.c ****   assert_param(IS_TIM_IC_FILTER(sConfig->IC1Filter));
  68              		.loc 1 202 3 view .LVU12
 203:Drivers/STM32F3xx_HAL_Driver/Src/stm32f3xx_hal_tim_ex.c **** 
  69              		.loc 1 203 3 view .LVU13
 205:Drivers/STM32F3xx_HAL_Driver/Src/stm32f3xx_hal_tim_ex.c ****   {
  70              		.loc 1 205 3 view .LVU14
 188:Drivers/STM32F3xx_HAL_Driver/Src/stm32f3xx_hal_tim_ex.c ****   TIM_OC_InitTypeDef OC_Config;
  71              		.loc 1 188 1 is_stmt 0 view .LVU15
  72 0004 70B5     		push	{r4, r5, r6, lr}
  73              	.LCFI0:
  74              		.cfi_def_cfa_offset 16
  75              		.cfi_offset 4, -16
  76              		.cfi_offset 5, -12
  77              		.cfi_offset 6, -8
  78              		.cfi_offset 14, -4
 205:Drivers/STM32F3xx_HAL_Driver/Src/stm32f3xx_hal_tim_ex.c ****   {
  79              		.loc 1 205 10 view .LVU16
  80 0006 90F83D30 		ldrb	r3, [r0, #61]	@ zero_extendqisi2
 188:Drivers/STM32F3xx_HAL_Driver/Src/stm32f3xx_hal_tim_ex.c ****   TIM_OC_InitTypeDef OC_Config;
  81              		.loc 1 188 1 view .LVU17
  82 000a 88B0     		sub	sp, sp, #32
  83              	.LCFI1:
  84              		.cfi_def_cfa_offset 48
  85 000c 0446     		mov	r4, r0
  86 000e 0D46     		mov	r5, r1
ARM GAS  /tmp/cc1baImv.s 			page 8


 205:Drivers/STM32F3xx_HAL_Driver/Src/stm32f3xx_hal_tim_ex.c ****   {
  87              		.loc 1 205 5 view .LVU18
  88 0010 03F0FF02 		and	r2, r3, #255
  89 0014 002B     		cmp	r3, #0
  90 0016 48D0     		beq	.L11
  91              	.LVL2:
  92              	.L5:
 215:Drivers/STM32F3xx_HAL_Driver/Src/stm32f3xx_hal_tim_ex.c ****   
  93              		.loc 1 215 3 is_stmt 1 view .LVU19
 218:Drivers/STM32F3xx_HAL_Driver/Src/stm32f3xx_hal_tim_ex.c ****   
  94              		.loc 1 218 3 is_stmt 0 view .LVU20
  95 0018 2146     		mov	r1, r4
 215:Drivers/STM32F3xx_HAL_Driver/Src/stm32f3xx_hal_tim_ex.c ****   
  96              		.loc 1 215 15 view .LVU21
  97 001a 0223     		movs	r3, #2
 218:Drivers/STM32F3xx_HAL_Driver/Src/stm32f3xx_hal_tim_ex.c ****   
  98              		.loc 1 218 3 view .LVU22
  99 001c 51F8040B 		ldr	r0, [r1], #4
 215:Drivers/STM32F3xx_HAL_Driver/Src/stm32f3xx_hal_tim_ex.c ****   
 100              		.loc 1 215 15 view .LVU23
 101 0020 84F83D30 		strb	r3, [r4, #61]
 218:Drivers/STM32F3xx_HAL_Driver/Src/stm32f3xx_hal_tim_ex.c ****   
 102              		.loc 1 218 3 is_stmt 1 view .LVU24
 103 0024 FFF7FEFF 		bl	TIM_Base_SetConfig
 104              	.LVL3:
 221:Drivers/STM32F3xx_HAL_Driver/Src/stm32f3xx_hal_tim_ex.c ****   
 105              		.loc 1 221 3 view .LVU25
 106 0028 AB68     		ldr	r3, [r5, #8]
 107 002a 2968     		ldr	r1, [r5]
 108 002c 2068     		ldr	r0, [r4]
 109 002e 0322     		movs	r2, #3
 110 0030 FFF7FEFF 		bl	TIM_TI1_SetConfig
 111              	.LVL4:
 224:Drivers/STM32F3xx_HAL_Driver/Src/stm32f3xx_hal_tim_ex.c ****   /* Set the IC1PSC value */
 112              		.loc 1 224 3 view .LVU26
 224:Drivers/STM32F3xx_HAL_Driver/Src/stm32f3xx_hal_tim_ex.c ****   /* Set the IC1PSC value */
 113              		.loc 1 224 7 is_stmt 0 view .LVU27
 114 0034 2068     		ldr	r0, [r4]
 226:Drivers/STM32F3xx_HAL_Driver/Src/stm32f3xx_hal_tim_ex.c ****   
 115              		.loc 1 226 25 view .LVU28
 116 0036 6E68     		ldr	r6, [r5, #4]
 224:Drivers/STM32F3xx_HAL_Driver/Src/stm32f3xx_hal_tim_ex.c ****   /* Set the IC1PSC value */
 117              		.loc 1 224 25 view .LVU29
 118 0038 8269     		ldr	r2, [r0, #24]
 246:Drivers/STM32F3xx_HAL_Driver/Src/stm32f3xx_hal_tim_ex.c ****     
 119              		.loc 1 246 19 view .LVU30
 120 003a E968     		ldr	r1, [r5, #12]
 224:Drivers/STM32F3xx_HAL_Driver/Src/stm32f3xx_hal_tim_ex.c ****   /* Set the IC1PSC value */
 121              		.loc 1 224 25 view .LVU31
 122 003c 22F00C02 		bic	r2, r2, #12
 123 0040 8261     		str	r2, [r0, #24]
 226:Drivers/STM32F3xx_HAL_Driver/Src/stm32f3xx_hal_tim_ex.c ****   
 124              		.loc 1 226 3 is_stmt 1 view .LVU32
 226:Drivers/STM32F3xx_HAL_Driver/Src/stm32f3xx_hal_tim_ex.c ****   
 125              		.loc 1 226 25 is_stmt 0 view .LVU33
 126 0042 8369     		ldr	r3, [r0, #24]
 127 0044 3343     		orrs	r3, r3, r6
ARM GAS  /tmp/cc1baImv.s 			page 9


 128 0046 8361     		str	r3, [r0, #24]
 229:Drivers/STM32F3xx_HAL_Driver/Src/stm32f3xx_hal_tim_ex.c ****   
 129              		.loc 1 229 3 is_stmt 1 view .LVU34
 229:Drivers/STM32F3xx_HAL_Driver/Src/stm32f3xx_hal_tim_ex.c ****   
 130              		.loc 1 229 23 is_stmt 0 view .LVU35
 131 0048 4368     		ldr	r3, [r0, #4]
 132 004a 43F08003 		orr	r3, r3, #128
 133 004e 4360     		str	r3, [r0, #4]
 232:Drivers/STM32F3xx_HAL_Driver/Src/stm32f3xx_hal_tim_ex.c ****   htim->Instance->SMCR |= TIM_TS_TI1F_ED;
 134              		.loc 1 232 3 is_stmt 1 view .LVU36
 232:Drivers/STM32F3xx_HAL_Driver/Src/stm32f3xx_hal_tim_ex.c ****   htim->Instance->SMCR |= TIM_TS_TI1F_ED;
 135              		.loc 1 232 24 is_stmt 0 view .LVU37
 136 0050 8368     		ldr	r3, [r0, #8]
 246:Drivers/STM32F3xx_HAL_Driver/Src/stm32f3xx_hal_tim_ex.c ****     
 137              		.loc 1 246 19 view .LVU38
 138 0052 0291     		str	r1, [sp, #8]
 232:Drivers/STM32F3xx_HAL_Driver/Src/stm32f3xx_hal_tim_ex.c ****   htim->Instance->SMCR |= TIM_TS_TI1F_ED;
 139              		.loc 1 232 24 view .LVU39
 140 0054 23F07003 		bic	r3, r3, #112
 141 0058 8360     		str	r3, [r0, #8]
 233:Drivers/STM32F3xx_HAL_Driver/Src/stm32f3xx_hal_tim_ex.c ****   
 142              		.loc 1 233 3 is_stmt 1 view .LVU40
 233:Drivers/STM32F3xx_HAL_Driver/Src/stm32f3xx_hal_tim_ex.c ****   
 143              		.loc 1 233 24 is_stmt 0 view .LVU41
 144 005a 8368     		ldr	r3, [r0, #8]
 145 005c 43F04003 		orr	r3, r3, #64
 146 0060 8360     		str	r3, [r0, #8]
 236:Drivers/STM32F3xx_HAL_Driver/Src/stm32f3xx_hal_tim_ex.c ****   htim->Instance->SMCR |= TIM_SLAVEMODE_RESET;
 147              		.loc 1 236 3 is_stmt 1 view .LVU42
 236:Drivers/STM32F3xx_HAL_Driver/Src/stm32f3xx_hal_tim_ex.c ****   htim->Instance->SMCR |= TIM_SLAVEMODE_RESET;
 148              		.loc 1 236 24 is_stmt 0 view .LVU43
 149 0062 8368     		ldr	r3, [r0, #8]
 150 0064 23F48033 		bic	r3, r3, #65536
 151 0068 23F00703 		bic	r3, r3, #7
 152 006c 8360     		str	r3, [r0, #8]
 237:Drivers/STM32F3xx_HAL_Driver/Src/stm32f3xx_hal_tim_ex.c ****   
 153              		.loc 1 237 3 is_stmt 1 view .LVU44
 237:Drivers/STM32F3xx_HAL_Driver/Src/stm32f3xx_hal_tim_ex.c ****   
 154              		.loc 1 237 24 is_stmt 0 view .LVU45
 155 006e 8368     		ldr	r3, [r0, #8]
 156 0070 43F00403 		orr	r3, r3, #4
 157 0074 8360     		str	r3, [r0, #8]
 240:Drivers/STM32F3xx_HAL_Driver/Src/stm32f3xx_hal_tim_ex.c ****   OC_Config.OCIdleState = TIM_OCIDLESTATE_RESET;
 158              		.loc 1 240 3 is_stmt 1 view .LVU46
 240:Drivers/STM32F3xx_HAL_Driver/Src/stm32f3xx_hal_tim_ex.c ****   OC_Config.OCIdleState = TIM_OCIDLESTATE_RESET;
 159              		.loc 1 240 24 is_stmt 0 view .LVU47
 160 0076 0025     		movs	r5, #0
 161              	.LVL5:
 242:Drivers/STM32F3xx_HAL_Driver/Src/stm32f3xx_hal_tim_ex.c ****   OC_Config.OCNIdleState = TIM_OCNIDLESTATE_RESET;
 162              		.loc 1 242 20 view .LVU48
 163 0078 7023     		movs	r3, #112
 248:Drivers/STM32F3xx_HAL_Driver/Src/stm32f3xx_hal_tim_ex.c ****   
 164              		.loc 1 248 3 view .LVU49
 165 007a 01A9     		add	r1, sp, #4
 242:Drivers/STM32F3xx_HAL_Driver/Src/stm32f3xx_hal_tim_ex.c ****   OC_Config.OCNIdleState = TIM_OCNIDLESTATE_RESET;
 166              		.loc 1 242 20 view .LVU50
 167 007c 0193     		str	r3, [sp, #4]
ARM GAS  /tmp/cc1baImv.s 			page 10


 241:Drivers/STM32F3xx_HAL_Driver/Src/stm32f3xx_hal_tim_ex.c ****   OC_Config.OCMode = TIM_OCMODE_PWM2;
 168              		.loc 1 241 25 view .LVU51
 169 007e CDE90555 		strd	r5, r5, [sp, #20]
 242:Drivers/STM32F3xx_HAL_Driver/Src/stm32f3xx_hal_tim_ex.c ****   OC_Config.OCNIdleState = TIM_OCNIDLESTATE_RESET;
 170              		.loc 1 242 3 is_stmt 1 view .LVU52
 243:Drivers/STM32F3xx_HAL_Driver/Src/stm32f3xx_hal_tim_ex.c ****   OC_Config.OCNPolarity = TIM_OCNPOLARITY_HIGH;
 171              		.loc 1 243 3 view .LVU53
 244:Drivers/STM32F3xx_HAL_Driver/Src/stm32f3xx_hal_tim_ex.c ****   OC_Config.OCPolarity = TIM_OCPOLARITY_HIGH;
 172              		.loc 1 244 3 view .LVU54
 245:Drivers/STM32F3xx_HAL_Driver/Src/stm32f3xx_hal_tim_ex.c ****   OC_Config.Pulse = sConfig->Commutation_Delay; 
 173              		.loc 1 245 3 view .LVU55
 246:Drivers/STM32F3xx_HAL_Driver/Src/stm32f3xx_hal_tim_ex.c ****     
 174              		.loc 1 246 3 view .LVU56
 248:Drivers/STM32F3xx_HAL_Driver/Src/stm32f3xx_hal_tim_ex.c ****   
 175              		.loc 1 248 3 view .LVU57
 243:Drivers/STM32F3xx_HAL_Driver/Src/stm32f3xx_hal_tim_ex.c ****   OC_Config.OCNPolarity = TIM_OCNPOLARITY_HIGH;
 176              		.loc 1 243 26 is_stmt 0 view .LVU58
 177 0082 0795     		str	r5, [sp, #28]
 245:Drivers/STM32F3xx_HAL_Driver/Src/stm32f3xx_hal_tim_ex.c ****   OC_Config.Pulse = sConfig->Commutation_Delay; 
 178              		.loc 1 245 24 view .LVU59
 179 0084 CDE90355 		strd	r5, r5, [sp, #12]
 248:Drivers/STM32F3xx_HAL_Driver/Src/stm32f3xx_hal_tim_ex.c ****   
 180              		.loc 1 248 3 view .LVU60
 181 0088 FFF7FEFF 		bl	TIM_OC2_SetConfig
 182              	.LVL6:
 252:Drivers/STM32F3xx_HAL_Driver/Src/stm32f3xx_hal_tim_ex.c ****   htim->Instance->CR2 |= TIM_TRGO_OC2REF; 
 183              		.loc 1 252 3 is_stmt 1 view .LVU61
 252:Drivers/STM32F3xx_HAL_Driver/Src/stm32f3xx_hal_tim_ex.c ****   htim->Instance->CR2 |= TIM_TRGO_OC2REF; 
 184              		.loc 1 252 7 is_stmt 0 view .LVU62
 185 008c 2368     		ldr	r3, [r4]
 252:Drivers/STM32F3xx_HAL_Driver/Src/stm32f3xx_hal_tim_ex.c ****   htim->Instance->CR2 |= TIM_TRGO_OC2REF; 
 186              		.loc 1 252 23 view .LVU63
 187 008e 5A68     		ldr	r2, [r3, #4]
 188 0090 22F07002 		bic	r2, r2, #112
 189 0094 5A60     		str	r2, [r3, #4]
 253:Drivers/STM32F3xx_HAL_Driver/Src/stm32f3xx_hal_tim_ex.c ****   
 190              		.loc 1 253 3 is_stmt 1 view .LVU64
 253:Drivers/STM32F3xx_HAL_Driver/Src/stm32f3xx_hal_tim_ex.c ****   
 191              		.loc 1 253 23 is_stmt 0 view .LVU65
 192 0096 5A68     		ldr	r2, [r3, #4]
 256:Drivers/STM32F3xx_HAL_Driver/Src/stm32f3xx_hal_tim_ex.c **** 
 193              		.loc 1 256 14 view .LVU66
 194 0098 0121     		movs	r1, #1
 253:Drivers/STM32F3xx_HAL_Driver/Src/stm32f3xx_hal_tim_ex.c ****   
 195              		.loc 1 253 23 view .LVU67
 196 009a 42F05002 		orr	r2, r2, #80
 258:Drivers/STM32F3xx_HAL_Driver/Src/stm32f3xx_hal_tim_ex.c **** }
 197              		.loc 1 258 10 view .LVU68
 198 009e 2846     		mov	r0, r5
 253:Drivers/STM32F3xx_HAL_Driver/Src/stm32f3xx_hal_tim_ex.c ****   
 199              		.loc 1 253 23 view .LVU69
 200 00a0 5A60     		str	r2, [r3, #4]
 256:Drivers/STM32F3xx_HAL_Driver/Src/stm32f3xx_hal_tim_ex.c **** 
 201              		.loc 1 256 3 is_stmt 1 view .LVU70
 256:Drivers/STM32F3xx_HAL_Driver/Src/stm32f3xx_hal_tim_ex.c **** 
 202              		.loc 1 256 14 is_stmt 0 view .LVU71
 203 00a2 84F83D10 		strb	r1, [r4, #61]
ARM GAS  /tmp/cc1baImv.s 			page 11


 258:Drivers/STM32F3xx_HAL_Driver/Src/stm32f3xx_hal_tim_ex.c **** }
 204              		.loc 1 258 3 is_stmt 1 view .LVU72
 259:Drivers/STM32F3xx_HAL_Driver/Src/stm32f3xx_hal_tim_ex.c **** 
 205              		.loc 1 259 1 is_stmt 0 view .LVU73
 206 00a6 08B0     		add	sp, sp, #32
 207              	.LCFI2:
 208              		.cfi_remember_state
 209              		.cfi_def_cfa_offset 16
 210              		@ sp needed
 211 00a8 70BD     		pop	{r4, r5, r6, pc}
 212              	.LVL7:
 213              	.L11:
 214              	.LCFI3:
 215              		.cfi_restore_state
 208:Drivers/STM32F3xx_HAL_Driver/Src/stm32f3xx_hal_tim_ex.c **** 
 216              		.loc 1 208 5 is_stmt 1 view .LVU74
 208:Drivers/STM32F3xx_HAL_Driver/Src/stm32f3xx_hal_tim_ex.c **** 
 217              		.loc 1 208 16 is_stmt 0 view .LVU75
 218 00aa 80F83C20 		strb	r2, [r0, #60]
 211:Drivers/STM32F3xx_HAL_Driver/Src/stm32f3xx_hal_tim_ex.c ****   }
 219              		.loc 1 211 5 is_stmt 1 view .LVU76
 220 00ae FFF7FEFF 		bl	HAL_TIMEx_HallSensor_MspInit
 221              	.LVL8:
 211:Drivers/STM32F3xx_HAL_Driver/Src/stm32f3xx_hal_tim_ex.c ****   }
 222              		.loc 1 211 5 is_stmt 0 view .LVU77
 223 00b2 B1E7     		b	.L5
 224              	.LVL9:
 225              	.L6:
 226              	.LCFI4:
 227              		.cfi_def_cfa_offset 0
 228              		.cfi_restore 4
 229              		.cfi_restore 5
 230              		.cfi_restore 6
 231              		.cfi_restore 14
 194:Drivers/STM32F3xx_HAL_Driver/Src/stm32f3xx_hal_tim_ex.c ****   }
 232              		.loc 1 194 12 view .LVU78
 233 00b4 0120     		movs	r0, #1
 234              	.LVL10:
 259:Drivers/STM32F3xx_HAL_Driver/Src/stm32f3xx_hal_tim_ex.c **** 
 235              		.loc 1 259 1 view .LVU79
 236 00b6 7047     		bx	lr
 237              		.cfi_endproc
 238              	.LFE695:
 240              		.section	.text.HAL_TIMEx_HallSensor_MspDeInit,"ax",%progbits
 241              		.align	1
 242              		.p2align 2,,3
 243              		.weak	HAL_TIMEx_HallSensor_MspDeInit
 244              		.syntax unified
 245              		.thumb
 246              		.thumb_func
 247              		.fpu fpv4-sp-d16
 249              	HAL_TIMEx_HallSensor_MspDeInit:
 250              	.LFB740:
 251              		.cfi_startproc
 252              		@ args = 0, pretend = 0, frame = 0
 253              		@ frame_needed = 0, uses_anonymous_args = 0
 254              		@ link register save eliminated.
ARM GAS  /tmp/cc1baImv.s 			page 12


 255 0000 7047     		bx	lr
 256              		.cfi_endproc
 257              	.LFE740:
 259 0002 00BF     		.section	.text.HAL_TIMEx_HallSensor_DeInit,"ax",%progbits
 260              		.align	1
 261              		.p2align 2,,3
 262              		.global	HAL_TIMEx_HallSensor_DeInit
 263              		.syntax unified
 264              		.thumb
 265              		.thumb_func
 266              		.fpu fpv4-sp-d16
 268              	HAL_TIMEx_HallSensor_DeInit:
 269              	.LVL11:
 270              	.LFB696:
 267:Drivers/STM32F3xx_HAL_Driver/Src/stm32f3xx_hal_tim_ex.c ****   /* Check the parameters */
 271              		.loc 1 267 1 is_stmt 1 view -0
 272              		.cfi_startproc
 273              		@ args = 0, pretend = 0, frame = 0
 274              		@ frame_needed = 0, uses_anonymous_args = 0
 269:Drivers/STM32F3xx_HAL_Driver/Src/stm32f3xx_hal_tim_ex.c **** 
 275              		.loc 1 269 3 view .LVU81
 271:Drivers/STM32F3xx_HAL_Driver/Src/stm32f3xx_hal_tim_ex.c ****   
 276              		.loc 1 271 3 view .LVU82
 271:Drivers/STM32F3xx_HAL_Driver/Src/stm32f3xx_hal_tim_ex.c ****   
 277              		.loc 1 271 15 is_stmt 0 view .LVU83
 278 0000 0222     		movs	r2, #2
 274:Drivers/STM32F3xx_HAL_Driver/Src/stm32f3xx_hal_tim_ex.c ****     
 279              		.loc 1 274 3 view .LVU84
 280 0002 0368     		ldr	r3, [r0]
 267:Drivers/STM32F3xx_HAL_Driver/Src/stm32f3xx_hal_tim_ex.c ****   /* Check the parameters */
 281              		.loc 1 267 1 view .LVU85
 282 0004 10B5     		push	{r4, lr}
 283              	.LCFI5:
 284              		.cfi_def_cfa_offset 8
 285              		.cfi_offset 4, -8
 286              		.cfi_offset 14, -4
 271:Drivers/STM32F3xx_HAL_Driver/Src/stm32f3xx_hal_tim_ex.c ****   
 287              		.loc 1 271 15 view .LVU86
 288 0006 80F83D20 		strb	r2, [r0, #61]
 274:Drivers/STM32F3xx_HAL_Driver/Src/stm32f3xx_hal_tim_ex.c ****     
 289              		.loc 1 274 3 is_stmt 1 view .LVU87
 274:Drivers/STM32F3xx_HAL_Driver/Src/stm32f3xx_hal_tim_ex.c ****     
 290              		.loc 1 274 3 view .LVU88
 291 000a 196A     		ldr	r1, [r3, #32]
 292 000c 41F21112 		movw	r2, #4369
 293 0010 1142     		tst	r1, r2
 267:Drivers/STM32F3xx_HAL_Driver/Src/stm32f3xx_hal_tim_ex.c ****   /* Check the parameters */
 294              		.loc 1 267 1 is_stmt 0 view .LVU89
 295 0012 0446     		mov	r4, r0
 274:Drivers/STM32F3xx_HAL_Driver/Src/stm32f3xx_hal_tim_ex.c ****     
 296              		.loc 1 274 3 view .LVU90
 297 0014 08D1     		bne	.L14
 274:Drivers/STM32F3xx_HAL_Driver/Src/stm32f3xx_hal_tim_ex.c ****     
 298              		.loc 1 274 3 is_stmt 1 discriminator 1 view .LVU91
 299 0016 196A     		ldr	r1, [r3, #32]
 300 0018 40F24442 		movw	r2, #1092
 301 001c 1142     		tst	r1, r2
ARM GAS  /tmp/cc1baImv.s 			page 13


 302 001e 03D1     		bne	.L14
 274:Drivers/STM32F3xx_HAL_Driver/Src/stm32f3xx_hal_tim_ex.c ****     
 303              		.loc 1 274 3 discriminator 2 view .LVU92
 304 0020 1A68     		ldr	r2, [r3]
 305 0022 22F00102 		bic	r2, r2, #1
 306 0026 1A60     		str	r2, [r3]
 307              	.L14:
 277:Drivers/STM32F3xx_HAL_Driver/Src/stm32f3xx_hal_tim_ex.c ****     
 308              		.loc 1 277 3 view .LVU93
 309 0028 2046     		mov	r0, r4
 310              	.LVL12:
 277:Drivers/STM32F3xx_HAL_Driver/Src/stm32f3xx_hal_tim_ex.c ****     
 311              		.loc 1 277 3 is_stmt 0 view .LVU94
 312 002a FFF7FEFF 		bl	HAL_TIMEx_HallSensor_MspDeInit
 313              	.LVL13:
 280:Drivers/STM32F3xx_HAL_Driver/Src/stm32f3xx_hal_tim_ex.c ****   
 314              		.loc 1 280 3 is_stmt 1 view .LVU95
 280:Drivers/STM32F3xx_HAL_Driver/Src/stm32f3xx_hal_tim_ex.c ****   
 315              		.loc 1 280 15 is_stmt 0 view .LVU96
 316 002e 0020     		movs	r0, #0
 317 0030 84F83D00 		strb	r0, [r4, #61]
 283:Drivers/STM32F3xx_HAL_Driver/Src/stm32f3xx_hal_tim_ex.c **** 
 318              		.loc 1 283 3 is_stmt 1 view .LVU97
 283:Drivers/STM32F3xx_HAL_Driver/Src/stm32f3xx_hal_tim_ex.c **** 
 319              		.loc 1 283 3 view .LVU98
 320 0034 84F83C00 		strb	r0, [r4, #60]
 285:Drivers/STM32F3xx_HAL_Driver/Src/stm32f3xx_hal_tim_ex.c **** }
 321              		.loc 1 285 3 view .LVU99
 286:Drivers/STM32F3xx_HAL_Driver/Src/stm32f3xx_hal_tim_ex.c **** 
 322              		.loc 1 286 1 is_stmt 0 view .LVU100
 323 0038 10BD     		pop	{r4, pc}
 286:Drivers/STM32F3xx_HAL_Driver/Src/stm32f3xx_hal_tim_ex.c **** 
 324              		.loc 1 286 1 view .LVU101
 325              		.cfi_endproc
 326              	.LFE696:
 328 003a 00BF     		.section	.text.HAL_TIMEx_HallSensor_Start,"ax",%progbits
 329              		.align	1
 330              		.p2align 2,,3
 331              		.global	HAL_TIMEx_HallSensor_Start
 332              		.syntax unified
 333              		.thumb
 334              		.thumb_func
 335              		.fpu fpv4-sp-d16
 337              	HAL_TIMEx_HallSensor_Start:
 338              	.LVL14:
 339              	.LFB699:
 302:Drivers/STM32F3xx_HAL_Driver/Src/stm32f3xx_hal_tim_ex.c **** 
 303:Drivers/STM32F3xx_HAL_Driver/Src/stm32f3xx_hal_tim_ex.c **** /**
 304:Drivers/STM32F3xx_HAL_Driver/Src/stm32f3xx_hal_tim_ex.c ****   * @brief  DeInitializes TIM Hall Sensor MSP.
 305:Drivers/STM32F3xx_HAL_Driver/Src/stm32f3xx_hal_tim_ex.c ****   * @param  htim TIM handle
 306:Drivers/STM32F3xx_HAL_Driver/Src/stm32f3xx_hal_tim_ex.c ****   * @retval None
 307:Drivers/STM32F3xx_HAL_Driver/Src/stm32f3xx_hal_tim_ex.c ****   */
 308:Drivers/STM32F3xx_HAL_Driver/Src/stm32f3xx_hal_tim_ex.c **** __weak void HAL_TIMEx_HallSensor_MspDeInit(TIM_HandleTypeDef *htim)
 309:Drivers/STM32F3xx_HAL_Driver/Src/stm32f3xx_hal_tim_ex.c **** {
 310:Drivers/STM32F3xx_HAL_Driver/Src/stm32f3xx_hal_tim_ex.c ****   /* Prevent unused argument(s) compilation warning */
 311:Drivers/STM32F3xx_HAL_Driver/Src/stm32f3xx_hal_tim_ex.c ****   UNUSED(htim);
 312:Drivers/STM32F3xx_HAL_Driver/Src/stm32f3xx_hal_tim_ex.c **** 
ARM GAS  /tmp/cc1baImv.s 			page 14


 313:Drivers/STM32F3xx_HAL_Driver/Src/stm32f3xx_hal_tim_ex.c ****   /* NOTE : This function Should not be modified, when the callback is needed,
 314:Drivers/STM32F3xx_HAL_Driver/Src/stm32f3xx_hal_tim_ex.c ****             the HAL_TIMEx_HallSensor_MspDeInit could be implemented in the user file
 315:Drivers/STM32F3xx_HAL_Driver/Src/stm32f3xx_hal_tim_ex.c ****    */
 316:Drivers/STM32F3xx_HAL_Driver/Src/stm32f3xx_hal_tim_ex.c **** }
 317:Drivers/STM32F3xx_HAL_Driver/Src/stm32f3xx_hal_tim_ex.c **** 
 318:Drivers/STM32F3xx_HAL_Driver/Src/stm32f3xx_hal_tim_ex.c **** /**
 319:Drivers/STM32F3xx_HAL_Driver/Src/stm32f3xx_hal_tim_ex.c ****   * @brief  Starts the TIM Hall Sensor Interface.
 320:Drivers/STM32F3xx_HAL_Driver/Src/stm32f3xx_hal_tim_ex.c ****   * @param  htim TIM Hall Sensor handle
 321:Drivers/STM32F3xx_HAL_Driver/Src/stm32f3xx_hal_tim_ex.c ****   * @retval HAL status
 322:Drivers/STM32F3xx_HAL_Driver/Src/stm32f3xx_hal_tim_ex.c ****   */
 323:Drivers/STM32F3xx_HAL_Driver/Src/stm32f3xx_hal_tim_ex.c **** HAL_StatusTypeDef HAL_TIMEx_HallSensor_Start(TIM_HandleTypeDef *htim)
 324:Drivers/STM32F3xx_HAL_Driver/Src/stm32f3xx_hal_tim_ex.c **** {
 340              		.loc 1 324 1 is_stmt 1 view -0
 341              		.cfi_startproc
 342              		@ args = 0, pretend = 0, frame = 0
 343              		@ frame_needed = 0, uses_anonymous_args = 0
 325:Drivers/STM32F3xx_HAL_Driver/Src/stm32f3xx_hal_tim_ex.c ****   /* Check the parameters */
 326:Drivers/STM32F3xx_HAL_Driver/Src/stm32f3xx_hal_tim_ex.c ****   assert_param(IS_TIM_HALL_INTERFACE_INSTANCE(htim->Instance));
 344              		.loc 1 326 3 view .LVU103
 327:Drivers/STM32F3xx_HAL_Driver/Src/stm32f3xx_hal_tim_ex.c ****   
 328:Drivers/STM32F3xx_HAL_Driver/Src/stm32f3xx_hal_tim_ex.c ****   /* Enable the Input Capture channel 1
 329:Drivers/STM32F3xx_HAL_Driver/Src/stm32f3xx_hal_tim_ex.c ****     (in the Hall Sensor Interface the three possible channels that can be used are TIM_CHANNEL_1, T
 330:Drivers/STM32F3xx_HAL_Driver/Src/stm32f3xx_hal_tim_ex.c ****   TIM_CCxChannelCmd(htim->Instance, TIM_CHANNEL_1, TIM_CCx_ENABLE); 
 345              		.loc 1 330 3 view .LVU104
 324:Drivers/STM32F3xx_HAL_Driver/Src/stm32f3xx_hal_tim_ex.c ****   /* Check the parameters */
 346              		.loc 1 324 1 is_stmt 0 view .LVU105
 347 0000 10B5     		push	{r4, lr}
 348              	.LCFI6:
 349              		.cfi_def_cfa_offset 8
 350              		.cfi_offset 4, -8
 351              		.cfi_offset 14, -4
 324:Drivers/STM32F3xx_HAL_Driver/Src/stm32f3xx_hal_tim_ex.c ****   /* Check the parameters */
 352              		.loc 1 324 1 view .LVU106
 353 0002 0446     		mov	r4, r0
 354              		.loc 1 330 3 view .LVU107
 355 0004 0122     		movs	r2, #1
 356 0006 0068     		ldr	r0, [r0]
 357              	.LVL15:
 358              		.loc 1 330 3 view .LVU108
 359 0008 0021     		movs	r1, #0
 360 000a FFF7FEFF 		bl	TIM_CCxChannelCmd
 361              	.LVL16:
 331:Drivers/STM32F3xx_HAL_Driver/Src/stm32f3xx_hal_tim_ex.c ****   
 332:Drivers/STM32F3xx_HAL_Driver/Src/stm32f3xx_hal_tim_ex.c ****   /* Enable the Peripheral */
 333:Drivers/STM32F3xx_HAL_Driver/Src/stm32f3xx_hal_tim_ex.c ****   __HAL_TIM_ENABLE(htim);
 362              		.loc 1 333 3 is_stmt 1 view .LVU109
 363 000e 2268     		ldr	r2, [r4]
 364 0010 1368     		ldr	r3, [r2]
 365 0012 43F00103 		orr	r3, r3, #1
 366 0016 1360     		str	r3, [r2]
 334:Drivers/STM32F3xx_HAL_Driver/Src/stm32f3xx_hal_tim_ex.c ****   
 335:Drivers/STM32F3xx_HAL_Driver/Src/stm32f3xx_hal_tim_ex.c ****   /* Return function status */
 336:Drivers/STM32F3xx_HAL_Driver/Src/stm32f3xx_hal_tim_ex.c ****   return HAL_OK;
 367              		.loc 1 336 3 view .LVU110
 337:Drivers/STM32F3xx_HAL_Driver/Src/stm32f3xx_hal_tim_ex.c **** }
 368              		.loc 1 337 1 is_stmt 0 view .LVU111
 369 0018 0020     		movs	r0, #0
ARM GAS  /tmp/cc1baImv.s 			page 15


 370 001a 10BD     		pop	{r4, pc}
 371              		.loc 1 337 1 view .LVU112
 372              		.cfi_endproc
 373              	.LFE699:
 375              		.section	.text.HAL_TIMEx_HallSensor_Stop,"ax",%progbits
 376              		.align	1
 377              		.p2align 2,,3
 378              		.global	HAL_TIMEx_HallSensor_Stop
 379              		.syntax unified
 380              		.thumb
 381              		.thumb_func
 382              		.fpu fpv4-sp-d16
 384              	HAL_TIMEx_HallSensor_Stop:
 385              	.LVL17:
 386              	.LFB700:
 338:Drivers/STM32F3xx_HAL_Driver/Src/stm32f3xx_hal_tim_ex.c **** 
 339:Drivers/STM32F3xx_HAL_Driver/Src/stm32f3xx_hal_tim_ex.c **** /**
 340:Drivers/STM32F3xx_HAL_Driver/Src/stm32f3xx_hal_tim_ex.c ****   * @brief  Stops the TIM Hall sensor Interface.
 341:Drivers/STM32F3xx_HAL_Driver/Src/stm32f3xx_hal_tim_ex.c ****   * @param  htim TIM Hall Sensor handle
 342:Drivers/STM32F3xx_HAL_Driver/Src/stm32f3xx_hal_tim_ex.c ****   * @retval HAL status
 343:Drivers/STM32F3xx_HAL_Driver/Src/stm32f3xx_hal_tim_ex.c ****   */
 344:Drivers/STM32F3xx_HAL_Driver/Src/stm32f3xx_hal_tim_ex.c **** HAL_StatusTypeDef HAL_TIMEx_HallSensor_Stop(TIM_HandleTypeDef *htim)
 345:Drivers/STM32F3xx_HAL_Driver/Src/stm32f3xx_hal_tim_ex.c **** {
 387              		.loc 1 345 1 is_stmt 1 view -0
 388              		.cfi_startproc
 389              		@ args = 0, pretend = 0, frame = 0
 390              		@ frame_needed = 0, uses_anonymous_args = 0
 346:Drivers/STM32F3xx_HAL_Driver/Src/stm32f3xx_hal_tim_ex.c ****   /* Check the parameters */
 347:Drivers/STM32F3xx_HAL_Driver/Src/stm32f3xx_hal_tim_ex.c ****   assert_param(IS_TIM_HALL_INTERFACE_INSTANCE(htim->Instance));
 391              		.loc 1 347 3 view .LVU114
 348:Drivers/STM32F3xx_HAL_Driver/Src/stm32f3xx_hal_tim_ex.c ****   
 349:Drivers/STM32F3xx_HAL_Driver/Src/stm32f3xx_hal_tim_ex.c ****   /* Disable the Input Capture channels 1U, 2 and 3
 350:Drivers/STM32F3xx_HAL_Driver/Src/stm32f3xx_hal_tim_ex.c ****     (in the Hall Sensor Interface the three possible channels that can be used are TIM_CHANNEL_1, T
 351:Drivers/STM32F3xx_HAL_Driver/Src/stm32f3xx_hal_tim_ex.c ****   TIM_CCxChannelCmd(htim->Instance, TIM_CHANNEL_1, TIM_CCx_DISABLE); 
 392              		.loc 1 351 3 view .LVU115
 393 0000 0022     		movs	r2, #0
 345:Drivers/STM32F3xx_HAL_Driver/Src/stm32f3xx_hal_tim_ex.c ****   /* Check the parameters */
 394              		.loc 1 345 1 is_stmt 0 view .LVU116
 395 0002 10B5     		push	{r4, lr}
 396              	.LCFI7:
 397              		.cfi_def_cfa_offset 8
 398              		.cfi_offset 4, -8
 399              		.cfi_offset 14, -4
 345:Drivers/STM32F3xx_HAL_Driver/Src/stm32f3xx_hal_tim_ex.c ****   /* Check the parameters */
 400              		.loc 1 345 1 view .LVU117
 401 0004 0446     		mov	r4, r0
 402              		.loc 1 351 3 view .LVU118
 403 0006 1146     		mov	r1, r2
 404 0008 0068     		ldr	r0, [r0]
 405              	.LVL18:
 406              		.loc 1 351 3 view .LVU119
 407 000a FFF7FEFF 		bl	TIM_CCxChannelCmd
 408              	.LVL19:
 352:Drivers/STM32F3xx_HAL_Driver/Src/stm32f3xx_hal_tim_ex.c **** 
 353:Drivers/STM32F3xx_HAL_Driver/Src/stm32f3xx_hal_tim_ex.c ****   /* Disable the Peripheral */
 354:Drivers/STM32F3xx_HAL_Driver/Src/stm32f3xx_hal_tim_ex.c ****   __HAL_TIM_DISABLE(htim);
 409              		.loc 1 354 3 is_stmt 1 view .LVU120
ARM GAS  /tmp/cc1baImv.s 			page 16


 410              		.loc 1 354 3 view .LVU121
 411 000e 2368     		ldr	r3, [r4]
 412 0010 196A     		ldr	r1, [r3, #32]
 413 0012 41F21112 		movw	r2, #4369
 414 0016 1142     		tst	r1, r2
 415 0018 08D1     		bne	.L19
 416              		.loc 1 354 3 discriminator 1 view .LVU122
 417 001a 196A     		ldr	r1, [r3, #32]
 418 001c 40F24442 		movw	r2, #1092
 419 0020 1142     		tst	r1, r2
 420 0022 03D1     		bne	.L19
 421              		.loc 1 354 3 discriminator 2 view .LVU123
 422 0024 1A68     		ldr	r2, [r3]
 423 0026 22F00102 		bic	r2, r2, #1
 424 002a 1A60     		str	r2, [r3]
 425              	.L19:
 355:Drivers/STM32F3xx_HAL_Driver/Src/stm32f3xx_hal_tim_ex.c ****   
 356:Drivers/STM32F3xx_HAL_Driver/Src/stm32f3xx_hal_tim_ex.c ****   /* Return function status */
 357:Drivers/STM32F3xx_HAL_Driver/Src/stm32f3xx_hal_tim_ex.c ****   return HAL_OK;
 426              		.loc 1 357 3 view .LVU124
 358:Drivers/STM32F3xx_HAL_Driver/Src/stm32f3xx_hal_tim_ex.c **** }
 427              		.loc 1 358 1 is_stmt 0 view .LVU125
 428 002c 0020     		movs	r0, #0
 429 002e 10BD     		pop	{r4, pc}
 430              		.loc 1 358 1 view .LVU126
 431              		.cfi_endproc
 432              	.LFE700:
 434              		.section	.text.HAL_TIMEx_HallSensor_Start_IT,"ax",%progbits
 435              		.align	1
 436              		.p2align 2,,3
 437              		.global	HAL_TIMEx_HallSensor_Start_IT
 438              		.syntax unified
 439              		.thumb
 440              		.thumb_func
 441              		.fpu fpv4-sp-d16
 443              	HAL_TIMEx_HallSensor_Start_IT:
 444              	.LVL20:
 445              	.LFB701:
 359:Drivers/STM32F3xx_HAL_Driver/Src/stm32f3xx_hal_tim_ex.c **** 
 360:Drivers/STM32F3xx_HAL_Driver/Src/stm32f3xx_hal_tim_ex.c **** /**
 361:Drivers/STM32F3xx_HAL_Driver/Src/stm32f3xx_hal_tim_ex.c ****   * @brief  Starts the TIM Hall Sensor Interface in interrupt mode.
 362:Drivers/STM32F3xx_HAL_Driver/Src/stm32f3xx_hal_tim_ex.c ****   * @param  htim TIM Hall Sensor handle
 363:Drivers/STM32F3xx_HAL_Driver/Src/stm32f3xx_hal_tim_ex.c ****   * @retval HAL status
 364:Drivers/STM32F3xx_HAL_Driver/Src/stm32f3xx_hal_tim_ex.c ****   */
 365:Drivers/STM32F3xx_HAL_Driver/Src/stm32f3xx_hal_tim_ex.c **** HAL_StatusTypeDef HAL_TIMEx_HallSensor_Start_IT(TIM_HandleTypeDef *htim)
 366:Drivers/STM32F3xx_HAL_Driver/Src/stm32f3xx_hal_tim_ex.c **** { 
 446              		.loc 1 366 1 is_stmt 1 view -0
 447              		.cfi_startproc
 448              		@ args = 0, pretend = 0, frame = 0
 449              		@ frame_needed = 0, uses_anonymous_args = 0
 367:Drivers/STM32F3xx_HAL_Driver/Src/stm32f3xx_hal_tim_ex.c ****   /* Check the parameters */
 368:Drivers/STM32F3xx_HAL_Driver/Src/stm32f3xx_hal_tim_ex.c ****   assert_param(IS_TIM_HALL_INTERFACE_INSTANCE(htim->Instance));
 450              		.loc 1 368 3 view .LVU128
 369:Drivers/STM32F3xx_HAL_Driver/Src/stm32f3xx_hal_tim_ex.c ****   
 370:Drivers/STM32F3xx_HAL_Driver/Src/stm32f3xx_hal_tim_ex.c ****   /* Enable the capture compare Interrupts 1 event */
 371:Drivers/STM32F3xx_HAL_Driver/Src/stm32f3xx_hal_tim_ex.c ****   __HAL_TIM_ENABLE_IT(htim, TIM_IT_CC1);
 451              		.loc 1 371 3 view .LVU129
ARM GAS  /tmp/cc1baImv.s 			page 17


 366:Drivers/STM32F3xx_HAL_Driver/Src/stm32f3xx_hal_tim_ex.c ****   /* Check the parameters */
 452              		.loc 1 366 1 is_stmt 0 view .LVU130
 453 0000 10B5     		push	{r4, lr}
 454              	.LCFI8:
 455              		.cfi_def_cfa_offset 8
 456              		.cfi_offset 4, -8
 457              		.cfi_offset 14, -4
 366:Drivers/STM32F3xx_HAL_Driver/Src/stm32f3xx_hal_tim_ex.c ****   /* Check the parameters */
 458              		.loc 1 366 1 view .LVU131
 459 0002 0446     		mov	r4, r0
 460              		.loc 1 371 3 view .LVU132
 461 0004 0068     		ldr	r0, [r0]
 462              	.LVL21:
 463              		.loc 1 371 3 view .LVU133
 464 0006 C368     		ldr	r3, [r0, #12]
 465 0008 43F00203 		orr	r3, r3, #2
 466 000c C360     		str	r3, [r0, #12]
 372:Drivers/STM32F3xx_HAL_Driver/Src/stm32f3xx_hal_tim_ex.c ****   
 373:Drivers/STM32F3xx_HAL_Driver/Src/stm32f3xx_hal_tim_ex.c ****   /* Enable the Input Capture channel 1
 374:Drivers/STM32F3xx_HAL_Driver/Src/stm32f3xx_hal_tim_ex.c ****     (in the Hall Sensor Interface the three possible channels that can be used are TIM_CHANNEL_1, T
 375:Drivers/STM32F3xx_HAL_Driver/Src/stm32f3xx_hal_tim_ex.c ****   TIM_CCxChannelCmd(htim->Instance, TIM_CHANNEL_1, TIM_CCx_ENABLE);  
 467              		.loc 1 375 3 is_stmt 1 view .LVU134
 468 000e 0122     		movs	r2, #1
 469 0010 0021     		movs	r1, #0
 470 0012 FFF7FEFF 		bl	TIM_CCxChannelCmd
 471              	.LVL22:
 376:Drivers/STM32F3xx_HAL_Driver/Src/stm32f3xx_hal_tim_ex.c ****   
 377:Drivers/STM32F3xx_HAL_Driver/Src/stm32f3xx_hal_tim_ex.c ****   /* Enable the Peripheral */
 378:Drivers/STM32F3xx_HAL_Driver/Src/stm32f3xx_hal_tim_ex.c ****   __HAL_TIM_ENABLE(htim);
 472              		.loc 1 378 3 view .LVU135
 473 0016 2268     		ldr	r2, [r4]
 474 0018 1368     		ldr	r3, [r2]
 475 001a 43F00103 		orr	r3, r3, #1
 476 001e 1360     		str	r3, [r2]
 379:Drivers/STM32F3xx_HAL_Driver/Src/stm32f3xx_hal_tim_ex.c ****   
 380:Drivers/STM32F3xx_HAL_Driver/Src/stm32f3xx_hal_tim_ex.c ****   /* Return function status */
 381:Drivers/STM32F3xx_HAL_Driver/Src/stm32f3xx_hal_tim_ex.c ****   return HAL_OK;
 477              		.loc 1 381 3 view .LVU136
 382:Drivers/STM32F3xx_HAL_Driver/Src/stm32f3xx_hal_tim_ex.c **** }
 478              		.loc 1 382 1 is_stmt 0 view .LVU137
 479 0020 0020     		movs	r0, #0
 480 0022 10BD     		pop	{r4, pc}
 481              		.loc 1 382 1 view .LVU138
 482              		.cfi_endproc
 483              	.LFE701:
 485              		.section	.text.HAL_TIMEx_HallSensor_Stop_IT,"ax",%progbits
 486              		.align	1
 487              		.p2align 2,,3
 488              		.global	HAL_TIMEx_HallSensor_Stop_IT
 489              		.syntax unified
 490              		.thumb
 491              		.thumb_func
 492              		.fpu fpv4-sp-d16
 494              	HAL_TIMEx_HallSensor_Stop_IT:
 495              	.LVL23:
 496              	.LFB702:
 383:Drivers/STM32F3xx_HAL_Driver/Src/stm32f3xx_hal_tim_ex.c **** 
ARM GAS  /tmp/cc1baImv.s 			page 18


 384:Drivers/STM32F3xx_HAL_Driver/Src/stm32f3xx_hal_tim_ex.c **** /**
 385:Drivers/STM32F3xx_HAL_Driver/Src/stm32f3xx_hal_tim_ex.c ****   * @brief  Stops the TIM Hall Sensor Interface in interrupt mode.
 386:Drivers/STM32F3xx_HAL_Driver/Src/stm32f3xx_hal_tim_ex.c ****   * @param  htim TIM handle
 387:Drivers/STM32F3xx_HAL_Driver/Src/stm32f3xx_hal_tim_ex.c ****   * @retval HAL status
 388:Drivers/STM32F3xx_HAL_Driver/Src/stm32f3xx_hal_tim_ex.c ****   */
 389:Drivers/STM32F3xx_HAL_Driver/Src/stm32f3xx_hal_tim_ex.c **** HAL_StatusTypeDef HAL_TIMEx_HallSensor_Stop_IT(TIM_HandleTypeDef *htim)
 390:Drivers/STM32F3xx_HAL_Driver/Src/stm32f3xx_hal_tim_ex.c **** {
 497              		.loc 1 390 1 is_stmt 1 view -0
 498              		.cfi_startproc
 499              		@ args = 0, pretend = 0, frame = 0
 500              		@ frame_needed = 0, uses_anonymous_args = 0
 391:Drivers/STM32F3xx_HAL_Driver/Src/stm32f3xx_hal_tim_ex.c ****   /* Check the parameters */
 392:Drivers/STM32F3xx_HAL_Driver/Src/stm32f3xx_hal_tim_ex.c ****   assert_param(IS_TIM_HALL_INTERFACE_INSTANCE(htim->Instance));
 501              		.loc 1 392 3 view .LVU140
 393:Drivers/STM32F3xx_HAL_Driver/Src/stm32f3xx_hal_tim_ex.c ****   
 394:Drivers/STM32F3xx_HAL_Driver/Src/stm32f3xx_hal_tim_ex.c ****   /* Disable the Input Capture channel 1
 395:Drivers/STM32F3xx_HAL_Driver/Src/stm32f3xx_hal_tim_ex.c ****     (in the Hall Sensor Interface the three possible channels that can be used are TIM_CHANNEL_1, T
 396:Drivers/STM32F3xx_HAL_Driver/Src/stm32f3xx_hal_tim_ex.c ****   TIM_CCxChannelCmd(htim->Instance, TIM_CHANNEL_1, TIM_CCx_DISABLE); 
 502              		.loc 1 396 3 view .LVU141
 503 0000 0022     		movs	r2, #0
 390:Drivers/STM32F3xx_HAL_Driver/Src/stm32f3xx_hal_tim_ex.c ****   /* Check the parameters */
 504              		.loc 1 390 1 is_stmt 0 view .LVU142
 505 0002 10B5     		push	{r4, lr}
 506              	.LCFI9:
 507              		.cfi_def_cfa_offset 8
 508              		.cfi_offset 4, -8
 509              		.cfi_offset 14, -4
 390:Drivers/STM32F3xx_HAL_Driver/Src/stm32f3xx_hal_tim_ex.c ****   /* Check the parameters */
 510              		.loc 1 390 1 view .LVU143
 511 0004 0446     		mov	r4, r0
 512              		.loc 1 396 3 view .LVU144
 513 0006 1146     		mov	r1, r2
 514 0008 0068     		ldr	r0, [r0]
 515              	.LVL24:
 516              		.loc 1 396 3 view .LVU145
 517 000a FFF7FEFF 		bl	TIM_CCxChannelCmd
 518              	.LVL25:
 397:Drivers/STM32F3xx_HAL_Driver/Src/stm32f3xx_hal_tim_ex.c ****   
 398:Drivers/STM32F3xx_HAL_Driver/Src/stm32f3xx_hal_tim_ex.c ****   /* Disable the capture compare Interrupts event */
 399:Drivers/STM32F3xx_HAL_Driver/Src/stm32f3xx_hal_tim_ex.c ****   __HAL_TIM_DISABLE_IT(htim, TIM_IT_CC1);
 519              		.loc 1 399 3 is_stmt 1 view .LVU146
 520 000e 2368     		ldr	r3, [r4]
 521 0010 DA68     		ldr	r2, [r3, #12]
 522 0012 22F00202 		bic	r2, r2, #2
 523 0016 DA60     		str	r2, [r3, #12]
 400:Drivers/STM32F3xx_HAL_Driver/Src/stm32f3xx_hal_tim_ex.c ****   
 401:Drivers/STM32F3xx_HAL_Driver/Src/stm32f3xx_hal_tim_ex.c ****   /* Disable the Peripheral */
 402:Drivers/STM32F3xx_HAL_Driver/Src/stm32f3xx_hal_tim_ex.c ****   __HAL_TIM_DISABLE(htim);
 524              		.loc 1 402 3 view .LVU147
 525              		.loc 1 402 3 view .LVU148
 526 0018 196A     		ldr	r1, [r3, #32]
 527 001a 41F21112 		movw	r2, #4369
 528 001e 1142     		tst	r1, r2
 529 0020 08D1     		bne	.L24
 530              		.loc 1 402 3 discriminator 1 view .LVU149
 531 0022 196A     		ldr	r1, [r3, #32]
 532 0024 40F24442 		movw	r2, #1092
ARM GAS  /tmp/cc1baImv.s 			page 19


 533 0028 1142     		tst	r1, r2
 534 002a 03D1     		bne	.L24
 535              		.loc 1 402 3 discriminator 2 view .LVU150
 536 002c 1A68     		ldr	r2, [r3]
 537 002e 22F00102 		bic	r2, r2, #1
 538 0032 1A60     		str	r2, [r3]
 539              	.L24:
 403:Drivers/STM32F3xx_HAL_Driver/Src/stm32f3xx_hal_tim_ex.c ****   
 404:Drivers/STM32F3xx_HAL_Driver/Src/stm32f3xx_hal_tim_ex.c ****   /* Return function status */
 405:Drivers/STM32F3xx_HAL_Driver/Src/stm32f3xx_hal_tim_ex.c ****   return HAL_OK;
 540              		.loc 1 405 3 view .LVU151
 406:Drivers/STM32F3xx_HAL_Driver/Src/stm32f3xx_hal_tim_ex.c **** }
 541              		.loc 1 406 1 is_stmt 0 view .LVU152
 542 0034 0020     		movs	r0, #0
 543 0036 10BD     		pop	{r4, pc}
 544              		.loc 1 406 1 view .LVU153
 545              		.cfi_endproc
 546              	.LFE702:
 548              		.section	.text.HAL_TIMEx_HallSensor_Start_DMA,"ax",%progbits
 549              		.align	1
 550              		.p2align 2,,3
 551              		.global	HAL_TIMEx_HallSensor_Start_DMA
 552              		.syntax unified
 553              		.thumb
 554              		.thumb_func
 555              		.fpu fpv4-sp-d16
 557              	HAL_TIMEx_HallSensor_Start_DMA:
 558              	.LVL26:
 559              	.LFB703:
 407:Drivers/STM32F3xx_HAL_Driver/Src/stm32f3xx_hal_tim_ex.c **** 
 408:Drivers/STM32F3xx_HAL_Driver/Src/stm32f3xx_hal_tim_ex.c **** /**
 409:Drivers/STM32F3xx_HAL_Driver/Src/stm32f3xx_hal_tim_ex.c ****   * @brief  Starts the TIM Hall Sensor Interface in DMA mode.
 410:Drivers/STM32F3xx_HAL_Driver/Src/stm32f3xx_hal_tim_ex.c ****   * @param  htim TIM Hall Sensor handle
 411:Drivers/STM32F3xx_HAL_Driver/Src/stm32f3xx_hal_tim_ex.c ****   * @param  pData The destination Buffer address.
 412:Drivers/STM32F3xx_HAL_Driver/Src/stm32f3xx_hal_tim_ex.c ****   * @param  Length The length of data to be transferred from TIM peripheral to memory.
 413:Drivers/STM32F3xx_HAL_Driver/Src/stm32f3xx_hal_tim_ex.c ****   * @retval HAL status
 414:Drivers/STM32F3xx_HAL_Driver/Src/stm32f3xx_hal_tim_ex.c ****   */
 415:Drivers/STM32F3xx_HAL_Driver/Src/stm32f3xx_hal_tim_ex.c **** HAL_StatusTypeDef HAL_TIMEx_HallSensor_Start_DMA(TIM_HandleTypeDef *htim, uint32_t *pData, uint16_t
 416:Drivers/STM32F3xx_HAL_Driver/Src/stm32f3xx_hal_tim_ex.c **** {
 560              		.loc 1 416 1 is_stmt 1 view -0
 561              		.cfi_startproc
 562              		@ args = 0, pretend = 0, frame = 0
 563              		@ frame_needed = 0, uses_anonymous_args = 0
 417:Drivers/STM32F3xx_HAL_Driver/Src/stm32f3xx_hal_tim_ex.c ****   /* Check the parameters */
 418:Drivers/STM32F3xx_HAL_Driver/Src/stm32f3xx_hal_tim_ex.c ****   assert_param(IS_TIM_HALL_INTERFACE_INSTANCE(htim->Instance));
 564              		.loc 1 418 3 view .LVU155
 419:Drivers/STM32F3xx_HAL_Driver/Src/stm32f3xx_hal_tim_ex.c ****   
 420:Drivers/STM32F3xx_HAL_Driver/Src/stm32f3xx_hal_tim_ex.c ****    if((htim->State == HAL_TIM_STATE_BUSY))
 565              		.loc 1 420 4 view .LVU156
 416:Drivers/STM32F3xx_HAL_Driver/Src/stm32f3xx_hal_tim_ex.c ****   /* Check the parameters */
 566              		.loc 1 416 1 is_stmt 0 view .LVU157
 567 0000 F8B5     		push	{r3, r4, r5, r6, r7, lr}
 568              	.LCFI10:
 569              		.cfi_def_cfa_offset 24
 570              		.cfi_offset 3, -24
 571              		.cfi_offset 4, -20
 572              		.cfi_offset 5, -16
ARM GAS  /tmp/cc1baImv.s 			page 20


 573              		.cfi_offset 6, -12
 574              		.cfi_offset 7, -8
 575              		.cfi_offset 14, -4
 576              		.loc 1 420 12 view .LVU158
 577 0002 90F83D40 		ldrb	r4, [r0, #61]	@ zero_extendqisi2
 578 0006 E4B2     		uxtb	r4, r4
 579              		.loc 1 420 6 view .LVU159
 580 0008 022C     		cmp	r4, #2
 581 000a 28D0     		beq	.L31
 421:Drivers/STM32F3xx_HAL_Driver/Src/stm32f3xx_hal_tim_ex.c ****   {
 422:Drivers/STM32F3xx_HAL_Driver/Src/stm32f3xx_hal_tim_ex.c ****      return HAL_BUSY;
 423:Drivers/STM32F3xx_HAL_Driver/Src/stm32f3xx_hal_tim_ex.c ****   }
 424:Drivers/STM32F3xx_HAL_Driver/Src/stm32f3xx_hal_tim_ex.c ****   else if((htim->State == HAL_TIM_STATE_READY))
 582              		.loc 1 424 8 is_stmt 1 view .LVU160
 583              		.loc 1 424 16 is_stmt 0 view .LVU161
 584 000c 90F83D40 		ldrb	r4, [r0, #61]	@ zero_extendqisi2
 585 0010 E4B2     		uxtb	r4, r4
 586              		.loc 1 424 10 view .LVU162
 587 0012 012C     		cmp	r4, #1
 588 0014 03D1     		bne	.L28
 425:Drivers/STM32F3xx_HAL_Driver/Src/stm32f3xx_hal_tim_ex.c ****   {
 426:Drivers/STM32F3xx_HAL_Driver/Src/stm32f3xx_hal_tim_ex.c ****     if(((uint32_t)pData == 0U ) && (Length > 0U)) 
 589              		.loc 1 426 5 is_stmt 1 view .LVU163
 590              		.loc 1 426 7 is_stmt 0 view .LVU164
 591 0016 01B3     		cbz	r1, .L33
 592              	.L29:
 427:Drivers/STM32F3xx_HAL_Driver/Src/stm32f3xx_hal_tim_ex.c ****     {
 428:Drivers/STM32F3xx_HAL_Driver/Src/stm32f3xx_hal_tim_ex.c ****       return HAL_ERROR;                                    
 429:Drivers/STM32F3xx_HAL_Driver/Src/stm32f3xx_hal_tim_ex.c ****     }
 430:Drivers/STM32F3xx_HAL_Driver/Src/stm32f3xx_hal_tim_ex.c ****     else
 431:Drivers/STM32F3xx_HAL_Driver/Src/stm32f3xx_hal_tim_ex.c ****     {
 432:Drivers/STM32F3xx_HAL_Driver/Src/stm32f3xx_hal_tim_ex.c ****       htim->State = HAL_TIM_STATE_BUSY;
 593              		.loc 1 432 7 is_stmt 1 view .LVU165
 594              		.loc 1 432 19 is_stmt 0 view .LVU166
 595 0018 0223     		movs	r3, #2
 596 001a 80F83D30 		strb	r3, [r0, #61]
 597              	.L28:
 433:Drivers/STM32F3xx_HAL_Driver/Src/stm32f3xx_hal_tim_ex.c ****     }
 434:Drivers/STM32F3xx_HAL_Driver/Src/stm32f3xx_hal_tim_ex.c ****   }
 435:Drivers/STM32F3xx_HAL_Driver/Src/stm32f3xx_hal_tim_ex.c ****   /* Enable the Input Capture channel 1
 436:Drivers/STM32F3xx_HAL_Driver/Src/stm32f3xx_hal_tim_ex.c ****     (in the Hall Sensor Interface the three possible channels that can be used are TIM_CHANNEL_1, T
 437:Drivers/STM32F3xx_HAL_Driver/Src/stm32f3xx_hal_tim_ex.c ****   TIM_CCxChannelCmd(htim->Instance, TIM_CHANNEL_1, TIM_CCx_ENABLE); 
 598              		.loc 1 437 3 is_stmt 1 view .LVU167
 599 001e 0446     		mov	r4, r0
 600 0020 1646     		mov	r6, r2
 601 0022 0D46     		mov	r5, r1
 602 0024 0122     		movs	r2, #1
 603              	.LVL27:
 604              		.loc 1 437 3 is_stmt 0 view .LVU168
 605 0026 0021     		movs	r1, #0
 606              	.LVL28:
 607              		.loc 1 437 3 view .LVU169
 608 0028 0068     		ldr	r0, [r0]
 609              	.LVL29:
 438:Drivers/STM32F3xx_HAL_Driver/Src/stm32f3xx_hal_tim_ex.c ****   
 439:Drivers/STM32F3xx_HAL_Driver/Src/stm32f3xx_hal_tim_ex.c ****   /* Set the DMA Input Capture 1 Callback */
 440:Drivers/STM32F3xx_HAL_Driver/Src/stm32f3xx_hal_tim_ex.c ****   htim->hdma[TIM_DMA_ID_CC1]->XferCpltCallback = TIM_DMACaptureCplt;     
ARM GAS  /tmp/cc1baImv.s 			page 21


 441:Drivers/STM32F3xx_HAL_Driver/Src/stm32f3xx_hal_tim_ex.c ****   /* Set the DMA error callback */
 442:Drivers/STM32F3xx_HAL_Driver/Src/stm32f3xx_hal_tim_ex.c ****   htim->hdma[TIM_DMA_ID_CC1]->XferErrorCallback = TIM_DMAError ;
 610              		.loc 1 442 49 view .LVU170
 611 002a 0E4F     		ldr	r7, .L34
 437:Drivers/STM32F3xx_HAL_Driver/Src/stm32f3xx_hal_tim_ex.c ****   
 612              		.loc 1 437 3 view .LVU171
 613 002c FFF7FEFF 		bl	TIM_CCxChannelCmd
 614              	.LVL30:
 440:Drivers/STM32F3xx_HAL_Driver/Src/stm32f3xx_hal_tim_ex.c ****   /* Set the DMA error callback */
 615              		.loc 1 440 3 is_stmt 1 view .LVU172
 443:Drivers/STM32F3xx_HAL_Driver/Src/stm32f3xx_hal_tim_ex.c ****   
 444:Drivers/STM32F3xx_HAL_Driver/Src/stm32f3xx_hal_tim_ex.c ****   /* Enable the DMA channel for Capture 1U*/
 445:Drivers/STM32F3xx_HAL_Driver/Src/stm32f3xx_hal_tim_ex.c ****   HAL_DMA_Start_IT(htim->hdma[TIM_DMA_ID_CC1], (uint32_t)&htim->Instance->CCR1, (uint32_t)pData, Le
 616              		.loc 1 445 58 is_stmt 0 view .LVU173
 617 0030 2168     		ldr	r1, [r4]
 440:Drivers/STM32F3xx_HAL_Driver/Src/stm32f3xx_hal_tim_ex.c ****   /* Set the DMA error callback */
 618              		.loc 1 440 13 view .LVU174
 619 0032 606A     		ldr	r0, [r4, #36]
 440:Drivers/STM32F3xx_HAL_Driver/Src/stm32f3xx_hal_tim_ex.c ****   /* Set the DMA error callback */
 620              		.loc 1 440 48 view .LVU175
 621 0034 0C4B     		ldr	r3, .L34+4
 622 0036 8362     		str	r3, [r0, #40]
 442:Drivers/STM32F3xx_HAL_Driver/Src/stm32f3xx_hal_tim_ex.c ****   
 623              		.loc 1 442 3 is_stmt 1 view .LVU176
 624              		.loc 1 445 3 is_stmt 0 view .LVU177
 625 0038 2A46     		mov	r2, r5
 626 003a 3346     		mov	r3, r6
 442:Drivers/STM32F3xx_HAL_Driver/Src/stm32f3xx_hal_tim_ex.c ****   
 627              		.loc 1 442 49 view .LVU178
 628 003c 0763     		str	r7, [r0, #48]
 629              		.loc 1 445 3 is_stmt 1 view .LVU179
 630 003e 3431     		adds	r1, r1, #52
 631 0040 FFF7FEFF 		bl	HAL_DMA_Start_IT
 632              	.LVL31:
 446:Drivers/STM32F3xx_HAL_Driver/Src/stm32f3xx_hal_tim_ex.c ****   
 447:Drivers/STM32F3xx_HAL_Driver/Src/stm32f3xx_hal_tim_ex.c ****   /* Enable the capture compare 1 Interrupt */
 448:Drivers/STM32F3xx_HAL_Driver/Src/stm32f3xx_hal_tim_ex.c ****   __HAL_TIM_ENABLE_DMA(htim, TIM_DMA_CC1);
 633              		.loc 1 448 3 view .LVU180
 634 0044 2368     		ldr	r3, [r4]
 635 0046 DA68     		ldr	r2, [r3, #12]
 636 0048 42F40072 		orr	r2, r2, #512
 637 004c DA60     		str	r2, [r3, #12]
 449:Drivers/STM32F3xx_HAL_Driver/Src/stm32f3xx_hal_tim_ex.c ****  
 450:Drivers/STM32F3xx_HAL_Driver/Src/stm32f3xx_hal_tim_ex.c ****   /* Enable the Peripheral */
 451:Drivers/STM32F3xx_HAL_Driver/Src/stm32f3xx_hal_tim_ex.c ****   __HAL_TIM_ENABLE(htim);
 638              		.loc 1 451 3 view .LVU181
 639 004e 1A68     		ldr	r2, [r3]
 640 0050 42F00102 		orr	r2, r2, #1
 641 0054 1A60     		str	r2, [r3]
 452:Drivers/STM32F3xx_HAL_Driver/Src/stm32f3xx_hal_tim_ex.c ****   
 453:Drivers/STM32F3xx_HAL_Driver/Src/stm32f3xx_hal_tim_ex.c ****   /* Return function status */
 454:Drivers/STM32F3xx_HAL_Driver/Src/stm32f3xx_hal_tim_ex.c ****   return HAL_OK;
 642              		.loc 1 454 3 view .LVU182
 643              		.loc 1 454 10 is_stmt 0 view .LVU183
 644 0056 0020     		movs	r0, #0
 455:Drivers/STM32F3xx_HAL_Driver/Src/stm32f3xx_hal_tim_ex.c **** }
 645              		.loc 1 455 1 view .LVU184
ARM GAS  /tmp/cc1baImv.s 			page 22


 646 0058 F8BD     		pop	{r3, r4, r5, r6, r7, pc}
 647              	.LVL32:
 648              	.L33:
 426:Drivers/STM32F3xx_HAL_Driver/Src/stm32f3xx_hal_tim_ex.c ****     {
 649              		.loc 1 426 33 discriminator 1 view .LVU185
 650 005a 002A     		cmp	r2, #0
 651 005c DCD0     		beq	.L29
 652              	.L31:
 428:Drivers/STM32F3xx_HAL_Driver/Src/stm32f3xx_hal_tim_ex.c ****     }
 653              		.loc 1 428 14 view .LVU186
 654 005e 2046     		mov	r0, r4
 655              	.LVL33:
 656              		.loc 1 455 1 view .LVU187
 657 0060 F8BD     		pop	{r3, r4, r5, r6, r7, pc}
 658              	.L35:
 659 0062 00BF     		.align	2
 660              	.L34:
 661 0064 00000000 		.word	TIM_DMAError
 662 0068 00000000 		.word	TIM_DMACaptureCplt
 663              		.cfi_endproc
 664              	.LFE703:
 666              		.section	.text.HAL_TIMEx_HallSensor_Stop_DMA,"ax",%progbits
 667              		.align	1
 668              		.p2align 2,,3
 669              		.global	HAL_TIMEx_HallSensor_Stop_DMA
 670              		.syntax unified
 671              		.thumb
 672              		.thumb_func
 673              		.fpu fpv4-sp-d16
 675              	HAL_TIMEx_HallSensor_Stop_DMA:
 676              	.LVL34:
 677              	.LFB704:
 456:Drivers/STM32F3xx_HAL_Driver/Src/stm32f3xx_hal_tim_ex.c **** 
 457:Drivers/STM32F3xx_HAL_Driver/Src/stm32f3xx_hal_tim_ex.c **** /**
 458:Drivers/STM32F3xx_HAL_Driver/Src/stm32f3xx_hal_tim_ex.c ****   * @brief  Stops the TIM Hall Sensor Interface in DMA mode.
 459:Drivers/STM32F3xx_HAL_Driver/Src/stm32f3xx_hal_tim_ex.c ****   * @param  htim TIM handle
 460:Drivers/STM32F3xx_HAL_Driver/Src/stm32f3xx_hal_tim_ex.c ****   * @retval HAL status
 461:Drivers/STM32F3xx_HAL_Driver/Src/stm32f3xx_hal_tim_ex.c ****   */
 462:Drivers/STM32F3xx_HAL_Driver/Src/stm32f3xx_hal_tim_ex.c **** HAL_StatusTypeDef HAL_TIMEx_HallSensor_Stop_DMA(TIM_HandleTypeDef *htim)
 463:Drivers/STM32F3xx_HAL_Driver/Src/stm32f3xx_hal_tim_ex.c **** {
 678              		.loc 1 463 1 is_stmt 1 view -0
 679              		.cfi_startproc
 680              		@ args = 0, pretend = 0, frame = 0
 681              		@ frame_needed = 0, uses_anonymous_args = 0
 464:Drivers/STM32F3xx_HAL_Driver/Src/stm32f3xx_hal_tim_ex.c ****   /* Check the parameters */
 465:Drivers/STM32F3xx_HAL_Driver/Src/stm32f3xx_hal_tim_ex.c ****   assert_param(IS_TIM_HALL_INTERFACE_INSTANCE(htim->Instance));
 682              		.loc 1 465 3 view .LVU189
 466:Drivers/STM32F3xx_HAL_Driver/Src/stm32f3xx_hal_tim_ex.c ****   
 467:Drivers/STM32F3xx_HAL_Driver/Src/stm32f3xx_hal_tim_ex.c ****   /* Disable the Input Capture channel 1
 468:Drivers/STM32F3xx_HAL_Driver/Src/stm32f3xx_hal_tim_ex.c ****     (in the Hall Sensor Interface the three possible channels that can be used are TIM_CHANNEL_1, T
 469:Drivers/STM32F3xx_HAL_Driver/Src/stm32f3xx_hal_tim_ex.c ****   TIM_CCxChannelCmd(htim->Instance, TIM_CHANNEL_1, TIM_CCx_DISABLE); 
 683              		.loc 1 469 3 view .LVU190
 684 0000 0022     		movs	r2, #0
 463:Drivers/STM32F3xx_HAL_Driver/Src/stm32f3xx_hal_tim_ex.c ****   /* Check the parameters */
 685              		.loc 1 463 1 is_stmt 0 view .LVU191
 686 0002 10B5     		push	{r4, lr}
 687              	.LCFI11:
ARM GAS  /tmp/cc1baImv.s 			page 23


 688              		.cfi_def_cfa_offset 8
 689              		.cfi_offset 4, -8
 690              		.cfi_offset 14, -4
 463:Drivers/STM32F3xx_HAL_Driver/Src/stm32f3xx_hal_tim_ex.c ****   /* Check the parameters */
 691              		.loc 1 463 1 view .LVU192
 692 0004 0446     		mov	r4, r0
 693              		.loc 1 469 3 view .LVU193
 694 0006 1146     		mov	r1, r2
 695 0008 0068     		ldr	r0, [r0]
 696              	.LVL35:
 697              		.loc 1 469 3 view .LVU194
 698 000a FFF7FEFF 		bl	TIM_CCxChannelCmd
 699              	.LVL36:
 470:Drivers/STM32F3xx_HAL_Driver/Src/stm32f3xx_hal_tim_ex.c ****  
 471:Drivers/STM32F3xx_HAL_Driver/Src/stm32f3xx_hal_tim_ex.c ****   
 472:Drivers/STM32F3xx_HAL_Driver/Src/stm32f3xx_hal_tim_ex.c ****   /* Disable the capture compare Interrupts 1 event */
 473:Drivers/STM32F3xx_HAL_Driver/Src/stm32f3xx_hal_tim_ex.c ****   __HAL_TIM_DISABLE_DMA(htim, TIM_DMA_CC1);
 700              		.loc 1 473 3 is_stmt 1 view .LVU195
 701 000e 2368     		ldr	r3, [r4]
 702 0010 DA68     		ldr	r2, [r3, #12]
 703 0012 22F40072 		bic	r2, r2, #512
 704 0016 DA60     		str	r2, [r3, #12]
 474:Drivers/STM32F3xx_HAL_Driver/Src/stm32f3xx_hal_tim_ex.c ****  
 475:Drivers/STM32F3xx_HAL_Driver/Src/stm32f3xx_hal_tim_ex.c ****   /* Disable the Peripheral */
 476:Drivers/STM32F3xx_HAL_Driver/Src/stm32f3xx_hal_tim_ex.c ****   __HAL_TIM_DISABLE(htim);
 705              		.loc 1 476 3 view .LVU196
 706              		.loc 1 476 3 view .LVU197
 707 0018 196A     		ldr	r1, [r3, #32]
 708 001a 41F21112 		movw	r2, #4369
 709 001e 1142     		tst	r1, r2
 710 0020 08D1     		bne	.L37
 711              		.loc 1 476 3 discriminator 1 view .LVU198
 712 0022 196A     		ldr	r1, [r3, #32]
 713 0024 40F24442 		movw	r2, #1092
 714 0028 1142     		tst	r1, r2
 715 002a 03D1     		bne	.L37
 716              		.loc 1 476 3 discriminator 2 view .LVU199
 717 002c 1A68     		ldr	r2, [r3]
 718 002e 22F00102 		bic	r2, r2, #1
 719 0032 1A60     		str	r2, [r3]
 720              	.L37:
 477:Drivers/STM32F3xx_HAL_Driver/Src/stm32f3xx_hal_tim_ex.c ****   
 478:Drivers/STM32F3xx_HAL_Driver/Src/stm32f3xx_hal_tim_ex.c ****   /* Return function status */
 479:Drivers/STM32F3xx_HAL_Driver/Src/stm32f3xx_hal_tim_ex.c ****   return HAL_OK;
 721              		.loc 1 479 3 view .LVU200
 480:Drivers/STM32F3xx_HAL_Driver/Src/stm32f3xx_hal_tim_ex.c **** }
 722              		.loc 1 480 1 is_stmt 0 view .LVU201
 723 0034 0020     		movs	r0, #0
 724 0036 10BD     		pop	{r4, pc}
 725              		.loc 1 480 1 view .LVU202
 726              		.cfi_endproc
 727              	.LFE704:
 729              		.section	.text.HAL_TIMEx_OCN_Start,"ax",%progbits
 730              		.align	1
 731              		.p2align 2,,3
 732              		.global	HAL_TIMEx_OCN_Start
 733              		.syntax unified
ARM GAS  /tmp/cc1baImv.s 			page 24


 734              		.thumb
 735              		.thumb_func
 736              		.fpu fpv4-sp-d16
 738              	HAL_TIMEx_OCN_Start:
 739              	.LVL37:
 740              	.LFB705:
 481:Drivers/STM32F3xx_HAL_Driver/Src/stm32f3xx_hal_tim_ex.c **** 
 482:Drivers/STM32F3xx_HAL_Driver/Src/stm32f3xx_hal_tim_ex.c **** /**
 483:Drivers/STM32F3xx_HAL_Driver/Src/stm32f3xx_hal_tim_ex.c ****   * @}
 484:Drivers/STM32F3xx_HAL_Driver/Src/stm32f3xx_hal_tim_ex.c ****   */
 485:Drivers/STM32F3xx_HAL_Driver/Src/stm32f3xx_hal_tim_ex.c ****   
 486:Drivers/STM32F3xx_HAL_Driver/Src/stm32f3xx_hal_tim_ex.c **** /** @defgroup TIMEx_Exported_Functions_Group2 Timer Complementary Output Compare functions
 487:Drivers/STM32F3xx_HAL_Driver/Src/stm32f3xx_hal_tim_ex.c ****   *  @brief   Timer Complementary Output Compare functions
 488:Drivers/STM32F3xx_HAL_Driver/Src/stm32f3xx_hal_tim_ex.c ****   *
 489:Drivers/STM32F3xx_HAL_Driver/Src/stm32f3xx_hal_tim_ex.c **** @verbatim   
 490:Drivers/STM32F3xx_HAL_Driver/Src/stm32f3xx_hal_tim_ex.c ****   ==============================================================================
 491:Drivers/STM32F3xx_HAL_Driver/Src/stm32f3xx_hal_tim_ex.c ****               ##### Timer Complementary Output Compare functions #####
 492:Drivers/STM32F3xx_HAL_Driver/Src/stm32f3xx_hal_tim_ex.c ****   ==============================================================================  
 493:Drivers/STM32F3xx_HAL_Driver/Src/stm32f3xx_hal_tim_ex.c ****   [..]  
 494:Drivers/STM32F3xx_HAL_Driver/Src/stm32f3xx_hal_tim_ex.c ****     This section provides functions allowing to:
 495:Drivers/STM32F3xx_HAL_Driver/Src/stm32f3xx_hal_tim_ex.c ****     (+) Start the Complementary Output Compare.
 496:Drivers/STM32F3xx_HAL_Driver/Src/stm32f3xx_hal_tim_ex.c ****     (+) Stop the Complementary Output Compare.
 497:Drivers/STM32F3xx_HAL_Driver/Src/stm32f3xx_hal_tim_ex.c ****     (+) Start the Complementary Output Compare and enable interrupts.
 498:Drivers/STM32F3xx_HAL_Driver/Src/stm32f3xx_hal_tim_ex.c ****     (+) Stop the Complementary Output Compare and disable interrupts.
 499:Drivers/STM32F3xx_HAL_Driver/Src/stm32f3xx_hal_tim_ex.c ****     (+) Start the Complementary Output Compare and enable DMA transfers.
 500:Drivers/STM32F3xx_HAL_Driver/Src/stm32f3xx_hal_tim_ex.c ****     (+) Stop the Complementary Output Compare and disable DMA transfers.
 501:Drivers/STM32F3xx_HAL_Driver/Src/stm32f3xx_hal_tim_ex.c ****                
 502:Drivers/STM32F3xx_HAL_Driver/Src/stm32f3xx_hal_tim_ex.c **** @endverbatim
 503:Drivers/STM32F3xx_HAL_Driver/Src/stm32f3xx_hal_tim_ex.c ****   * @{
 504:Drivers/STM32F3xx_HAL_Driver/Src/stm32f3xx_hal_tim_ex.c ****   */
 505:Drivers/STM32F3xx_HAL_Driver/Src/stm32f3xx_hal_tim_ex.c ****   
 506:Drivers/STM32F3xx_HAL_Driver/Src/stm32f3xx_hal_tim_ex.c **** /**
 507:Drivers/STM32F3xx_HAL_Driver/Src/stm32f3xx_hal_tim_ex.c ****   * @brief  Starts the TIM Output Compare signal generation on the complementary
 508:Drivers/STM32F3xx_HAL_Driver/Src/stm32f3xx_hal_tim_ex.c ****   *         output.
 509:Drivers/STM32F3xx_HAL_Driver/Src/stm32f3xx_hal_tim_ex.c ****   * @param  htim TIM Output Compare handle  
 510:Drivers/STM32F3xx_HAL_Driver/Src/stm32f3xx_hal_tim_ex.c ****   * @param  Channel TIM Channel to be enabled
 511:Drivers/STM32F3xx_HAL_Driver/Src/stm32f3xx_hal_tim_ex.c ****   *          This parameter can be one of the following values:
 512:Drivers/STM32F3xx_HAL_Driver/Src/stm32f3xx_hal_tim_ex.c ****   *            @arg TIM_CHANNEL_1: TIM Channel 1 selected
 513:Drivers/STM32F3xx_HAL_Driver/Src/stm32f3xx_hal_tim_ex.c ****   *            @arg TIM_CHANNEL_2: TIM Channel 2 selected
 514:Drivers/STM32F3xx_HAL_Driver/Src/stm32f3xx_hal_tim_ex.c ****   *            @arg TIM_CHANNEL_3: TIM Channel 3 selected
 515:Drivers/STM32F3xx_HAL_Driver/Src/stm32f3xx_hal_tim_ex.c ****   *            @arg TIM_CHANNEL_4: TIM Channel 4 selected
 516:Drivers/STM32F3xx_HAL_Driver/Src/stm32f3xx_hal_tim_ex.c ****   * @retval HAL status
 517:Drivers/STM32F3xx_HAL_Driver/Src/stm32f3xx_hal_tim_ex.c ****   */
 518:Drivers/STM32F3xx_HAL_Driver/Src/stm32f3xx_hal_tim_ex.c **** HAL_StatusTypeDef HAL_TIMEx_OCN_Start(TIM_HandleTypeDef *htim, uint32_t Channel)
 519:Drivers/STM32F3xx_HAL_Driver/Src/stm32f3xx_hal_tim_ex.c **** {
 741              		.loc 1 519 1 is_stmt 1 view -0
 742              		.cfi_startproc
 743              		@ args = 0, pretend = 0, frame = 0
 744              		@ frame_needed = 0, uses_anonymous_args = 0
 745              		@ link register save eliminated.
 520:Drivers/STM32F3xx_HAL_Driver/Src/stm32f3xx_hal_tim_ex.c ****   /* Check the parameters */
 521:Drivers/STM32F3xx_HAL_Driver/Src/stm32f3xx_hal_tim_ex.c ****   assert_param(IS_TIM_CCXN_INSTANCE(htim->Instance, Channel)); 
 746              		.loc 1 521 3 view .LVU204
 522:Drivers/STM32F3xx_HAL_Driver/Src/stm32f3xx_hal_tim_ex.c ****   
 523:Drivers/STM32F3xx_HAL_Driver/Src/stm32f3xx_hal_tim_ex.c ****      /* Enable the Capture compare channel N */
 524:Drivers/STM32F3xx_HAL_Driver/Src/stm32f3xx_hal_tim_ex.c ****      TIM_CCxNChannelCmd(htim->Instance, Channel, TIM_CCxN_ENABLE);
 747              		.loc 1 524 6 view .LVU205
ARM GAS  /tmp/cc1baImv.s 			page 25


 748 0000 0368     		ldr	r3, [r0]
 749              	.LVL38:
 750              	.LBB36:
 751              	.LBI36:
 525:Drivers/STM32F3xx_HAL_Driver/Src/stm32f3xx_hal_tim_ex.c ****     
 526:Drivers/STM32F3xx_HAL_Driver/Src/stm32f3xx_hal_tim_ex.c ****   /* Enable the Main Ouput */
 527:Drivers/STM32F3xx_HAL_Driver/Src/stm32f3xx_hal_tim_ex.c ****     __HAL_TIM_MOE_ENABLE(htim);
 528:Drivers/STM32F3xx_HAL_Driver/Src/stm32f3xx_hal_tim_ex.c **** 
 529:Drivers/STM32F3xx_HAL_Driver/Src/stm32f3xx_hal_tim_ex.c ****   /* Enable the Peripheral */
 530:Drivers/STM32F3xx_HAL_Driver/Src/stm32f3xx_hal_tim_ex.c ****   __HAL_TIM_ENABLE(htim);
 531:Drivers/STM32F3xx_HAL_Driver/Src/stm32f3xx_hal_tim_ex.c ****   
 532:Drivers/STM32F3xx_HAL_Driver/Src/stm32f3xx_hal_tim_ex.c ****   /* Return function status */
 533:Drivers/STM32F3xx_HAL_Driver/Src/stm32f3xx_hal_tim_ex.c ****   return HAL_OK;
 534:Drivers/STM32F3xx_HAL_Driver/Src/stm32f3xx_hal_tim_ex.c **** } 
 535:Drivers/STM32F3xx_HAL_Driver/Src/stm32f3xx_hal_tim_ex.c **** 
 536:Drivers/STM32F3xx_HAL_Driver/Src/stm32f3xx_hal_tim_ex.c **** /**
 537:Drivers/STM32F3xx_HAL_Driver/Src/stm32f3xx_hal_tim_ex.c ****   * @brief  Stops the TIM Output Compare signal generation on the complementary
 538:Drivers/STM32F3xx_HAL_Driver/Src/stm32f3xx_hal_tim_ex.c ****   *         output.
 539:Drivers/STM32F3xx_HAL_Driver/Src/stm32f3xx_hal_tim_ex.c ****   * @param  htim TIM handle
 540:Drivers/STM32F3xx_HAL_Driver/Src/stm32f3xx_hal_tim_ex.c ****   * @param  Channel TIM Channel to be disabled
 541:Drivers/STM32F3xx_HAL_Driver/Src/stm32f3xx_hal_tim_ex.c ****   *          This parameter can be one of the following values:
 542:Drivers/STM32F3xx_HAL_Driver/Src/stm32f3xx_hal_tim_ex.c ****   *            @arg TIM_CHANNEL_1: TIM Channel 1 selected
 543:Drivers/STM32F3xx_HAL_Driver/Src/stm32f3xx_hal_tim_ex.c ****   *            @arg TIM_CHANNEL_2: TIM Channel 2 selected
 544:Drivers/STM32F3xx_HAL_Driver/Src/stm32f3xx_hal_tim_ex.c ****   *            @arg TIM_CHANNEL_3: TIM Channel 3 selected
 545:Drivers/STM32F3xx_HAL_Driver/Src/stm32f3xx_hal_tim_ex.c ****   *            @arg TIM_CHANNEL_4: TIM Channel 4 selected
 546:Drivers/STM32F3xx_HAL_Driver/Src/stm32f3xx_hal_tim_ex.c ****   * @retval HAL status
 547:Drivers/STM32F3xx_HAL_Driver/Src/stm32f3xx_hal_tim_ex.c ****   */
 548:Drivers/STM32F3xx_HAL_Driver/Src/stm32f3xx_hal_tim_ex.c **** HAL_StatusTypeDef HAL_TIMEx_OCN_Stop(TIM_HandleTypeDef *htim, uint32_t Channel)
 549:Drivers/STM32F3xx_HAL_Driver/Src/stm32f3xx_hal_tim_ex.c **** { 
 550:Drivers/STM32F3xx_HAL_Driver/Src/stm32f3xx_hal_tim_ex.c ****   /* Check the parameters */
 551:Drivers/STM32F3xx_HAL_Driver/Src/stm32f3xx_hal_tim_ex.c ****   assert_param(IS_TIM_CCXN_INSTANCE(htim->Instance, Channel)); 
 552:Drivers/STM32F3xx_HAL_Driver/Src/stm32f3xx_hal_tim_ex.c ****   
 553:Drivers/STM32F3xx_HAL_Driver/Src/stm32f3xx_hal_tim_ex.c ****     /* Disable the Capture compare channel N */
 554:Drivers/STM32F3xx_HAL_Driver/Src/stm32f3xx_hal_tim_ex.c ****   TIM_CCxNChannelCmd(htim->Instance, Channel, TIM_CCxN_DISABLE);
 555:Drivers/STM32F3xx_HAL_Driver/Src/stm32f3xx_hal_tim_ex.c ****     
 556:Drivers/STM32F3xx_HAL_Driver/Src/stm32f3xx_hal_tim_ex.c ****   /* Disable the Main Ouput */
 557:Drivers/STM32F3xx_HAL_Driver/Src/stm32f3xx_hal_tim_ex.c ****     __HAL_TIM_MOE_DISABLE(htim);
 558:Drivers/STM32F3xx_HAL_Driver/Src/stm32f3xx_hal_tim_ex.c **** 
 559:Drivers/STM32F3xx_HAL_Driver/Src/stm32f3xx_hal_tim_ex.c ****   /* Disable the Peripheral */
 560:Drivers/STM32F3xx_HAL_Driver/Src/stm32f3xx_hal_tim_ex.c ****   __HAL_TIM_DISABLE(htim);
 561:Drivers/STM32F3xx_HAL_Driver/Src/stm32f3xx_hal_tim_ex.c ****   
 562:Drivers/STM32F3xx_HAL_Driver/Src/stm32f3xx_hal_tim_ex.c ****   /* Return function status */
 563:Drivers/STM32F3xx_HAL_Driver/Src/stm32f3xx_hal_tim_ex.c ****   return HAL_OK;
 564:Drivers/STM32F3xx_HAL_Driver/Src/stm32f3xx_hal_tim_ex.c **** } 
 565:Drivers/STM32F3xx_HAL_Driver/Src/stm32f3xx_hal_tim_ex.c **** 
 566:Drivers/STM32F3xx_HAL_Driver/Src/stm32f3xx_hal_tim_ex.c **** /**
 567:Drivers/STM32F3xx_HAL_Driver/Src/stm32f3xx_hal_tim_ex.c ****   * @brief  Starts the TIM Output Compare signal generation in interrupt mode 
 568:Drivers/STM32F3xx_HAL_Driver/Src/stm32f3xx_hal_tim_ex.c ****   *         on the complementary output.
 569:Drivers/STM32F3xx_HAL_Driver/Src/stm32f3xx_hal_tim_ex.c ****   * @param  htim TIM OC handle
 570:Drivers/STM32F3xx_HAL_Driver/Src/stm32f3xx_hal_tim_ex.c ****   * @param  Channel TIM Channel to be enabled
 571:Drivers/STM32F3xx_HAL_Driver/Src/stm32f3xx_hal_tim_ex.c ****   *          This parameter can be one of the following values:
 572:Drivers/STM32F3xx_HAL_Driver/Src/stm32f3xx_hal_tim_ex.c ****   *            @arg TIM_CHANNEL_1: TIM Channel 1 selected
 573:Drivers/STM32F3xx_HAL_Driver/Src/stm32f3xx_hal_tim_ex.c ****   *            @arg TIM_CHANNEL_2: TIM Channel 2 selected
 574:Drivers/STM32F3xx_HAL_Driver/Src/stm32f3xx_hal_tim_ex.c ****   *            @arg TIM_CHANNEL_3: TIM Channel 3 selected
 575:Drivers/STM32F3xx_HAL_Driver/Src/stm32f3xx_hal_tim_ex.c ****   *            @arg TIM_CHANNEL_4: TIM Channel 4 selected
 576:Drivers/STM32F3xx_HAL_Driver/Src/stm32f3xx_hal_tim_ex.c ****   * @retval HAL status
 577:Drivers/STM32F3xx_HAL_Driver/Src/stm32f3xx_hal_tim_ex.c ****   */
ARM GAS  /tmp/cc1baImv.s 			page 26


 578:Drivers/STM32F3xx_HAL_Driver/Src/stm32f3xx_hal_tim_ex.c **** HAL_StatusTypeDef HAL_TIMEx_OCN_Start_IT(TIM_HandleTypeDef *htim, uint32_t Channel)
 579:Drivers/STM32F3xx_HAL_Driver/Src/stm32f3xx_hal_tim_ex.c **** {
 580:Drivers/STM32F3xx_HAL_Driver/Src/stm32f3xx_hal_tim_ex.c ****   /* Check the parameters */
 581:Drivers/STM32F3xx_HAL_Driver/Src/stm32f3xx_hal_tim_ex.c ****   assert_param(IS_TIM_CCXN_INSTANCE(htim->Instance, Channel)); 
 582:Drivers/STM32F3xx_HAL_Driver/Src/stm32f3xx_hal_tim_ex.c ****   
 583:Drivers/STM32F3xx_HAL_Driver/Src/stm32f3xx_hal_tim_ex.c ****   switch (Channel)
 584:Drivers/STM32F3xx_HAL_Driver/Src/stm32f3xx_hal_tim_ex.c ****   {
 585:Drivers/STM32F3xx_HAL_Driver/Src/stm32f3xx_hal_tim_ex.c ****     case TIM_CHANNEL_1:
 586:Drivers/STM32F3xx_HAL_Driver/Src/stm32f3xx_hal_tim_ex.c ****     {       
 587:Drivers/STM32F3xx_HAL_Driver/Src/stm32f3xx_hal_tim_ex.c ****       /* Enable the TIM Output Compare interrupt */
 588:Drivers/STM32F3xx_HAL_Driver/Src/stm32f3xx_hal_tim_ex.c ****       __HAL_TIM_ENABLE_IT(htim, TIM_IT_CC1);
 589:Drivers/STM32F3xx_HAL_Driver/Src/stm32f3xx_hal_tim_ex.c ****     }
 590:Drivers/STM32F3xx_HAL_Driver/Src/stm32f3xx_hal_tim_ex.c ****     break;
 591:Drivers/STM32F3xx_HAL_Driver/Src/stm32f3xx_hal_tim_ex.c ****     
 592:Drivers/STM32F3xx_HAL_Driver/Src/stm32f3xx_hal_tim_ex.c ****     case TIM_CHANNEL_2:
 593:Drivers/STM32F3xx_HAL_Driver/Src/stm32f3xx_hal_tim_ex.c ****     {
 594:Drivers/STM32F3xx_HAL_Driver/Src/stm32f3xx_hal_tim_ex.c ****       /* Enable the TIM Output Compare interrupt */
 595:Drivers/STM32F3xx_HAL_Driver/Src/stm32f3xx_hal_tim_ex.c ****       __HAL_TIM_ENABLE_IT(htim, TIM_IT_CC2);
 596:Drivers/STM32F3xx_HAL_Driver/Src/stm32f3xx_hal_tim_ex.c ****     }
 597:Drivers/STM32F3xx_HAL_Driver/Src/stm32f3xx_hal_tim_ex.c ****     break;
 598:Drivers/STM32F3xx_HAL_Driver/Src/stm32f3xx_hal_tim_ex.c ****     
 599:Drivers/STM32F3xx_HAL_Driver/Src/stm32f3xx_hal_tim_ex.c ****     case TIM_CHANNEL_3:
 600:Drivers/STM32F3xx_HAL_Driver/Src/stm32f3xx_hal_tim_ex.c ****     {
 601:Drivers/STM32F3xx_HAL_Driver/Src/stm32f3xx_hal_tim_ex.c ****       /* Enable the TIM Output Compare interrupt */
 602:Drivers/STM32F3xx_HAL_Driver/Src/stm32f3xx_hal_tim_ex.c ****       __HAL_TIM_ENABLE_IT(htim, TIM_IT_CC3);
 603:Drivers/STM32F3xx_HAL_Driver/Src/stm32f3xx_hal_tim_ex.c ****     }
 604:Drivers/STM32F3xx_HAL_Driver/Src/stm32f3xx_hal_tim_ex.c ****     break;
 605:Drivers/STM32F3xx_HAL_Driver/Src/stm32f3xx_hal_tim_ex.c ****     
 606:Drivers/STM32F3xx_HAL_Driver/Src/stm32f3xx_hal_tim_ex.c ****     case TIM_CHANNEL_4:
 607:Drivers/STM32F3xx_HAL_Driver/Src/stm32f3xx_hal_tim_ex.c ****     {
 608:Drivers/STM32F3xx_HAL_Driver/Src/stm32f3xx_hal_tim_ex.c ****       /* Enable the TIM Output Compare interrupt */
 609:Drivers/STM32F3xx_HAL_Driver/Src/stm32f3xx_hal_tim_ex.c ****       __HAL_TIM_ENABLE_IT(htim, TIM_IT_CC4);
 610:Drivers/STM32F3xx_HAL_Driver/Src/stm32f3xx_hal_tim_ex.c ****     }
 611:Drivers/STM32F3xx_HAL_Driver/Src/stm32f3xx_hal_tim_ex.c ****     break;
 612:Drivers/STM32F3xx_HAL_Driver/Src/stm32f3xx_hal_tim_ex.c ****     
 613:Drivers/STM32F3xx_HAL_Driver/Src/stm32f3xx_hal_tim_ex.c ****     default:
 614:Drivers/STM32F3xx_HAL_Driver/Src/stm32f3xx_hal_tim_ex.c ****     break;
 615:Drivers/STM32F3xx_HAL_Driver/Src/stm32f3xx_hal_tim_ex.c ****   } 
 616:Drivers/STM32F3xx_HAL_Driver/Src/stm32f3xx_hal_tim_ex.c ****   
 617:Drivers/STM32F3xx_HAL_Driver/Src/stm32f3xx_hal_tim_ex.c ****   /* Enable the TIM Break interrupt */
 618:Drivers/STM32F3xx_HAL_Driver/Src/stm32f3xx_hal_tim_ex.c ****   __HAL_TIM_ENABLE_IT(htim, TIM_IT_BREAK);
 619:Drivers/STM32F3xx_HAL_Driver/Src/stm32f3xx_hal_tim_ex.c ****   
 620:Drivers/STM32F3xx_HAL_Driver/Src/stm32f3xx_hal_tim_ex.c ****   /* Enable the Capture compare channel N */
 621:Drivers/STM32F3xx_HAL_Driver/Src/stm32f3xx_hal_tim_ex.c ****   TIM_CCxNChannelCmd(htim->Instance, Channel, TIM_CCxN_ENABLE);
 622:Drivers/STM32F3xx_HAL_Driver/Src/stm32f3xx_hal_tim_ex.c ****   
 623:Drivers/STM32F3xx_HAL_Driver/Src/stm32f3xx_hal_tim_ex.c ****   /* Enable the Main Ouput */
 624:Drivers/STM32F3xx_HAL_Driver/Src/stm32f3xx_hal_tim_ex.c ****     __HAL_TIM_MOE_ENABLE(htim);
 625:Drivers/STM32F3xx_HAL_Driver/Src/stm32f3xx_hal_tim_ex.c **** 
 626:Drivers/STM32F3xx_HAL_Driver/Src/stm32f3xx_hal_tim_ex.c ****   /* Enable the Peripheral */
 627:Drivers/STM32F3xx_HAL_Driver/Src/stm32f3xx_hal_tim_ex.c ****   __HAL_TIM_ENABLE(htim);
 628:Drivers/STM32F3xx_HAL_Driver/Src/stm32f3xx_hal_tim_ex.c ****   
 629:Drivers/STM32F3xx_HAL_Driver/Src/stm32f3xx_hal_tim_ex.c ****   /* Return function status */
 630:Drivers/STM32F3xx_HAL_Driver/Src/stm32f3xx_hal_tim_ex.c ****   return HAL_OK;
 631:Drivers/STM32F3xx_HAL_Driver/Src/stm32f3xx_hal_tim_ex.c **** } 
 632:Drivers/STM32F3xx_HAL_Driver/Src/stm32f3xx_hal_tim_ex.c **** 
 633:Drivers/STM32F3xx_HAL_Driver/Src/stm32f3xx_hal_tim_ex.c **** /**
 634:Drivers/STM32F3xx_HAL_Driver/Src/stm32f3xx_hal_tim_ex.c ****   * @brief  Stops the TIM Output Compare signal generation in interrupt mode 
ARM GAS  /tmp/cc1baImv.s 			page 27


 635:Drivers/STM32F3xx_HAL_Driver/Src/stm32f3xx_hal_tim_ex.c ****   *         on the complementary output.
 636:Drivers/STM32F3xx_HAL_Driver/Src/stm32f3xx_hal_tim_ex.c ****   * @param  htim TIM Output Compare handle
 637:Drivers/STM32F3xx_HAL_Driver/Src/stm32f3xx_hal_tim_ex.c ****   * @param  Channel TIM Channel to be disabled
 638:Drivers/STM32F3xx_HAL_Driver/Src/stm32f3xx_hal_tim_ex.c ****   *          This parameter can be one of the following values:
 639:Drivers/STM32F3xx_HAL_Driver/Src/stm32f3xx_hal_tim_ex.c ****   *            @arg TIM_CHANNEL_1: TIM Channel 1 selected
 640:Drivers/STM32F3xx_HAL_Driver/Src/stm32f3xx_hal_tim_ex.c ****   *            @arg TIM_CHANNEL_2: TIM Channel 2 selected
 641:Drivers/STM32F3xx_HAL_Driver/Src/stm32f3xx_hal_tim_ex.c ****   *            @arg TIM_CHANNEL_3: TIM Channel 3 selected
 642:Drivers/STM32F3xx_HAL_Driver/Src/stm32f3xx_hal_tim_ex.c ****   *            @arg TIM_CHANNEL_4: TIM Channel 4 selected
 643:Drivers/STM32F3xx_HAL_Driver/Src/stm32f3xx_hal_tim_ex.c ****   * @retval HAL status
 644:Drivers/STM32F3xx_HAL_Driver/Src/stm32f3xx_hal_tim_ex.c ****   */
 645:Drivers/STM32F3xx_HAL_Driver/Src/stm32f3xx_hal_tim_ex.c **** HAL_StatusTypeDef HAL_TIMEx_OCN_Stop_IT(TIM_HandleTypeDef *htim, uint32_t Channel)
 646:Drivers/STM32F3xx_HAL_Driver/Src/stm32f3xx_hal_tim_ex.c **** {
 647:Drivers/STM32F3xx_HAL_Driver/Src/stm32f3xx_hal_tim_ex.c ****   uint32_t tmpccer = 0U;
 648:Drivers/STM32F3xx_HAL_Driver/Src/stm32f3xx_hal_tim_ex.c **** 
 649:Drivers/STM32F3xx_HAL_Driver/Src/stm32f3xx_hal_tim_ex.c ****   /* Check the parameters */
 650:Drivers/STM32F3xx_HAL_Driver/Src/stm32f3xx_hal_tim_ex.c ****   assert_param(IS_TIM_CCXN_INSTANCE(htim->Instance, Channel)); 
 651:Drivers/STM32F3xx_HAL_Driver/Src/stm32f3xx_hal_tim_ex.c ****   
 652:Drivers/STM32F3xx_HAL_Driver/Src/stm32f3xx_hal_tim_ex.c ****   switch (Channel)
 653:Drivers/STM32F3xx_HAL_Driver/Src/stm32f3xx_hal_tim_ex.c ****   {
 654:Drivers/STM32F3xx_HAL_Driver/Src/stm32f3xx_hal_tim_ex.c ****     case TIM_CHANNEL_1:
 655:Drivers/STM32F3xx_HAL_Driver/Src/stm32f3xx_hal_tim_ex.c ****     {       
 656:Drivers/STM32F3xx_HAL_Driver/Src/stm32f3xx_hal_tim_ex.c ****       /* Disable the TIM Output Compare interrupt */
 657:Drivers/STM32F3xx_HAL_Driver/Src/stm32f3xx_hal_tim_ex.c ****       __HAL_TIM_DISABLE_IT(htim, TIM_IT_CC1);
 658:Drivers/STM32F3xx_HAL_Driver/Src/stm32f3xx_hal_tim_ex.c ****     }
 659:Drivers/STM32F3xx_HAL_Driver/Src/stm32f3xx_hal_tim_ex.c ****     break;
 660:Drivers/STM32F3xx_HAL_Driver/Src/stm32f3xx_hal_tim_ex.c ****     
 661:Drivers/STM32F3xx_HAL_Driver/Src/stm32f3xx_hal_tim_ex.c ****     case TIM_CHANNEL_2:
 662:Drivers/STM32F3xx_HAL_Driver/Src/stm32f3xx_hal_tim_ex.c ****     {
 663:Drivers/STM32F3xx_HAL_Driver/Src/stm32f3xx_hal_tim_ex.c ****       /* Disable the TIM Output Compare interrupt */
 664:Drivers/STM32F3xx_HAL_Driver/Src/stm32f3xx_hal_tim_ex.c ****       __HAL_TIM_DISABLE_IT(htim, TIM_IT_CC2);
 665:Drivers/STM32F3xx_HAL_Driver/Src/stm32f3xx_hal_tim_ex.c ****     }
 666:Drivers/STM32F3xx_HAL_Driver/Src/stm32f3xx_hal_tim_ex.c ****     break;
 667:Drivers/STM32F3xx_HAL_Driver/Src/stm32f3xx_hal_tim_ex.c ****     
 668:Drivers/STM32F3xx_HAL_Driver/Src/stm32f3xx_hal_tim_ex.c ****     case TIM_CHANNEL_3:
 669:Drivers/STM32F3xx_HAL_Driver/Src/stm32f3xx_hal_tim_ex.c ****     {
 670:Drivers/STM32F3xx_HAL_Driver/Src/stm32f3xx_hal_tim_ex.c ****       /* Disable the TIM Output Compare interrupt */
 671:Drivers/STM32F3xx_HAL_Driver/Src/stm32f3xx_hal_tim_ex.c ****       __HAL_TIM_DISABLE_IT(htim, TIM_IT_CC3);
 672:Drivers/STM32F3xx_HAL_Driver/Src/stm32f3xx_hal_tim_ex.c ****     }
 673:Drivers/STM32F3xx_HAL_Driver/Src/stm32f3xx_hal_tim_ex.c ****     break;
 674:Drivers/STM32F3xx_HAL_Driver/Src/stm32f3xx_hal_tim_ex.c ****     
 675:Drivers/STM32F3xx_HAL_Driver/Src/stm32f3xx_hal_tim_ex.c ****     case TIM_CHANNEL_4:
 676:Drivers/STM32F3xx_HAL_Driver/Src/stm32f3xx_hal_tim_ex.c ****     {
 677:Drivers/STM32F3xx_HAL_Driver/Src/stm32f3xx_hal_tim_ex.c ****       /* Disable the TIM Output Compare interrupt */
 678:Drivers/STM32F3xx_HAL_Driver/Src/stm32f3xx_hal_tim_ex.c ****       __HAL_TIM_DISABLE_IT(htim, TIM_IT_CC4);
 679:Drivers/STM32F3xx_HAL_Driver/Src/stm32f3xx_hal_tim_ex.c ****     }
 680:Drivers/STM32F3xx_HAL_Driver/Src/stm32f3xx_hal_tim_ex.c ****     break;
 681:Drivers/STM32F3xx_HAL_Driver/Src/stm32f3xx_hal_tim_ex.c ****     
 682:Drivers/STM32F3xx_HAL_Driver/Src/stm32f3xx_hal_tim_ex.c ****     default:
 683:Drivers/STM32F3xx_HAL_Driver/Src/stm32f3xx_hal_tim_ex.c ****     break; 
 684:Drivers/STM32F3xx_HAL_Driver/Src/stm32f3xx_hal_tim_ex.c ****   }
 685:Drivers/STM32F3xx_HAL_Driver/Src/stm32f3xx_hal_tim_ex.c ****     
 686:Drivers/STM32F3xx_HAL_Driver/Src/stm32f3xx_hal_tim_ex.c ****   /* Disable the Capture compare channel N */
 687:Drivers/STM32F3xx_HAL_Driver/Src/stm32f3xx_hal_tim_ex.c ****   TIM_CCxNChannelCmd(htim->Instance, Channel, TIM_CCxN_DISABLE);
 688:Drivers/STM32F3xx_HAL_Driver/Src/stm32f3xx_hal_tim_ex.c ****     
 689:Drivers/STM32F3xx_HAL_Driver/Src/stm32f3xx_hal_tim_ex.c ****   /* Disable the TIM Break interrupt (only if no more channel is active) */
 690:Drivers/STM32F3xx_HAL_Driver/Src/stm32f3xx_hal_tim_ex.c ****   tmpccer = htim->Instance->CCER;
 691:Drivers/STM32F3xx_HAL_Driver/Src/stm32f3xx_hal_tim_ex.c ****   if ((tmpccer & (TIM_CCER_CC1NE | TIM_CCER_CC2NE | TIM_CCER_CC3NE)) == RESET)
ARM GAS  /tmp/cc1baImv.s 			page 28


 692:Drivers/STM32F3xx_HAL_Driver/Src/stm32f3xx_hal_tim_ex.c ****   {
 693:Drivers/STM32F3xx_HAL_Driver/Src/stm32f3xx_hal_tim_ex.c ****     __HAL_TIM_DISABLE_IT(htim, TIM_IT_BREAK);
 694:Drivers/STM32F3xx_HAL_Driver/Src/stm32f3xx_hal_tim_ex.c ****   }
 695:Drivers/STM32F3xx_HAL_Driver/Src/stm32f3xx_hal_tim_ex.c **** 
 696:Drivers/STM32F3xx_HAL_Driver/Src/stm32f3xx_hal_tim_ex.c ****   /* Disable the Main Ouput */
 697:Drivers/STM32F3xx_HAL_Driver/Src/stm32f3xx_hal_tim_ex.c ****   __HAL_TIM_MOE_DISABLE(htim);
 698:Drivers/STM32F3xx_HAL_Driver/Src/stm32f3xx_hal_tim_ex.c **** 
 699:Drivers/STM32F3xx_HAL_Driver/Src/stm32f3xx_hal_tim_ex.c ****   /* Disable the Peripheral */
 700:Drivers/STM32F3xx_HAL_Driver/Src/stm32f3xx_hal_tim_ex.c ****   __HAL_TIM_DISABLE(htim);
 701:Drivers/STM32F3xx_HAL_Driver/Src/stm32f3xx_hal_tim_ex.c ****   
 702:Drivers/STM32F3xx_HAL_Driver/Src/stm32f3xx_hal_tim_ex.c ****   /* Return function status */
 703:Drivers/STM32F3xx_HAL_Driver/Src/stm32f3xx_hal_tim_ex.c ****   return HAL_OK;
 704:Drivers/STM32F3xx_HAL_Driver/Src/stm32f3xx_hal_tim_ex.c **** } 
 705:Drivers/STM32F3xx_HAL_Driver/Src/stm32f3xx_hal_tim_ex.c **** 
 706:Drivers/STM32F3xx_HAL_Driver/Src/stm32f3xx_hal_tim_ex.c **** /**
 707:Drivers/STM32F3xx_HAL_Driver/Src/stm32f3xx_hal_tim_ex.c ****   * @brief  Starts the TIM Output Compare signal generation in DMA mode 
 708:Drivers/STM32F3xx_HAL_Driver/Src/stm32f3xx_hal_tim_ex.c ****   *         on the complementary output.
 709:Drivers/STM32F3xx_HAL_Driver/Src/stm32f3xx_hal_tim_ex.c ****   * @param  htim TIM Output Compare handle
 710:Drivers/STM32F3xx_HAL_Driver/Src/stm32f3xx_hal_tim_ex.c ****   * @param  Channel TIM Channel to be enabled
 711:Drivers/STM32F3xx_HAL_Driver/Src/stm32f3xx_hal_tim_ex.c ****   *          This parameter can be one of the following values:
 712:Drivers/STM32F3xx_HAL_Driver/Src/stm32f3xx_hal_tim_ex.c ****   *            @arg TIM_CHANNEL_1: TIM Channel 1 selected
 713:Drivers/STM32F3xx_HAL_Driver/Src/stm32f3xx_hal_tim_ex.c ****   *            @arg TIM_CHANNEL_2: TIM Channel 2 selected
 714:Drivers/STM32F3xx_HAL_Driver/Src/stm32f3xx_hal_tim_ex.c ****   *            @arg TIM_CHANNEL_3: TIM Channel 3 selected
 715:Drivers/STM32F3xx_HAL_Driver/Src/stm32f3xx_hal_tim_ex.c ****   *            @arg TIM_CHANNEL_4: TIM Channel 4 selected
 716:Drivers/STM32F3xx_HAL_Driver/Src/stm32f3xx_hal_tim_ex.c ****   * @param  pData The source Buffer address.
 717:Drivers/STM32F3xx_HAL_Driver/Src/stm32f3xx_hal_tim_ex.c ****   * @param  Length The length of data to be transferred from memory to TIM peripheral
 718:Drivers/STM32F3xx_HAL_Driver/Src/stm32f3xx_hal_tim_ex.c ****   * @retval HAL status
 719:Drivers/STM32F3xx_HAL_Driver/Src/stm32f3xx_hal_tim_ex.c ****   */
 720:Drivers/STM32F3xx_HAL_Driver/Src/stm32f3xx_hal_tim_ex.c **** HAL_StatusTypeDef HAL_TIMEx_OCN_Start_DMA(TIM_HandleTypeDef *htim, uint32_t Channel, uint32_t *pDat
 721:Drivers/STM32F3xx_HAL_Driver/Src/stm32f3xx_hal_tim_ex.c **** {
 722:Drivers/STM32F3xx_HAL_Driver/Src/stm32f3xx_hal_tim_ex.c ****   /* Check the parameters */
 723:Drivers/STM32F3xx_HAL_Driver/Src/stm32f3xx_hal_tim_ex.c ****   assert_param(IS_TIM_CCXN_INSTANCE(htim->Instance, Channel)); 
 724:Drivers/STM32F3xx_HAL_Driver/Src/stm32f3xx_hal_tim_ex.c ****   
 725:Drivers/STM32F3xx_HAL_Driver/Src/stm32f3xx_hal_tim_ex.c ****   if((htim->State == HAL_TIM_STATE_BUSY))
 726:Drivers/STM32F3xx_HAL_Driver/Src/stm32f3xx_hal_tim_ex.c ****   {
 727:Drivers/STM32F3xx_HAL_Driver/Src/stm32f3xx_hal_tim_ex.c ****      return HAL_BUSY;
 728:Drivers/STM32F3xx_HAL_Driver/Src/stm32f3xx_hal_tim_ex.c ****   }
 729:Drivers/STM32F3xx_HAL_Driver/Src/stm32f3xx_hal_tim_ex.c ****   else if((htim->State == HAL_TIM_STATE_READY))
 730:Drivers/STM32F3xx_HAL_Driver/Src/stm32f3xx_hal_tim_ex.c ****   {
 731:Drivers/STM32F3xx_HAL_Driver/Src/stm32f3xx_hal_tim_ex.c ****     if(((uint32_t)pData == 0U ) && (Length > 0U)) 
 732:Drivers/STM32F3xx_HAL_Driver/Src/stm32f3xx_hal_tim_ex.c ****     {
 733:Drivers/STM32F3xx_HAL_Driver/Src/stm32f3xx_hal_tim_ex.c ****       return HAL_ERROR;                                    
 734:Drivers/STM32F3xx_HAL_Driver/Src/stm32f3xx_hal_tim_ex.c ****     }
 735:Drivers/STM32F3xx_HAL_Driver/Src/stm32f3xx_hal_tim_ex.c ****     else
 736:Drivers/STM32F3xx_HAL_Driver/Src/stm32f3xx_hal_tim_ex.c ****     {
 737:Drivers/STM32F3xx_HAL_Driver/Src/stm32f3xx_hal_tim_ex.c ****       htim->State = HAL_TIM_STATE_BUSY;
 738:Drivers/STM32F3xx_HAL_Driver/Src/stm32f3xx_hal_tim_ex.c ****     }
 739:Drivers/STM32F3xx_HAL_Driver/Src/stm32f3xx_hal_tim_ex.c ****   }    
 740:Drivers/STM32F3xx_HAL_Driver/Src/stm32f3xx_hal_tim_ex.c ****   switch (Channel)
 741:Drivers/STM32F3xx_HAL_Driver/Src/stm32f3xx_hal_tim_ex.c ****   {
 742:Drivers/STM32F3xx_HAL_Driver/Src/stm32f3xx_hal_tim_ex.c ****     case TIM_CHANNEL_1:
 743:Drivers/STM32F3xx_HAL_Driver/Src/stm32f3xx_hal_tim_ex.c ****     {      
 744:Drivers/STM32F3xx_HAL_Driver/Src/stm32f3xx_hal_tim_ex.c ****       /* Set the DMA Period elapsed callback */
 745:Drivers/STM32F3xx_HAL_Driver/Src/stm32f3xx_hal_tim_ex.c ****       htim->hdma[TIM_DMA_ID_CC1]->XferCpltCallback = TIM_DMADelayPulseCplt;
 746:Drivers/STM32F3xx_HAL_Driver/Src/stm32f3xx_hal_tim_ex.c ****      
 747:Drivers/STM32F3xx_HAL_Driver/Src/stm32f3xx_hal_tim_ex.c ****       /* Set the DMA error callback */
 748:Drivers/STM32F3xx_HAL_Driver/Src/stm32f3xx_hal_tim_ex.c ****       htim->hdma[TIM_DMA_ID_CC1]->XferErrorCallback = TIM_DMAError ;
ARM GAS  /tmp/cc1baImv.s 			page 29


 749:Drivers/STM32F3xx_HAL_Driver/Src/stm32f3xx_hal_tim_ex.c ****       
 750:Drivers/STM32F3xx_HAL_Driver/Src/stm32f3xx_hal_tim_ex.c ****       /* Enable the DMA channel */
 751:Drivers/STM32F3xx_HAL_Driver/Src/stm32f3xx_hal_tim_ex.c ****       HAL_DMA_Start_IT(htim->hdma[TIM_DMA_ID_CC1], (uint32_t)pData, (uint32_t)&htim->Instance->CCR1
 752:Drivers/STM32F3xx_HAL_Driver/Src/stm32f3xx_hal_tim_ex.c ****       
 753:Drivers/STM32F3xx_HAL_Driver/Src/stm32f3xx_hal_tim_ex.c ****       /* Enable the TIM Output Compare DMA request */
 754:Drivers/STM32F3xx_HAL_Driver/Src/stm32f3xx_hal_tim_ex.c ****       __HAL_TIM_ENABLE_DMA(htim, TIM_DMA_CC1);
 755:Drivers/STM32F3xx_HAL_Driver/Src/stm32f3xx_hal_tim_ex.c ****     }
 756:Drivers/STM32F3xx_HAL_Driver/Src/stm32f3xx_hal_tim_ex.c ****     break;
 757:Drivers/STM32F3xx_HAL_Driver/Src/stm32f3xx_hal_tim_ex.c ****     
 758:Drivers/STM32F3xx_HAL_Driver/Src/stm32f3xx_hal_tim_ex.c ****     case TIM_CHANNEL_2:
 759:Drivers/STM32F3xx_HAL_Driver/Src/stm32f3xx_hal_tim_ex.c ****     {
 760:Drivers/STM32F3xx_HAL_Driver/Src/stm32f3xx_hal_tim_ex.c ****       /* Set the DMA Period elapsed callback */
 761:Drivers/STM32F3xx_HAL_Driver/Src/stm32f3xx_hal_tim_ex.c ****       htim->hdma[TIM_DMA_ID_CC2]->XferCpltCallback = TIM_DMADelayPulseCplt;
 762:Drivers/STM32F3xx_HAL_Driver/Src/stm32f3xx_hal_tim_ex.c ****      
 763:Drivers/STM32F3xx_HAL_Driver/Src/stm32f3xx_hal_tim_ex.c ****       /* Set the DMA error callback */
 764:Drivers/STM32F3xx_HAL_Driver/Src/stm32f3xx_hal_tim_ex.c ****       htim->hdma[TIM_DMA_ID_CC2]->XferErrorCallback = TIM_DMAError ;
 765:Drivers/STM32F3xx_HAL_Driver/Src/stm32f3xx_hal_tim_ex.c ****       
 766:Drivers/STM32F3xx_HAL_Driver/Src/stm32f3xx_hal_tim_ex.c ****       /* Enable the DMA channel */
 767:Drivers/STM32F3xx_HAL_Driver/Src/stm32f3xx_hal_tim_ex.c ****       HAL_DMA_Start_IT(htim->hdma[TIM_DMA_ID_CC2], (uint32_t)pData, (uint32_t)&htim->Instance->CCR2
 768:Drivers/STM32F3xx_HAL_Driver/Src/stm32f3xx_hal_tim_ex.c ****       
 769:Drivers/STM32F3xx_HAL_Driver/Src/stm32f3xx_hal_tim_ex.c ****       /* Enable the TIM Output Compare DMA request */
 770:Drivers/STM32F3xx_HAL_Driver/Src/stm32f3xx_hal_tim_ex.c ****       __HAL_TIM_ENABLE_DMA(htim, TIM_DMA_CC2);
 771:Drivers/STM32F3xx_HAL_Driver/Src/stm32f3xx_hal_tim_ex.c ****     }
 772:Drivers/STM32F3xx_HAL_Driver/Src/stm32f3xx_hal_tim_ex.c ****     break;
 773:Drivers/STM32F3xx_HAL_Driver/Src/stm32f3xx_hal_tim_ex.c ****     
 774:Drivers/STM32F3xx_HAL_Driver/Src/stm32f3xx_hal_tim_ex.c ****     case TIM_CHANNEL_3:
 775:Drivers/STM32F3xx_HAL_Driver/Src/stm32f3xx_hal_tim_ex.c **** {
 776:Drivers/STM32F3xx_HAL_Driver/Src/stm32f3xx_hal_tim_ex.c ****       /* Set the DMA Period elapsed callback */
 777:Drivers/STM32F3xx_HAL_Driver/Src/stm32f3xx_hal_tim_ex.c ****       htim->hdma[TIM_DMA_ID_CC3]->XferCpltCallback = TIM_DMADelayPulseCplt;
 778:Drivers/STM32F3xx_HAL_Driver/Src/stm32f3xx_hal_tim_ex.c ****      
 779:Drivers/STM32F3xx_HAL_Driver/Src/stm32f3xx_hal_tim_ex.c ****       /* Set the DMA error callback */
 780:Drivers/STM32F3xx_HAL_Driver/Src/stm32f3xx_hal_tim_ex.c ****       htim->hdma[TIM_DMA_ID_CC3]->XferErrorCallback = TIM_DMAError ;
 781:Drivers/STM32F3xx_HAL_Driver/Src/stm32f3xx_hal_tim_ex.c ****       
 782:Drivers/STM32F3xx_HAL_Driver/Src/stm32f3xx_hal_tim_ex.c ****       /* Enable the DMA channel */
 783:Drivers/STM32F3xx_HAL_Driver/Src/stm32f3xx_hal_tim_ex.c ****       HAL_DMA_Start_IT(htim->hdma[TIM_DMA_ID_CC3], (uint32_t)pData, (uint32_t)&htim->Instance->CCR3
 784:Drivers/STM32F3xx_HAL_Driver/Src/stm32f3xx_hal_tim_ex.c ****       
 785:Drivers/STM32F3xx_HAL_Driver/Src/stm32f3xx_hal_tim_ex.c ****       /* Enable the TIM Output Compare DMA request */
 786:Drivers/STM32F3xx_HAL_Driver/Src/stm32f3xx_hal_tim_ex.c ****       __HAL_TIM_ENABLE_DMA(htim, TIM_DMA_CC3);
 787:Drivers/STM32F3xx_HAL_Driver/Src/stm32f3xx_hal_tim_ex.c ****     }
 788:Drivers/STM32F3xx_HAL_Driver/Src/stm32f3xx_hal_tim_ex.c ****     break;
 789:Drivers/STM32F3xx_HAL_Driver/Src/stm32f3xx_hal_tim_ex.c ****     
 790:Drivers/STM32F3xx_HAL_Driver/Src/stm32f3xx_hal_tim_ex.c ****     case TIM_CHANNEL_4:
 791:Drivers/STM32F3xx_HAL_Driver/Src/stm32f3xx_hal_tim_ex.c ****     {
 792:Drivers/STM32F3xx_HAL_Driver/Src/stm32f3xx_hal_tim_ex.c ****      /* Set the DMA Period elapsed callback */
 793:Drivers/STM32F3xx_HAL_Driver/Src/stm32f3xx_hal_tim_ex.c ****       htim->hdma[TIM_DMA_ID_CC4]->XferCpltCallback = TIM_DMADelayPulseCplt;
 794:Drivers/STM32F3xx_HAL_Driver/Src/stm32f3xx_hal_tim_ex.c ****      
 795:Drivers/STM32F3xx_HAL_Driver/Src/stm32f3xx_hal_tim_ex.c ****       /* Set the DMA error callback */
 796:Drivers/STM32F3xx_HAL_Driver/Src/stm32f3xx_hal_tim_ex.c ****       htim->hdma[TIM_DMA_ID_CC4]->XferErrorCallback = TIM_DMAError ;
 797:Drivers/STM32F3xx_HAL_Driver/Src/stm32f3xx_hal_tim_ex.c ****       
 798:Drivers/STM32F3xx_HAL_Driver/Src/stm32f3xx_hal_tim_ex.c ****       /* Enable the DMA channel */
 799:Drivers/STM32F3xx_HAL_Driver/Src/stm32f3xx_hal_tim_ex.c ****       HAL_DMA_Start_IT(htim->hdma[TIM_DMA_ID_CC4], (uint32_t)pData, (uint32_t)&htim->Instance->CCR4
 800:Drivers/STM32F3xx_HAL_Driver/Src/stm32f3xx_hal_tim_ex.c ****       
 801:Drivers/STM32F3xx_HAL_Driver/Src/stm32f3xx_hal_tim_ex.c ****       /* Enable the TIM Output Compare DMA request */
 802:Drivers/STM32F3xx_HAL_Driver/Src/stm32f3xx_hal_tim_ex.c ****       __HAL_TIM_ENABLE_DMA(htim, TIM_DMA_CC4);
 803:Drivers/STM32F3xx_HAL_Driver/Src/stm32f3xx_hal_tim_ex.c ****     }
 804:Drivers/STM32F3xx_HAL_Driver/Src/stm32f3xx_hal_tim_ex.c ****     break;
 805:Drivers/STM32F3xx_HAL_Driver/Src/stm32f3xx_hal_tim_ex.c ****     
ARM GAS  /tmp/cc1baImv.s 			page 30


 806:Drivers/STM32F3xx_HAL_Driver/Src/stm32f3xx_hal_tim_ex.c ****     default:
 807:Drivers/STM32F3xx_HAL_Driver/Src/stm32f3xx_hal_tim_ex.c ****     break;
 808:Drivers/STM32F3xx_HAL_Driver/Src/stm32f3xx_hal_tim_ex.c ****   }
 809:Drivers/STM32F3xx_HAL_Driver/Src/stm32f3xx_hal_tim_ex.c **** 
 810:Drivers/STM32F3xx_HAL_Driver/Src/stm32f3xx_hal_tim_ex.c ****   /* Enable the Capture compare channel N */
 811:Drivers/STM32F3xx_HAL_Driver/Src/stm32f3xx_hal_tim_ex.c ****   TIM_CCxNChannelCmd(htim->Instance, Channel, TIM_CCxN_ENABLE);
 812:Drivers/STM32F3xx_HAL_Driver/Src/stm32f3xx_hal_tim_ex.c ****   
 813:Drivers/STM32F3xx_HAL_Driver/Src/stm32f3xx_hal_tim_ex.c ****   /* Enable the Main Ouput */
 814:Drivers/STM32F3xx_HAL_Driver/Src/stm32f3xx_hal_tim_ex.c ****   __HAL_TIM_MOE_ENABLE(htim);
 815:Drivers/STM32F3xx_HAL_Driver/Src/stm32f3xx_hal_tim_ex.c ****   
 816:Drivers/STM32F3xx_HAL_Driver/Src/stm32f3xx_hal_tim_ex.c ****   /* Enable the Peripheral */
 817:Drivers/STM32F3xx_HAL_Driver/Src/stm32f3xx_hal_tim_ex.c ****   __HAL_TIM_ENABLE(htim); 
 818:Drivers/STM32F3xx_HAL_Driver/Src/stm32f3xx_hal_tim_ex.c ****   
 819:Drivers/STM32F3xx_HAL_Driver/Src/stm32f3xx_hal_tim_ex.c ****   /* Return function status */
 820:Drivers/STM32F3xx_HAL_Driver/Src/stm32f3xx_hal_tim_ex.c ****   return HAL_OK;
 821:Drivers/STM32F3xx_HAL_Driver/Src/stm32f3xx_hal_tim_ex.c **** }
 822:Drivers/STM32F3xx_HAL_Driver/Src/stm32f3xx_hal_tim_ex.c **** 
 823:Drivers/STM32F3xx_HAL_Driver/Src/stm32f3xx_hal_tim_ex.c **** /**
 824:Drivers/STM32F3xx_HAL_Driver/Src/stm32f3xx_hal_tim_ex.c ****   * @brief  Stops the TIM Output Compare signal generation in DMA mode 
 825:Drivers/STM32F3xx_HAL_Driver/Src/stm32f3xx_hal_tim_ex.c ****   *         on the complementary output.
 826:Drivers/STM32F3xx_HAL_Driver/Src/stm32f3xx_hal_tim_ex.c ****   * @param  htim TIM Output Compare handle
 827:Drivers/STM32F3xx_HAL_Driver/Src/stm32f3xx_hal_tim_ex.c ****   * @param  Channel TIM Channel to be disabled
 828:Drivers/STM32F3xx_HAL_Driver/Src/stm32f3xx_hal_tim_ex.c ****   *          This parameter can be one of the following values:
 829:Drivers/STM32F3xx_HAL_Driver/Src/stm32f3xx_hal_tim_ex.c ****   *            @arg TIM_CHANNEL_1: TIM Channel 1 selected
 830:Drivers/STM32F3xx_HAL_Driver/Src/stm32f3xx_hal_tim_ex.c ****   *            @arg TIM_CHANNEL_2: TIM Channel 2 selected
 831:Drivers/STM32F3xx_HAL_Driver/Src/stm32f3xx_hal_tim_ex.c ****   *            @arg TIM_CHANNEL_3: TIM Channel 3 selected
 832:Drivers/STM32F3xx_HAL_Driver/Src/stm32f3xx_hal_tim_ex.c ****   *            @arg TIM_CHANNEL_4: TIM Channel 4 selected
 833:Drivers/STM32F3xx_HAL_Driver/Src/stm32f3xx_hal_tim_ex.c ****   * @retval HAL status
 834:Drivers/STM32F3xx_HAL_Driver/Src/stm32f3xx_hal_tim_ex.c ****   */
 835:Drivers/STM32F3xx_HAL_Driver/Src/stm32f3xx_hal_tim_ex.c **** HAL_StatusTypeDef HAL_TIMEx_OCN_Stop_DMA(TIM_HandleTypeDef *htim, uint32_t Channel)
 836:Drivers/STM32F3xx_HAL_Driver/Src/stm32f3xx_hal_tim_ex.c **** {
 837:Drivers/STM32F3xx_HAL_Driver/Src/stm32f3xx_hal_tim_ex.c ****   /* Check the parameters */
 838:Drivers/STM32F3xx_HAL_Driver/Src/stm32f3xx_hal_tim_ex.c ****   assert_param(IS_TIM_CCXN_INSTANCE(htim->Instance, Channel)); 
 839:Drivers/STM32F3xx_HAL_Driver/Src/stm32f3xx_hal_tim_ex.c ****   
 840:Drivers/STM32F3xx_HAL_Driver/Src/stm32f3xx_hal_tim_ex.c ****   switch (Channel)
 841:Drivers/STM32F3xx_HAL_Driver/Src/stm32f3xx_hal_tim_ex.c ****   {
 842:Drivers/STM32F3xx_HAL_Driver/Src/stm32f3xx_hal_tim_ex.c ****     case TIM_CHANNEL_1:
 843:Drivers/STM32F3xx_HAL_Driver/Src/stm32f3xx_hal_tim_ex.c ****     {       
 844:Drivers/STM32F3xx_HAL_Driver/Src/stm32f3xx_hal_tim_ex.c ****       /* Disable the TIM Output Compare DMA request */
 845:Drivers/STM32F3xx_HAL_Driver/Src/stm32f3xx_hal_tim_ex.c ****       __HAL_TIM_DISABLE_DMA(htim, TIM_DMA_CC1);
 846:Drivers/STM32F3xx_HAL_Driver/Src/stm32f3xx_hal_tim_ex.c ****     }
 847:Drivers/STM32F3xx_HAL_Driver/Src/stm32f3xx_hal_tim_ex.c ****     break;
 848:Drivers/STM32F3xx_HAL_Driver/Src/stm32f3xx_hal_tim_ex.c ****     
 849:Drivers/STM32F3xx_HAL_Driver/Src/stm32f3xx_hal_tim_ex.c ****     case TIM_CHANNEL_2:
 850:Drivers/STM32F3xx_HAL_Driver/Src/stm32f3xx_hal_tim_ex.c ****     {
 851:Drivers/STM32F3xx_HAL_Driver/Src/stm32f3xx_hal_tim_ex.c ****       /* Disable the TIM Output Compare DMA request */
 852:Drivers/STM32F3xx_HAL_Driver/Src/stm32f3xx_hal_tim_ex.c ****       __HAL_TIM_DISABLE_DMA(htim, TIM_DMA_CC2);
 853:Drivers/STM32F3xx_HAL_Driver/Src/stm32f3xx_hal_tim_ex.c ****     }
 854:Drivers/STM32F3xx_HAL_Driver/Src/stm32f3xx_hal_tim_ex.c ****     break;
 855:Drivers/STM32F3xx_HAL_Driver/Src/stm32f3xx_hal_tim_ex.c ****     
 856:Drivers/STM32F3xx_HAL_Driver/Src/stm32f3xx_hal_tim_ex.c ****     case TIM_CHANNEL_3:
 857:Drivers/STM32F3xx_HAL_Driver/Src/stm32f3xx_hal_tim_ex.c ****     {
 858:Drivers/STM32F3xx_HAL_Driver/Src/stm32f3xx_hal_tim_ex.c ****       /* Disable the TIM Output Compare DMA request */
 859:Drivers/STM32F3xx_HAL_Driver/Src/stm32f3xx_hal_tim_ex.c ****       __HAL_TIM_DISABLE_DMA(htim, TIM_DMA_CC3);
 860:Drivers/STM32F3xx_HAL_Driver/Src/stm32f3xx_hal_tim_ex.c ****     }
 861:Drivers/STM32F3xx_HAL_Driver/Src/stm32f3xx_hal_tim_ex.c ****     break;
 862:Drivers/STM32F3xx_HAL_Driver/Src/stm32f3xx_hal_tim_ex.c ****     
ARM GAS  /tmp/cc1baImv.s 			page 31


 863:Drivers/STM32F3xx_HAL_Driver/Src/stm32f3xx_hal_tim_ex.c ****     case TIM_CHANNEL_4:
 864:Drivers/STM32F3xx_HAL_Driver/Src/stm32f3xx_hal_tim_ex.c ****     {
 865:Drivers/STM32F3xx_HAL_Driver/Src/stm32f3xx_hal_tim_ex.c ****       /* Disable the TIM Output Compare interrupt */
 866:Drivers/STM32F3xx_HAL_Driver/Src/stm32f3xx_hal_tim_ex.c ****       __HAL_TIM_DISABLE_DMA(htim, TIM_DMA_CC4);
 867:Drivers/STM32F3xx_HAL_Driver/Src/stm32f3xx_hal_tim_ex.c ****     }
 868:Drivers/STM32F3xx_HAL_Driver/Src/stm32f3xx_hal_tim_ex.c ****     break;
 869:Drivers/STM32F3xx_HAL_Driver/Src/stm32f3xx_hal_tim_ex.c ****     
 870:Drivers/STM32F3xx_HAL_Driver/Src/stm32f3xx_hal_tim_ex.c ****     default:
 871:Drivers/STM32F3xx_HAL_Driver/Src/stm32f3xx_hal_tim_ex.c ****     break;
 872:Drivers/STM32F3xx_HAL_Driver/Src/stm32f3xx_hal_tim_ex.c ****   } 
 873:Drivers/STM32F3xx_HAL_Driver/Src/stm32f3xx_hal_tim_ex.c ****   
 874:Drivers/STM32F3xx_HAL_Driver/Src/stm32f3xx_hal_tim_ex.c ****   /* Disable the Capture compare channel N */
 875:Drivers/STM32F3xx_HAL_Driver/Src/stm32f3xx_hal_tim_ex.c ****   TIM_CCxNChannelCmd(htim->Instance, Channel, TIM_CCxN_DISABLE);
 876:Drivers/STM32F3xx_HAL_Driver/Src/stm32f3xx_hal_tim_ex.c ****   
 877:Drivers/STM32F3xx_HAL_Driver/Src/stm32f3xx_hal_tim_ex.c ****   /* Disable the Main Ouput */
 878:Drivers/STM32F3xx_HAL_Driver/Src/stm32f3xx_hal_tim_ex.c ****   __HAL_TIM_MOE_DISABLE(htim);
 879:Drivers/STM32F3xx_HAL_Driver/Src/stm32f3xx_hal_tim_ex.c ****   
 880:Drivers/STM32F3xx_HAL_Driver/Src/stm32f3xx_hal_tim_ex.c ****   /* Disable the Peripheral */
 881:Drivers/STM32F3xx_HAL_Driver/Src/stm32f3xx_hal_tim_ex.c ****   __HAL_TIM_DISABLE(htim);
 882:Drivers/STM32F3xx_HAL_Driver/Src/stm32f3xx_hal_tim_ex.c ****   
 883:Drivers/STM32F3xx_HAL_Driver/Src/stm32f3xx_hal_tim_ex.c ****   /* Change the htim state */
 884:Drivers/STM32F3xx_HAL_Driver/Src/stm32f3xx_hal_tim_ex.c ****   htim->State = HAL_TIM_STATE_READY;
 885:Drivers/STM32F3xx_HAL_Driver/Src/stm32f3xx_hal_tim_ex.c ****   
 886:Drivers/STM32F3xx_HAL_Driver/Src/stm32f3xx_hal_tim_ex.c ****   /* Return function status */
 887:Drivers/STM32F3xx_HAL_Driver/Src/stm32f3xx_hal_tim_ex.c ****   return HAL_OK;
 888:Drivers/STM32F3xx_HAL_Driver/Src/stm32f3xx_hal_tim_ex.c **** }
 889:Drivers/STM32F3xx_HAL_Driver/Src/stm32f3xx_hal_tim_ex.c **** 
 890:Drivers/STM32F3xx_HAL_Driver/Src/stm32f3xx_hal_tim_ex.c **** /**
 891:Drivers/STM32F3xx_HAL_Driver/Src/stm32f3xx_hal_tim_ex.c ****   * @}
 892:Drivers/STM32F3xx_HAL_Driver/Src/stm32f3xx_hal_tim_ex.c ****   */
 893:Drivers/STM32F3xx_HAL_Driver/Src/stm32f3xx_hal_tim_ex.c ****   
 894:Drivers/STM32F3xx_HAL_Driver/Src/stm32f3xx_hal_tim_ex.c **** /** @defgroup TIMEx_Exported_Functions_Group3 Timer Complementary PWM functions
 895:Drivers/STM32F3xx_HAL_Driver/Src/stm32f3xx_hal_tim_ex.c ****   * @brief    Timer Complementary PWM functions
 896:Drivers/STM32F3xx_HAL_Driver/Src/stm32f3xx_hal_tim_ex.c ****   *
 897:Drivers/STM32F3xx_HAL_Driver/Src/stm32f3xx_hal_tim_ex.c **** @verbatim   
 898:Drivers/STM32F3xx_HAL_Driver/Src/stm32f3xx_hal_tim_ex.c ****   ==============================================================================
 899:Drivers/STM32F3xx_HAL_Driver/Src/stm32f3xx_hal_tim_ex.c ****                  ##### Timer Complementary PWM functions #####
 900:Drivers/STM32F3xx_HAL_Driver/Src/stm32f3xx_hal_tim_ex.c ****   ==============================================================================  
 901:Drivers/STM32F3xx_HAL_Driver/Src/stm32f3xx_hal_tim_ex.c ****   [..]  
 902:Drivers/STM32F3xx_HAL_Driver/Src/stm32f3xx_hal_tim_ex.c ****     This section provides functions allowing to:
 903:Drivers/STM32F3xx_HAL_Driver/Src/stm32f3xx_hal_tim_ex.c ****     (+) Start the Complementary PWM.
 904:Drivers/STM32F3xx_HAL_Driver/Src/stm32f3xx_hal_tim_ex.c ****     (+) Stop the Complementary PWM.
 905:Drivers/STM32F3xx_HAL_Driver/Src/stm32f3xx_hal_tim_ex.c ****     (+) Start the Complementary PWM and enable interrupts.
 906:Drivers/STM32F3xx_HAL_Driver/Src/stm32f3xx_hal_tim_ex.c ****     (+) Stop the Complementary PWM and disable interrupts.
 907:Drivers/STM32F3xx_HAL_Driver/Src/stm32f3xx_hal_tim_ex.c ****     (+) Start the Complementary PWM and enable DMA transfers.
 908:Drivers/STM32F3xx_HAL_Driver/Src/stm32f3xx_hal_tim_ex.c ****     (+) Stop the Complementary PWM and disable DMA transfers.
 909:Drivers/STM32F3xx_HAL_Driver/Src/stm32f3xx_hal_tim_ex.c ****     (+) Start the Complementary Input Capture measurement.
 910:Drivers/STM32F3xx_HAL_Driver/Src/stm32f3xx_hal_tim_ex.c ****     (+) Stop the Complementary Input Capture.
 911:Drivers/STM32F3xx_HAL_Driver/Src/stm32f3xx_hal_tim_ex.c ****     (+) Start the Complementary Input Capture and enable interrupts.
 912:Drivers/STM32F3xx_HAL_Driver/Src/stm32f3xx_hal_tim_ex.c ****     (+) Stop the Complementary Input Capture and disable interrupts.
 913:Drivers/STM32F3xx_HAL_Driver/Src/stm32f3xx_hal_tim_ex.c ****     (+) Start the Complementary Input Capture and enable DMA transfers.
 914:Drivers/STM32F3xx_HAL_Driver/Src/stm32f3xx_hal_tim_ex.c ****     (+) Stop the Complementary Input Capture and disable DMA transfers.
 915:Drivers/STM32F3xx_HAL_Driver/Src/stm32f3xx_hal_tim_ex.c ****     (+) Start the Complementary One Pulse generation.
 916:Drivers/STM32F3xx_HAL_Driver/Src/stm32f3xx_hal_tim_ex.c ****     (+) Stop the Complementary One Pulse.
 917:Drivers/STM32F3xx_HAL_Driver/Src/stm32f3xx_hal_tim_ex.c ****     (+) Start the Complementary One Pulse and enable interrupts.
 918:Drivers/STM32F3xx_HAL_Driver/Src/stm32f3xx_hal_tim_ex.c ****     (+) Stop the Complementary One Pulse and disable interrupts.
 919:Drivers/STM32F3xx_HAL_Driver/Src/stm32f3xx_hal_tim_ex.c ****                
ARM GAS  /tmp/cc1baImv.s 			page 32


 920:Drivers/STM32F3xx_HAL_Driver/Src/stm32f3xx_hal_tim_ex.c **** @endverbatim
 921:Drivers/STM32F3xx_HAL_Driver/Src/stm32f3xx_hal_tim_ex.c ****   * @{
 922:Drivers/STM32F3xx_HAL_Driver/Src/stm32f3xx_hal_tim_ex.c ****   */
 923:Drivers/STM32F3xx_HAL_Driver/Src/stm32f3xx_hal_tim_ex.c **** 
 924:Drivers/STM32F3xx_HAL_Driver/Src/stm32f3xx_hal_tim_ex.c **** /**
 925:Drivers/STM32F3xx_HAL_Driver/Src/stm32f3xx_hal_tim_ex.c ****   * @brief  Starts the PWM signal generation on the complementary output.
 926:Drivers/STM32F3xx_HAL_Driver/Src/stm32f3xx_hal_tim_ex.c ****   * @param  htim TIM handle
 927:Drivers/STM32F3xx_HAL_Driver/Src/stm32f3xx_hal_tim_ex.c ****   * @param  Channel TIM Channel to be enabled
 928:Drivers/STM32F3xx_HAL_Driver/Src/stm32f3xx_hal_tim_ex.c ****   *          This parameter can be one of the following values:
 929:Drivers/STM32F3xx_HAL_Driver/Src/stm32f3xx_hal_tim_ex.c ****   *            @arg TIM_CHANNEL_1: TIM Channel 1 selected
 930:Drivers/STM32F3xx_HAL_Driver/Src/stm32f3xx_hal_tim_ex.c ****   *            @arg TIM_CHANNEL_2: TIM Channel 2 selected
 931:Drivers/STM32F3xx_HAL_Driver/Src/stm32f3xx_hal_tim_ex.c ****   *            @arg TIM_CHANNEL_3: TIM Channel 3 selected
 932:Drivers/STM32F3xx_HAL_Driver/Src/stm32f3xx_hal_tim_ex.c ****   *            @arg TIM_CHANNEL_4: TIM Channel 4 selected
 933:Drivers/STM32F3xx_HAL_Driver/Src/stm32f3xx_hal_tim_ex.c ****   * @retval HAL status
 934:Drivers/STM32F3xx_HAL_Driver/Src/stm32f3xx_hal_tim_ex.c ****   */
 935:Drivers/STM32F3xx_HAL_Driver/Src/stm32f3xx_hal_tim_ex.c **** HAL_StatusTypeDef HAL_TIMEx_PWMN_Start(TIM_HandleTypeDef *htim, uint32_t Channel)
 936:Drivers/STM32F3xx_HAL_Driver/Src/stm32f3xx_hal_tim_ex.c **** {
 937:Drivers/STM32F3xx_HAL_Driver/Src/stm32f3xx_hal_tim_ex.c ****   /* Check the parameters */
 938:Drivers/STM32F3xx_HAL_Driver/Src/stm32f3xx_hal_tim_ex.c ****   assert_param(IS_TIM_CCXN_INSTANCE(htim->Instance, Channel)); 
 939:Drivers/STM32F3xx_HAL_Driver/Src/stm32f3xx_hal_tim_ex.c ****   
 940:Drivers/STM32F3xx_HAL_Driver/Src/stm32f3xx_hal_tim_ex.c ****   /* Enable the complementary PWM output  */
 941:Drivers/STM32F3xx_HAL_Driver/Src/stm32f3xx_hal_tim_ex.c ****   TIM_CCxNChannelCmd(htim->Instance, Channel, TIM_CCxN_ENABLE);
 942:Drivers/STM32F3xx_HAL_Driver/Src/stm32f3xx_hal_tim_ex.c ****   
 943:Drivers/STM32F3xx_HAL_Driver/Src/stm32f3xx_hal_tim_ex.c ****   /* Enable the Main Ouput */
 944:Drivers/STM32F3xx_HAL_Driver/Src/stm32f3xx_hal_tim_ex.c ****   __HAL_TIM_MOE_ENABLE(htim);
 945:Drivers/STM32F3xx_HAL_Driver/Src/stm32f3xx_hal_tim_ex.c ****   
 946:Drivers/STM32F3xx_HAL_Driver/Src/stm32f3xx_hal_tim_ex.c ****   /* Enable the Peripheral */
 947:Drivers/STM32F3xx_HAL_Driver/Src/stm32f3xx_hal_tim_ex.c ****   __HAL_TIM_ENABLE(htim);
 948:Drivers/STM32F3xx_HAL_Driver/Src/stm32f3xx_hal_tim_ex.c ****   
 949:Drivers/STM32F3xx_HAL_Driver/Src/stm32f3xx_hal_tim_ex.c ****   /* Return function status */
 950:Drivers/STM32F3xx_HAL_Driver/Src/stm32f3xx_hal_tim_ex.c ****   return HAL_OK;
 951:Drivers/STM32F3xx_HAL_Driver/Src/stm32f3xx_hal_tim_ex.c **** } 
 952:Drivers/STM32F3xx_HAL_Driver/Src/stm32f3xx_hal_tim_ex.c **** 
 953:Drivers/STM32F3xx_HAL_Driver/Src/stm32f3xx_hal_tim_ex.c **** /**
 954:Drivers/STM32F3xx_HAL_Driver/Src/stm32f3xx_hal_tim_ex.c ****   * @brief  Stops the PWM signal generation on the complementary output.
 955:Drivers/STM32F3xx_HAL_Driver/Src/stm32f3xx_hal_tim_ex.c ****   * @param  htim TIM handle
 956:Drivers/STM32F3xx_HAL_Driver/Src/stm32f3xx_hal_tim_ex.c ****   * @param  Channel TIM Channel to be disabled
 957:Drivers/STM32F3xx_HAL_Driver/Src/stm32f3xx_hal_tim_ex.c ****   *          This parameter can be one of the following values:
 958:Drivers/STM32F3xx_HAL_Driver/Src/stm32f3xx_hal_tim_ex.c ****   *            @arg TIM_CHANNEL_1: TIM Channel 1 selected
 959:Drivers/STM32F3xx_HAL_Driver/Src/stm32f3xx_hal_tim_ex.c ****   *            @arg TIM_CHANNEL_2: TIM Channel 2 selected
 960:Drivers/STM32F3xx_HAL_Driver/Src/stm32f3xx_hal_tim_ex.c ****   *            @arg TIM_CHANNEL_3: TIM Channel 3 selected
 961:Drivers/STM32F3xx_HAL_Driver/Src/stm32f3xx_hal_tim_ex.c ****   *            @arg TIM_CHANNEL_4: TIM Channel 4 selected
 962:Drivers/STM32F3xx_HAL_Driver/Src/stm32f3xx_hal_tim_ex.c ****   * @retval HAL status
 963:Drivers/STM32F3xx_HAL_Driver/Src/stm32f3xx_hal_tim_ex.c ****   */
 964:Drivers/STM32F3xx_HAL_Driver/Src/stm32f3xx_hal_tim_ex.c **** HAL_StatusTypeDef HAL_TIMEx_PWMN_Stop(TIM_HandleTypeDef *htim, uint32_t Channel)
 965:Drivers/STM32F3xx_HAL_Driver/Src/stm32f3xx_hal_tim_ex.c **** { 
 966:Drivers/STM32F3xx_HAL_Driver/Src/stm32f3xx_hal_tim_ex.c ****   /* Check the parameters */
 967:Drivers/STM32F3xx_HAL_Driver/Src/stm32f3xx_hal_tim_ex.c ****   assert_param(IS_TIM_CCXN_INSTANCE(htim->Instance, Channel)); 
 968:Drivers/STM32F3xx_HAL_Driver/Src/stm32f3xx_hal_tim_ex.c ****   
 969:Drivers/STM32F3xx_HAL_Driver/Src/stm32f3xx_hal_tim_ex.c ****   /* Disable the complementary PWM output  */
 970:Drivers/STM32F3xx_HAL_Driver/Src/stm32f3xx_hal_tim_ex.c ****   TIM_CCxNChannelCmd(htim->Instance, Channel, TIM_CCxN_DISABLE);  
 971:Drivers/STM32F3xx_HAL_Driver/Src/stm32f3xx_hal_tim_ex.c ****   
 972:Drivers/STM32F3xx_HAL_Driver/Src/stm32f3xx_hal_tim_ex.c ****   /* Disable the Main Ouput */
 973:Drivers/STM32F3xx_HAL_Driver/Src/stm32f3xx_hal_tim_ex.c ****   __HAL_TIM_MOE_DISABLE(htim);
 974:Drivers/STM32F3xx_HAL_Driver/Src/stm32f3xx_hal_tim_ex.c ****   
 975:Drivers/STM32F3xx_HAL_Driver/Src/stm32f3xx_hal_tim_ex.c ****   /* Disable the Peripheral */
 976:Drivers/STM32F3xx_HAL_Driver/Src/stm32f3xx_hal_tim_ex.c ****   __HAL_TIM_DISABLE(htim);
ARM GAS  /tmp/cc1baImv.s 			page 33


 977:Drivers/STM32F3xx_HAL_Driver/Src/stm32f3xx_hal_tim_ex.c ****   
 978:Drivers/STM32F3xx_HAL_Driver/Src/stm32f3xx_hal_tim_ex.c ****   /* Return function status */
 979:Drivers/STM32F3xx_HAL_Driver/Src/stm32f3xx_hal_tim_ex.c ****   return HAL_OK;
 980:Drivers/STM32F3xx_HAL_Driver/Src/stm32f3xx_hal_tim_ex.c **** } 
 981:Drivers/STM32F3xx_HAL_Driver/Src/stm32f3xx_hal_tim_ex.c **** 
 982:Drivers/STM32F3xx_HAL_Driver/Src/stm32f3xx_hal_tim_ex.c **** /**
 983:Drivers/STM32F3xx_HAL_Driver/Src/stm32f3xx_hal_tim_ex.c ****   * @brief  Starts the PWM signal generation in interrupt mode on the 
 984:Drivers/STM32F3xx_HAL_Driver/Src/stm32f3xx_hal_tim_ex.c ****   *         complementary output.
 985:Drivers/STM32F3xx_HAL_Driver/Src/stm32f3xx_hal_tim_ex.c ****   * @param  htim TIM handle
 986:Drivers/STM32F3xx_HAL_Driver/Src/stm32f3xx_hal_tim_ex.c ****   * @param  Channel TIM Channel to be disabled
 987:Drivers/STM32F3xx_HAL_Driver/Src/stm32f3xx_hal_tim_ex.c ****   *          This parameter can be one of the following values:
 988:Drivers/STM32F3xx_HAL_Driver/Src/stm32f3xx_hal_tim_ex.c ****   *            @arg TIM_CHANNEL_1: TIM Channel 1 selected
 989:Drivers/STM32F3xx_HAL_Driver/Src/stm32f3xx_hal_tim_ex.c ****   *            @arg TIM_CHANNEL_2: TIM Channel 2 selected
 990:Drivers/STM32F3xx_HAL_Driver/Src/stm32f3xx_hal_tim_ex.c ****   *            @arg TIM_CHANNEL_3: TIM Channel 3 selected
 991:Drivers/STM32F3xx_HAL_Driver/Src/stm32f3xx_hal_tim_ex.c ****   *            @arg TIM_CHANNEL_4: TIM Channel 4 selected
 992:Drivers/STM32F3xx_HAL_Driver/Src/stm32f3xx_hal_tim_ex.c ****   * @retval HAL status
 993:Drivers/STM32F3xx_HAL_Driver/Src/stm32f3xx_hal_tim_ex.c ****   */
 994:Drivers/STM32F3xx_HAL_Driver/Src/stm32f3xx_hal_tim_ex.c **** HAL_StatusTypeDef HAL_TIMEx_PWMN_Start_IT(TIM_HandleTypeDef *htim, uint32_t Channel)
 995:Drivers/STM32F3xx_HAL_Driver/Src/stm32f3xx_hal_tim_ex.c **** {
 996:Drivers/STM32F3xx_HAL_Driver/Src/stm32f3xx_hal_tim_ex.c ****   /* Check the parameters */
 997:Drivers/STM32F3xx_HAL_Driver/Src/stm32f3xx_hal_tim_ex.c ****   assert_param(IS_TIM_CCXN_INSTANCE(htim->Instance, Channel)); 
 998:Drivers/STM32F3xx_HAL_Driver/Src/stm32f3xx_hal_tim_ex.c ****   
 999:Drivers/STM32F3xx_HAL_Driver/Src/stm32f3xx_hal_tim_ex.c ****   switch (Channel)
1000:Drivers/STM32F3xx_HAL_Driver/Src/stm32f3xx_hal_tim_ex.c ****   {
1001:Drivers/STM32F3xx_HAL_Driver/Src/stm32f3xx_hal_tim_ex.c ****     case TIM_CHANNEL_1:
1002:Drivers/STM32F3xx_HAL_Driver/Src/stm32f3xx_hal_tim_ex.c ****     {       
1003:Drivers/STM32F3xx_HAL_Driver/Src/stm32f3xx_hal_tim_ex.c ****       /* Enable the TIM Capture/Compare 1 interrupt */
1004:Drivers/STM32F3xx_HAL_Driver/Src/stm32f3xx_hal_tim_ex.c ****       __HAL_TIM_ENABLE_IT(htim, TIM_IT_CC1);
1005:Drivers/STM32F3xx_HAL_Driver/Src/stm32f3xx_hal_tim_ex.c ****     }
1006:Drivers/STM32F3xx_HAL_Driver/Src/stm32f3xx_hal_tim_ex.c ****     break;
1007:Drivers/STM32F3xx_HAL_Driver/Src/stm32f3xx_hal_tim_ex.c ****     
1008:Drivers/STM32F3xx_HAL_Driver/Src/stm32f3xx_hal_tim_ex.c ****     case TIM_CHANNEL_2:
1009:Drivers/STM32F3xx_HAL_Driver/Src/stm32f3xx_hal_tim_ex.c ****     {
1010:Drivers/STM32F3xx_HAL_Driver/Src/stm32f3xx_hal_tim_ex.c ****       /* Enable the TIM Capture/Compare 2 interrupt */
1011:Drivers/STM32F3xx_HAL_Driver/Src/stm32f3xx_hal_tim_ex.c ****       __HAL_TIM_ENABLE_IT(htim, TIM_IT_CC2);
1012:Drivers/STM32F3xx_HAL_Driver/Src/stm32f3xx_hal_tim_ex.c ****     }
1013:Drivers/STM32F3xx_HAL_Driver/Src/stm32f3xx_hal_tim_ex.c ****     break;
1014:Drivers/STM32F3xx_HAL_Driver/Src/stm32f3xx_hal_tim_ex.c ****     
1015:Drivers/STM32F3xx_HAL_Driver/Src/stm32f3xx_hal_tim_ex.c ****     case TIM_CHANNEL_3:
1016:Drivers/STM32F3xx_HAL_Driver/Src/stm32f3xx_hal_tim_ex.c ****     {
1017:Drivers/STM32F3xx_HAL_Driver/Src/stm32f3xx_hal_tim_ex.c ****       /* Enable the TIM Capture/Compare 3 interrupt */
1018:Drivers/STM32F3xx_HAL_Driver/Src/stm32f3xx_hal_tim_ex.c ****       __HAL_TIM_ENABLE_IT(htim, TIM_IT_CC3);
1019:Drivers/STM32F3xx_HAL_Driver/Src/stm32f3xx_hal_tim_ex.c ****     }
1020:Drivers/STM32F3xx_HAL_Driver/Src/stm32f3xx_hal_tim_ex.c ****     break;
1021:Drivers/STM32F3xx_HAL_Driver/Src/stm32f3xx_hal_tim_ex.c ****     
1022:Drivers/STM32F3xx_HAL_Driver/Src/stm32f3xx_hal_tim_ex.c ****     case TIM_CHANNEL_4:
1023:Drivers/STM32F3xx_HAL_Driver/Src/stm32f3xx_hal_tim_ex.c ****     {
1024:Drivers/STM32F3xx_HAL_Driver/Src/stm32f3xx_hal_tim_ex.c ****       /* Enable the TIM Capture/Compare 4 interrupt */
1025:Drivers/STM32F3xx_HAL_Driver/Src/stm32f3xx_hal_tim_ex.c ****       __HAL_TIM_ENABLE_IT(htim, TIM_IT_CC4);
1026:Drivers/STM32F3xx_HAL_Driver/Src/stm32f3xx_hal_tim_ex.c ****     }
1027:Drivers/STM32F3xx_HAL_Driver/Src/stm32f3xx_hal_tim_ex.c ****     break;
1028:Drivers/STM32F3xx_HAL_Driver/Src/stm32f3xx_hal_tim_ex.c ****     
1029:Drivers/STM32F3xx_HAL_Driver/Src/stm32f3xx_hal_tim_ex.c ****     default:
1030:Drivers/STM32F3xx_HAL_Driver/Src/stm32f3xx_hal_tim_ex.c ****     break;
1031:Drivers/STM32F3xx_HAL_Driver/Src/stm32f3xx_hal_tim_ex.c ****   } 
1032:Drivers/STM32F3xx_HAL_Driver/Src/stm32f3xx_hal_tim_ex.c ****   
1033:Drivers/STM32F3xx_HAL_Driver/Src/stm32f3xx_hal_tim_ex.c ****   /* Enable the TIM Break interrupt */
ARM GAS  /tmp/cc1baImv.s 			page 34


1034:Drivers/STM32F3xx_HAL_Driver/Src/stm32f3xx_hal_tim_ex.c ****   __HAL_TIM_ENABLE_IT(htim, TIM_IT_BREAK);
1035:Drivers/STM32F3xx_HAL_Driver/Src/stm32f3xx_hal_tim_ex.c ****   
1036:Drivers/STM32F3xx_HAL_Driver/Src/stm32f3xx_hal_tim_ex.c ****   /* Enable the complementary PWM output  */
1037:Drivers/STM32F3xx_HAL_Driver/Src/stm32f3xx_hal_tim_ex.c ****   TIM_CCxNChannelCmd(htim->Instance, Channel, TIM_CCxN_ENABLE);
1038:Drivers/STM32F3xx_HAL_Driver/Src/stm32f3xx_hal_tim_ex.c ****   
1039:Drivers/STM32F3xx_HAL_Driver/Src/stm32f3xx_hal_tim_ex.c ****   /* Enable the Main Ouput */
1040:Drivers/STM32F3xx_HAL_Driver/Src/stm32f3xx_hal_tim_ex.c ****   __HAL_TIM_MOE_ENABLE(htim);
1041:Drivers/STM32F3xx_HAL_Driver/Src/stm32f3xx_hal_tim_ex.c ****   
1042:Drivers/STM32F3xx_HAL_Driver/Src/stm32f3xx_hal_tim_ex.c ****   /* Enable the Peripheral */
1043:Drivers/STM32F3xx_HAL_Driver/Src/stm32f3xx_hal_tim_ex.c ****   __HAL_TIM_ENABLE(htim);
1044:Drivers/STM32F3xx_HAL_Driver/Src/stm32f3xx_hal_tim_ex.c ****   
1045:Drivers/STM32F3xx_HAL_Driver/Src/stm32f3xx_hal_tim_ex.c ****   /* Return function status */
1046:Drivers/STM32F3xx_HAL_Driver/Src/stm32f3xx_hal_tim_ex.c ****   return HAL_OK;
1047:Drivers/STM32F3xx_HAL_Driver/Src/stm32f3xx_hal_tim_ex.c **** } 
1048:Drivers/STM32F3xx_HAL_Driver/Src/stm32f3xx_hal_tim_ex.c **** 
1049:Drivers/STM32F3xx_HAL_Driver/Src/stm32f3xx_hal_tim_ex.c **** /**
1050:Drivers/STM32F3xx_HAL_Driver/Src/stm32f3xx_hal_tim_ex.c ****   * @brief  Stops the PWM signal generation in interrupt mode on the 
1051:Drivers/STM32F3xx_HAL_Driver/Src/stm32f3xx_hal_tim_ex.c ****   *         complementary output.
1052:Drivers/STM32F3xx_HAL_Driver/Src/stm32f3xx_hal_tim_ex.c ****   * @param  htim TIM handle
1053:Drivers/STM32F3xx_HAL_Driver/Src/stm32f3xx_hal_tim_ex.c ****   * @param  Channel TIM Channel to be disabled
1054:Drivers/STM32F3xx_HAL_Driver/Src/stm32f3xx_hal_tim_ex.c ****   *          This parameter can be one of the following values:
1055:Drivers/STM32F3xx_HAL_Driver/Src/stm32f3xx_hal_tim_ex.c ****   *            @arg TIM_CHANNEL_1: TIM Channel 1 selected
1056:Drivers/STM32F3xx_HAL_Driver/Src/stm32f3xx_hal_tim_ex.c ****   *            @arg TIM_CHANNEL_2: TIM Channel 2 selected
1057:Drivers/STM32F3xx_HAL_Driver/Src/stm32f3xx_hal_tim_ex.c ****   *            @arg TIM_CHANNEL_3: TIM Channel 3 selected
1058:Drivers/STM32F3xx_HAL_Driver/Src/stm32f3xx_hal_tim_ex.c ****   *            @arg TIM_CHANNEL_4: TIM Channel 4 selected
1059:Drivers/STM32F3xx_HAL_Driver/Src/stm32f3xx_hal_tim_ex.c ****   * @retval HAL status
1060:Drivers/STM32F3xx_HAL_Driver/Src/stm32f3xx_hal_tim_ex.c ****   */
1061:Drivers/STM32F3xx_HAL_Driver/Src/stm32f3xx_hal_tim_ex.c **** HAL_StatusTypeDef HAL_TIMEx_PWMN_Stop_IT (TIM_HandleTypeDef *htim, uint32_t Channel)
1062:Drivers/STM32F3xx_HAL_Driver/Src/stm32f3xx_hal_tim_ex.c **** {
1063:Drivers/STM32F3xx_HAL_Driver/Src/stm32f3xx_hal_tim_ex.c ****   uint32_t tmpccer = 0U;
1064:Drivers/STM32F3xx_HAL_Driver/Src/stm32f3xx_hal_tim_ex.c **** 
1065:Drivers/STM32F3xx_HAL_Driver/Src/stm32f3xx_hal_tim_ex.c ****   /* Check the parameters */
1066:Drivers/STM32F3xx_HAL_Driver/Src/stm32f3xx_hal_tim_ex.c ****   assert_param(IS_TIM_CCXN_INSTANCE(htim->Instance, Channel)); 
1067:Drivers/STM32F3xx_HAL_Driver/Src/stm32f3xx_hal_tim_ex.c **** 
1068:Drivers/STM32F3xx_HAL_Driver/Src/stm32f3xx_hal_tim_ex.c ****   switch (Channel)
1069:Drivers/STM32F3xx_HAL_Driver/Src/stm32f3xx_hal_tim_ex.c ****   {
1070:Drivers/STM32F3xx_HAL_Driver/Src/stm32f3xx_hal_tim_ex.c ****     case TIM_CHANNEL_1:
1071:Drivers/STM32F3xx_HAL_Driver/Src/stm32f3xx_hal_tim_ex.c ****     {       
1072:Drivers/STM32F3xx_HAL_Driver/Src/stm32f3xx_hal_tim_ex.c ****       /* Disable the TIM Capture/Compare 1 interrupt */
1073:Drivers/STM32F3xx_HAL_Driver/Src/stm32f3xx_hal_tim_ex.c ****       __HAL_TIM_DISABLE_IT(htim, TIM_IT_CC1);
1074:Drivers/STM32F3xx_HAL_Driver/Src/stm32f3xx_hal_tim_ex.c ****     }
1075:Drivers/STM32F3xx_HAL_Driver/Src/stm32f3xx_hal_tim_ex.c ****     break;
1076:Drivers/STM32F3xx_HAL_Driver/Src/stm32f3xx_hal_tim_ex.c ****     
1077:Drivers/STM32F3xx_HAL_Driver/Src/stm32f3xx_hal_tim_ex.c ****     case TIM_CHANNEL_2:
1078:Drivers/STM32F3xx_HAL_Driver/Src/stm32f3xx_hal_tim_ex.c ****     {
1079:Drivers/STM32F3xx_HAL_Driver/Src/stm32f3xx_hal_tim_ex.c ****       /* Disable the TIM Capture/Compare 2 interrupt */
1080:Drivers/STM32F3xx_HAL_Driver/Src/stm32f3xx_hal_tim_ex.c ****       __HAL_TIM_DISABLE_IT(htim, TIM_IT_CC2);
1081:Drivers/STM32F3xx_HAL_Driver/Src/stm32f3xx_hal_tim_ex.c ****     }
1082:Drivers/STM32F3xx_HAL_Driver/Src/stm32f3xx_hal_tim_ex.c ****     break;
1083:Drivers/STM32F3xx_HAL_Driver/Src/stm32f3xx_hal_tim_ex.c ****     
1084:Drivers/STM32F3xx_HAL_Driver/Src/stm32f3xx_hal_tim_ex.c ****     case TIM_CHANNEL_3:
1085:Drivers/STM32F3xx_HAL_Driver/Src/stm32f3xx_hal_tim_ex.c ****     {
1086:Drivers/STM32F3xx_HAL_Driver/Src/stm32f3xx_hal_tim_ex.c ****       /* Disable the TIM Capture/Compare 3 interrupt */
1087:Drivers/STM32F3xx_HAL_Driver/Src/stm32f3xx_hal_tim_ex.c ****       __HAL_TIM_DISABLE_IT(htim, TIM_IT_CC3);
1088:Drivers/STM32F3xx_HAL_Driver/Src/stm32f3xx_hal_tim_ex.c ****     }
1089:Drivers/STM32F3xx_HAL_Driver/Src/stm32f3xx_hal_tim_ex.c ****     break;
1090:Drivers/STM32F3xx_HAL_Driver/Src/stm32f3xx_hal_tim_ex.c ****     
ARM GAS  /tmp/cc1baImv.s 			page 35


1091:Drivers/STM32F3xx_HAL_Driver/Src/stm32f3xx_hal_tim_ex.c ****     case TIM_CHANNEL_4:
1092:Drivers/STM32F3xx_HAL_Driver/Src/stm32f3xx_hal_tim_ex.c ****     {
1093:Drivers/STM32F3xx_HAL_Driver/Src/stm32f3xx_hal_tim_ex.c ****       /* Disable the TIM Capture/Compare 3 interrupt */
1094:Drivers/STM32F3xx_HAL_Driver/Src/stm32f3xx_hal_tim_ex.c ****       __HAL_TIM_DISABLE_IT(htim, TIM_IT_CC4);
1095:Drivers/STM32F3xx_HAL_Driver/Src/stm32f3xx_hal_tim_ex.c ****     }
1096:Drivers/STM32F3xx_HAL_Driver/Src/stm32f3xx_hal_tim_ex.c ****     break;
1097:Drivers/STM32F3xx_HAL_Driver/Src/stm32f3xx_hal_tim_ex.c ****     
1098:Drivers/STM32F3xx_HAL_Driver/Src/stm32f3xx_hal_tim_ex.c ****     default:
1099:Drivers/STM32F3xx_HAL_Driver/Src/stm32f3xx_hal_tim_ex.c ****     break; 
1100:Drivers/STM32F3xx_HAL_Driver/Src/stm32f3xx_hal_tim_ex.c ****   }
1101:Drivers/STM32F3xx_HAL_Driver/Src/stm32f3xx_hal_tim_ex.c ****   
1102:Drivers/STM32F3xx_HAL_Driver/Src/stm32f3xx_hal_tim_ex.c ****   /* Disable the complementary PWM output  */
1103:Drivers/STM32F3xx_HAL_Driver/Src/stm32f3xx_hal_tim_ex.c ****   TIM_CCxNChannelCmd(htim->Instance, Channel, TIM_CCxN_DISABLE);
1104:Drivers/STM32F3xx_HAL_Driver/Src/stm32f3xx_hal_tim_ex.c ****   
1105:Drivers/STM32F3xx_HAL_Driver/Src/stm32f3xx_hal_tim_ex.c ****   /* Disable the TIM Break interrupt (only if no more channel is active) */
1106:Drivers/STM32F3xx_HAL_Driver/Src/stm32f3xx_hal_tim_ex.c ****   tmpccer = htim->Instance->CCER;
1107:Drivers/STM32F3xx_HAL_Driver/Src/stm32f3xx_hal_tim_ex.c ****   if ((tmpccer & (TIM_CCER_CC1NE | TIM_CCER_CC2NE | TIM_CCER_CC3NE)) == RESET)
1108:Drivers/STM32F3xx_HAL_Driver/Src/stm32f3xx_hal_tim_ex.c ****   {
1109:Drivers/STM32F3xx_HAL_Driver/Src/stm32f3xx_hal_tim_ex.c ****     __HAL_TIM_DISABLE_IT(htim, TIM_IT_BREAK);
1110:Drivers/STM32F3xx_HAL_Driver/Src/stm32f3xx_hal_tim_ex.c ****   }
1111:Drivers/STM32F3xx_HAL_Driver/Src/stm32f3xx_hal_tim_ex.c ****   
1112:Drivers/STM32F3xx_HAL_Driver/Src/stm32f3xx_hal_tim_ex.c ****   /* Disable the Main Ouput */
1113:Drivers/STM32F3xx_HAL_Driver/Src/stm32f3xx_hal_tim_ex.c ****   __HAL_TIM_MOE_DISABLE(htim);
1114:Drivers/STM32F3xx_HAL_Driver/Src/stm32f3xx_hal_tim_ex.c ****   
1115:Drivers/STM32F3xx_HAL_Driver/Src/stm32f3xx_hal_tim_ex.c ****   /* Disable the Peripheral */
1116:Drivers/STM32F3xx_HAL_Driver/Src/stm32f3xx_hal_tim_ex.c ****   __HAL_TIM_DISABLE(htim);
1117:Drivers/STM32F3xx_HAL_Driver/Src/stm32f3xx_hal_tim_ex.c ****   
1118:Drivers/STM32F3xx_HAL_Driver/Src/stm32f3xx_hal_tim_ex.c ****   /* Return function status */
1119:Drivers/STM32F3xx_HAL_Driver/Src/stm32f3xx_hal_tim_ex.c ****   return HAL_OK;
1120:Drivers/STM32F3xx_HAL_Driver/Src/stm32f3xx_hal_tim_ex.c **** } 
1121:Drivers/STM32F3xx_HAL_Driver/Src/stm32f3xx_hal_tim_ex.c **** 
1122:Drivers/STM32F3xx_HAL_Driver/Src/stm32f3xx_hal_tim_ex.c **** /**
1123:Drivers/STM32F3xx_HAL_Driver/Src/stm32f3xx_hal_tim_ex.c ****   * @brief  Starts the TIM PWM signal generation in DMA mode on the 
1124:Drivers/STM32F3xx_HAL_Driver/Src/stm32f3xx_hal_tim_ex.c ****   *         complementary output
1125:Drivers/STM32F3xx_HAL_Driver/Src/stm32f3xx_hal_tim_ex.c ****   * @param  htim TIM handle
1126:Drivers/STM32F3xx_HAL_Driver/Src/stm32f3xx_hal_tim_ex.c ****   * @param  Channel TIM Channel to be enabled
1127:Drivers/STM32F3xx_HAL_Driver/Src/stm32f3xx_hal_tim_ex.c ****   *          This parameter can be one of the following values:
1128:Drivers/STM32F3xx_HAL_Driver/Src/stm32f3xx_hal_tim_ex.c ****   *            @arg TIM_CHANNEL_1: TIM Channel 1 selected
1129:Drivers/STM32F3xx_HAL_Driver/Src/stm32f3xx_hal_tim_ex.c ****   *            @arg TIM_CHANNEL_2: TIM Channel 2 selected
1130:Drivers/STM32F3xx_HAL_Driver/Src/stm32f3xx_hal_tim_ex.c ****   *            @arg TIM_CHANNEL_3: TIM Channel 3 selected
1131:Drivers/STM32F3xx_HAL_Driver/Src/stm32f3xx_hal_tim_ex.c ****   *            @arg TIM_CHANNEL_4: TIM Channel 4 selected
1132:Drivers/STM32F3xx_HAL_Driver/Src/stm32f3xx_hal_tim_ex.c ****   * @param  pData The source Buffer address.
1133:Drivers/STM32F3xx_HAL_Driver/Src/stm32f3xx_hal_tim_ex.c ****   * @param  Length The length of data to be transferred from memory to TIM peripheral
1134:Drivers/STM32F3xx_HAL_Driver/Src/stm32f3xx_hal_tim_ex.c ****   * @retval HAL status
1135:Drivers/STM32F3xx_HAL_Driver/Src/stm32f3xx_hal_tim_ex.c ****   */
1136:Drivers/STM32F3xx_HAL_Driver/Src/stm32f3xx_hal_tim_ex.c **** HAL_StatusTypeDef HAL_TIMEx_PWMN_Start_DMA(TIM_HandleTypeDef *htim, uint32_t Channel, uint32_t *pDa
1137:Drivers/STM32F3xx_HAL_Driver/Src/stm32f3xx_hal_tim_ex.c **** {
1138:Drivers/STM32F3xx_HAL_Driver/Src/stm32f3xx_hal_tim_ex.c ****   /* Check the parameters */
1139:Drivers/STM32F3xx_HAL_Driver/Src/stm32f3xx_hal_tim_ex.c ****   assert_param(IS_TIM_CCXN_INSTANCE(htim->Instance, Channel)); 
1140:Drivers/STM32F3xx_HAL_Driver/Src/stm32f3xx_hal_tim_ex.c ****   
1141:Drivers/STM32F3xx_HAL_Driver/Src/stm32f3xx_hal_tim_ex.c ****   if((htim->State == HAL_TIM_STATE_BUSY))
1142:Drivers/STM32F3xx_HAL_Driver/Src/stm32f3xx_hal_tim_ex.c ****   {
1143:Drivers/STM32F3xx_HAL_Driver/Src/stm32f3xx_hal_tim_ex.c ****      return HAL_BUSY;
1144:Drivers/STM32F3xx_HAL_Driver/Src/stm32f3xx_hal_tim_ex.c ****   }
1145:Drivers/STM32F3xx_HAL_Driver/Src/stm32f3xx_hal_tim_ex.c ****   else if((htim->State == HAL_TIM_STATE_READY))
1146:Drivers/STM32F3xx_HAL_Driver/Src/stm32f3xx_hal_tim_ex.c ****   {
1147:Drivers/STM32F3xx_HAL_Driver/Src/stm32f3xx_hal_tim_ex.c ****     if(((uint32_t)pData == 0U ) && (Length > 0U)) 
ARM GAS  /tmp/cc1baImv.s 			page 36


1148:Drivers/STM32F3xx_HAL_Driver/Src/stm32f3xx_hal_tim_ex.c ****     {
1149:Drivers/STM32F3xx_HAL_Driver/Src/stm32f3xx_hal_tim_ex.c ****       return HAL_ERROR;                                    
1150:Drivers/STM32F3xx_HAL_Driver/Src/stm32f3xx_hal_tim_ex.c ****     }
1151:Drivers/STM32F3xx_HAL_Driver/Src/stm32f3xx_hal_tim_ex.c ****     else
1152:Drivers/STM32F3xx_HAL_Driver/Src/stm32f3xx_hal_tim_ex.c ****     {
1153:Drivers/STM32F3xx_HAL_Driver/Src/stm32f3xx_hal_tim_ex.c ****       htim->State = HAL_TIM_STATE_BUSY;
1154:Drivers/STM32F3xx_HAL_Driver/Src/stm32f3xx_hal_tim_ex.c ****     }
1155:Drivers/STM32F3xx_HAL_Driver/Src/stm32f3xx_hal_tim_ex.c ****   }    
1156:Drivers/STM32F3xx_HAL_Driver/Src/stm32f3xx_hal_tim_ex.c ****   switch (Channel)
1157:Drivers/STM32F3xx_HAL_Driver/Src/stm32f3xx_hal_tim_ex.c ****   {
1158:Drivers/STM32F3xx_HAL_Driver/Src/stm32f3xx_hal_tim_ex.c ****     case TIM_CHANNEL_1:
1159:Drivers/STM32F3xx_HAL_Driver/Src/stm32f3xx_hal_tim_ex.c ****     {      
1160:Drivers/STM32F3xx_HAL_Driver/Src/stm32f3xx_hal_tim_ex.c ****       /* Set the DMA Period elapsed callback */
1161:Drivers/STM32F3xx_HAL_Driver/Src/stm32f3xx_hal_tim_ex.c ****       htim->hdma[TIM_DMA_ID_CC1]->XferCpltCallback = TIM_DMADelayPulseCplt;
1162:Drivers/STM32F3xx_HAL_Driver/Src/stm32f3xx_hal_tim_ex.c ****      
1163:Drivers/STM32F3xx_HAL_Driver/Src/stm32f3xx_hal_tim_ex.c ****       /* Set the DMA error callback */
1164:Drivers/STM32F3xx_HAL_Driver/Src/stm32f3xx_hal_tim_ex.c ****       htim->hdma[TIM_DMA_ID_CC1]->XferErrorCallback = TIM_DMAError ;
1165:Drivers/STM32F3xx_HAL_Driver/Src/stm32f3xx_hal_tim_ex.c ****       
1166:Drivers/STM32F3xx_HAL_Driver/Src/stm32f3xx_hal_tim_ex.c ****       /* Enable the DMA channel */
1167:Drivers/STM32F3xx_HAL_Driver/Src/stm32f3xx_hal_tim_ex.c ****       HAL_DMA_Start_IT(htim->hdma[TIM_DMA_ID_CC1], (uint32_t)pData, (uint32_t)&htim->Instance->CCR1
1168:Drivers/STM32F3xx_HAL_Driver/Src/stm32f3xx_hal_tim_ex.c ****       
1169:Drivers/STM32F3xx_HAL_Driver/Src/stm32f3xx_hal_tim_ex.c ****       /* Enable the TIM Capture/Compare 1 DMA request */
1170:Drivers/STM32F3xx_HAL_Driver/Src/stm32f3xx_hal_tim_ex.c ****       __HAL_TIM_ENABLE_DMA(htim, TIM_DMA_CC1);
1171:Drivers/STM32F3xx_HAL_Driver/Src/stm32f3xx_hal_tim_ex.c ****     }
1172:Drivers/STM32F3xx_HAL_Driver/Src/stm32f3xx_hal_tim_ex.c ****     break;
1173:Drivers/STM32F3xx_HAL_Driver/Src/stm32f3xx_hal_tim_ex.c ****     
1174:Drivers/STM32F3xx_HAL_Driver/Src/stm32f3xx_hal_tim_ex.c ****     case TIM_CHANNEL_2:
1175:Drivers/STM32F3xx_HAL_Driver/Src/stm32f3xx_hal_tim_ex.c ****     {
1176:Drivers/STM32F3xx_HAL_Driver/Src/stm32f3xx_hal_tim_ex.c ****       /* Set the DMA Period elapsed callback */
1177:Drivers/STM32F3xx_HAL_Driver/Src/stm32f3xx_hal_tim_ex.c ****       htim->hdma[TIM_DMA_ID_CC2]->XferCpltCallback = TIM_DMADelayPulseCplt;
1178:Drivers/STM32F3xx_HAL_Driver/Src/stm32f3xx_hal_tim_ex.c ****      
1179:Drivers/STM32F3xx_HAL_Driver/Src/stm32f3xx_hal_tim_ex.c ****       /* Set the DMA error callback */
1180:Drivers/STM32F3xx_HAL_Driver/Src/stm32f3xx_hal_tim_ex.c ****       htim->hdma[TIM_DMA_ID_CC2]->XferErrorCallback = TIM_DMAError ;
1181:Drivers/STM32F3xx_HAL_Driver/Src/stm32f3xx_hal_tim_ex.c ****       
1182:Drivers/STM32F3xx_HAL_Driver/Src/stm32f3xx_hal_tim_ex.c ****       /* Enable the DMA channel */
1183:Drivers/STM32F3xx_HAL_Driver/Src/stm32f3xx_hal_tim_ex.c ****       HAL_DMA_Start_IT(htim->hdma[TIM_DMA_ID_CC2], (uint32_t)pData, (uint32_t)&htim->Instance->CCR2
1184:Drivers/STM32F3xx_HAL_Driver/Src/stm32f3xx_hal_tim_ex.c ****       
1185:Drivers/STM32F3xx_HAL_Driver/Src/stm32f3xx_hal_tim_ex.c ****       /* Enable the TIM Capture/Compare 2 DMA request */
1186:Drivers/STM32F3xx_HAL_Driver/Src/stm32f3xx_hal_tim_ex.c ****       __HAL_TIM_ENABLE_DMA(htim, TIM_DMA_CC2);
1187:Drivers/STM32F3xx_HAL_Driver/Src/stm32f3xx_hal_tim_ex.c ****     }
1188:Drivers/STM32F3xx_HAL_Driver/Src/stm32f3xx_hal_tim_ex.c ****     break;
1189:Drivers/STM32F3xx_HAL_Driver/Src/stm32f3xx_hal_tim_ex.c ****     
1190:Drivers/STM32F3xx_HAL_Driver/Src/stm32f3xx_hal_tim_ex.c ****     case TIM_CHANNEL_3:
1191:Drivers/STM32F3xx_HAL_Driver/Src/stm32f3xx_hal_tim_ex.c ****     {
1192:Drivers/STM32F3xx_HAL_Driver/Src/stm32f3xx_hal_tim_ex.c ****       /* Set the DMA Period elapsed callback */
1193:Drivers/STM32F3xx_HAL_Driver/Src/stm32f3xx_hal_tim_ex.c ****       htim->hdma[TIM_DMA_ID_CC3]->XferCpltCallback = TIM_DMADelayPulseCplt;
1194:Drivers/STM32F3xx_HAL_Driver/Src/stm32f3xx_hal_tim_ex.c ****      
1195:Drivers/STM32F3xx_HAL_Driver/Src/stm32f3xx_hal_tim_ex.c ****       /* Set the DMA error callback */
1196:Drivers/STM32F3xx_HAL_Driver/Src/stm32f3xx_hal_tim_ex.c ****       htim->hdma[TIM_DMA_ID_CC3]->XferErrorCallback = TIM_DMAError ;
1197:Drivers/STM32F3xx_HAL_Driver/Src/stm32f3xx_hal_tim_ex.c ****       
1198:Drivers/STM32F3xx_HAL_Driver/Src/stm32f3xx_hal_tim_ex.c ****       /* Enable the DMA channel */
1199:Drivers/STM32F3xx_HAL_Driver/Src/stm32f3xx_hal_tim_ex.c ****       HAL_DMA_Start_IT(htim->hdma[TIM_DMA_ID_CC3], (uint32_t)pData, (uint32_t)&htim->Instance->CCR3
1200:Drivers/STM32F3xx_HAL_Driver/Src/stm32f3xx_hal_tim_ex.c ****       
1201:Drivers/STM32F3xx_HAL_Driver/Src/stm32f3xx_hal_tim_ex.c ****       /* Enable the TIM Capture/Compare 3 DMA request */
1202:Drivers/STM32F3xx_HAL_Driver/Src/stm32f3xx_hal_tim_ex.c ****       __HAL_TIM_ENABLE_DMA(htim, TIM_DMA_CC3);
1203:Drivers/STM32F3xx_HAL_Driver/Src/stm32f3xx_hal_tim_ex.c ****     }
1204:Drivers/STM32F3xx_HAL_Driver/Src/stm32f3xx_hal_tim_ex.c ****     break;
ARM GAS  /tmp/cc1baImv.s 			page 37


1205:Drivers/STM32F3xx_HAL_Driver/Src/stm32f3xx_hal_tim_ex.c ****     
1206:Drivers/STM32F3xx_HAL_Driver/Src/stm32f3xx_hal_tim_ex.c ****     case TIM_CHANNEL_4:
1207:Drivers/STM32F3xx_HAL_Driver/Src/stm32f3xx_hal_tim_ex.c ****     {
1208:Drivers/STM32F3xx_HAL_Driver/Src/stm32f3xx_hal_tim_ex.c ****      /* Set the DMA Period elapsed callback */
1209:Drivers/STM32F3xx_HAL_Driver/Src/stm32f3xx_hal_tim_ex.c ****       htim->hdma[TIM_DMA_ID_CC4]->XferCpltCallback = TIM_DMADelayPulseCplt;
1210:Drivers/STM32F3xx_HAL_Driver/Src/stm32f3xx_hal_tim_ex.c ****      
1211:Drivers/STM32F3xx_HAL_Driver/Src/stm32f3xx_hal_tim_ex.c ****       /* Set the DMA error callback */
1212:Drivers/STM32F3xx_HAL_Driver/Src/stm32f3xx_hal_tim_ex.c ****       htim->hdma[TIM_DMA_ID_CC4]->XferErrorCallback = TIM_DMAError ;
1213:Drivers/STM32F3xx_HAL_Driver/Src/stm32f3xx_hal_tim_ex.c ****       
1214:Drivers/STM32F3xx_HAL_Driver/Src/stm32f3xx_hal_tim_ex.c ****       /* Enable the DMA channel */
1215:Drivers/STM32F3xx_HAL_Driver/Src/stm32f3xx_hal_tim_ex.c ****       HAL_DMA_Start_IT(htim->hdma[TIM_DMA_ID_CC4], (uint32_t)pData, (uint32_t)&htim->Instance->CCR4
1216:Drivers/STM32F3xx_HAL_Driver/Src/stm32f3xx_hal_tim_ex.c ****       
1217:Drivers/STM32F3xx_HAL_Driver/Src/stm32f3xx_hal_tim_ex.c ****       /* Enable the TIM Capture/Compare 4 DMA request */
1218:Drivers/STM32F3xx_HAL_Driver/Src/stm32f3xx_hal_tim_ex.c ****       __HAL_TIM_ENABLE_DMA(htim, TIM_DMA_CC4);
1219:Drivers/STM32F3xx_HAL_Driver/Src/stm32f3xx_hal_tim_ex.c ****     }
1220:Drivers/STM32F3xx_HAL_Driver/Src/stm32f3xx_hal_tim_ex.c ****     break;
1221:Drivers/STM32F3xx_HAL_Driver/Src/stm32f3xx_hal_tim_ex.c ****     
1222:Drivers/STM32F3xx_HAL_Driver/Src/stm32f3xx_hal_tim_ex.c ****     default:
1223:Drivers/STM32F3xx_HAL_Driver/Src/stm32f3xx_hal_tim_ex.c ****     break;
1224:Drivers/STM32F3xx_HAL_Driver/Src/stm32f3xx_hal_tim_ex.c ****   }
1225:Drivers/STM32F3xx_HAL_Driver/Src/stm32f3xx_hal_tim_ex.c **** 
1226:Drivers/STM32F3xx_HAL_Driver/Src/stm32f3xx_hal_tim_ex.c ****   /* Enable the complementary PWM output  */
1227:Drivers/STM32F3xx_HAL_Driver/Src/stm32f3xx_hal_tim_ex.c ****   TIM_CCxNChannelCmd(htim->Instance, Channel, TIM_CCxN_ENABLE);
1228:Drivers/STM32F3xx_HAL_Driver/Src/stm32f3xx_hal_tim_ex.c ****     
1229:Drivers/STM32F3xx_HAL_Driver/Src/stm32f3xx_hal_tim_ex.c ****   /* Enable the Main Ouput */
1230:Drivers/STM32F3xx_HAL_Driver/Src/stm32f3xx_hal_tim_ex.c ****   __HAL_TIM_MOE_ENABLE(htim);
1231:Drivers/STM32F3xx_HAL_Driver/Src/stm32f3xx_hal_tim_ex.c ****   
1232:Drivers/STM32F3xx_HAL_Driver/Src/stm32f3xx_hal_tim_ex.c ****   /* Enable the Peripheral */
1233:Drivers/STM32F3xx_HAL_Driver/Src/stm32f3xx_hal_tim_ex.c ****   __HAL_TIM_ENABLE(htim); 
1234:Drivers/STM32F3xx_HAL_Driver/Src/stm32f3xx_hal_tim_ex.c ****   
1235:Drivers/STM32F3xx_HAL_Driver/Src/stm32f3xx_hal_tim_ex.c ****   /* Return function status */
1236:Drivers/STM32F3xx_HAL_Driver/Src/stm32f3xx_hal_tim_ex.c ****   return HAL_OK;
1237:Drivers/STM32F3xx_HAL_Driver/Src/stm32f3xx_hal_tim_ex.c **** }
1238:Drivers/STM32F3xx_HAL_Driver/Src/stm32f3xx_hal_tim_ex.c **** 
1239:Drivers/STM32F3xx_HAL_Driver/Src/stm32f3xx_hal_tim_ex.c **** /**
1240:Drivers/STM32F3xx_HAL_Driver/Src/stm32f3xx_hal_tim_ex.c ****   * @brief  Stops the TIM PWM signal generation in DMA mode on the complementary
1241:Drivers/STM32F3xx_HAL_Driver/Src/stm32f3xx_hal_tim_ex.c ****   *         output
1242:Drivers/STM32F3xx_HAL_Driver/Src/stm32f3xx_hal_tim_ex.c ****   * @param  htim TIM handle
1243:Drivers/STM32F3xx_HAL_Driver/Src/stm32f3xx_hal_tim_ex.c ****   * @param  Channel TIM Channel to be disabled
1244:Drivers/STM32F3xx_HAL_Driver/Src/stm32f3xx_hal_tim_ex.c ****   *          This parameter can be one of the following values:
1245:Drivers/STM32F3xx_HAL_Driver/Src/stm32f3xx_hal_tim_ex.c ****   *            @arg TIM_CHANNEL_1: TIM Channel 1 selected
1246:Drivers/STM32F3xx_HAL_Driver/Src/stm32f3xx_hal_tim_ex.c ****   *            @arg TIM_CHANNEL_2: TIM Channel 2 selected
1247:Drivers/STM32F3xx_HAL_Driver/Src/stm32f3xx_hal_tim_ex.c ****   *            @arg TIM_CHANNEL_3: TIM Channel 3 selected
1248:Drivers/STM32F3xx_HAL_Driver/Src/stm32f3xx_hal_tim_ex.c ****   *            @arg TIM_CHANNEL_4: TIM Channel 4 selected
1249:Drivers/STM32F3xx_HAL_Driver/Src/stm32f3xx_hal_tim_ex.c ****   * @retval HAL status
1250:Drivers/STM32F3xx_HAL_Driver/Src/stm32f3xx_hal_tim_ex.c ****   */
1251:Drivers/STM32F3xx_HAL_Driver/Src/stm32f3xx_hal_tim_ex.c **** HAL_StatusTypeDef HAL_TIMEx_PWMN_Stop_DMA(TIM_HandleTypeDef *htim, uint32_t Channel)
1252:Drivers/STM32F3xx_HAL_Driver/Src/stm32f3xx_hal_tim_ex.c **** {
1253:Drivers/STM32F3xx_HAL_Driver/Src/stm32f3xx_hal_tim_ex.c ****   /* Check the parameters */
1254:Drivers/STM32F3xx_HAL_Driver/Src/stm32f3xx_hal_tim_ex.c ****   assert_param(IS_TIM_CCXN_INSTANCE(htim->Instance, Channel)); 
1255:Drivers/STM32F3xx_HAL_Driver/Src/stm32f3xx_hal_tim_ex.c ****   
1256:Drivers/STM32F3xx_HAL_Driver/Src/stm32f3xx_hal_tim_ex.c ****   switch (Channel)
1257:Drivers/STM32F3xx_HAL_Driver/Src/stm32f3xx_hal_tim_ex.c ****   {
1258:Drivers/STM32F3xx_HAL_Driver/Src/stm32f3xx_hal_tim_ex.c ****     case TIM_CHANNEL_1:
1259:Drivers/STM32F3xx_HAL_Driver/Src/stm32f3xx_hal_tim_ex.c ****     {       
1260:Drivers/STM32F3xx_HAL_Driver/Src/stm32f3xx_hal_tim_ex.c ****       /* Disable the TIM Capture/Compare 1 DMA request */
1261:Drivers/STM32F3xx_HAL_Driver/Src/stm32f3xx_hal_tim_ex.c ****       __HAL_TIM_DISABLE_DMA(htim, TIM_DMA_CC1);
ARM GAS  /tmp/cc1baImv.s 			page 38


1262:Drivers/STM32F3xx_HAL_Driver/Src/stm32f3xx_hal_tim_ex.c ****     }
1263:Drivers/STM32F3xx_HAL_Driver/Src/stm32f3xx_hal_tim_ex.c ****     break;
1264:Drivers/STM32F3xx_HAL_Driver/Src/stm32f3xx_hal_tim_ex.c ****     
1265:Drivers/STM32F3xx_HAL_Driver/Src/stm32f3xx_hal_tim_ex.c ****     case TIM_CHANNEL_2:
1266:Drivers/STM32F3xx_HAL_Driver/Src/stm32f3xx_hal_tim_ex.c ****     {
1267:Drivers/STM32F3xx_HAL_Driver/Src/stm32f3xx_hal_tim_ex.c ****       /* Disable the TIM Capture/Compare 2 DMA request */
1268:Drivers/STM32F3xx_HAL_Driver/Src/stm32f3xx_hal_tim_ex.c ****       __HAL_TIM_DISABLE_DMA(htim, TIM_DMA_CC2);
1269:Drivers/STM32F3xx_HAL_Driver/Src/stm32f3xx_hal_tim_ex.c ****     }
1270:Drivers/STM32F3xx_HAL_Driver/Src/stm32f3xx_hal_tim_ex.c ****     break;
1271:Drivers/STM32F3xx_HAL_Driver/Src/stm32f3xx_hal_tim_ex.c ****     
1272:Drivers/STM32F3xx_HAL_Driver/Src/stm32f3xx_hal_tim_ex.c ****     case TIM_CHANNEL_3:
1273:Drivers/STM32F3xx_HAL_Driver/Src/stm32f3xx_hal_tim_ex.c ****     {
1274:Drivers/STM32F3xx_HAL_Driver/Src/stm32f3xx_hal_tim_ex.c ****       /* Disable the TIM Capture/Compare 3 DMA request */
1275:Drivers/STM32F3xx_HAL_Driver/Src/stm32f3xx_hal_tim_ex.c ****       __HAL_TIM_DISABLE_DMA(htim, TIM_DMA_CC3);
1276:Drivers/STM32F3xx_HAL_Driver/Src/stm32f3xx_hal_tim_ex.c ****     }
1277:Drivers/STM32F3xx_HAL_Driver/Src/stm32f3xx_hal_tim_ex.c ****     break;
1278:Drivers/STM32F3xx_HAL_Driver/Src/stm32f3xx_hal_tim_ex.c ****     
1279:Drivers/STM32F3xx_HAL_Driver/Src/stm32f3xx_hal_tim_ex.c ****     case TIM_CHANNEL_4:
1280:Drivers/STM32F3xx_HAL_Driver/Src/stm32f3xx_hal_tim_ex.c ****     {
1281:Drivers/STM32F3xx_HAL_Driver/Src/stm32f3xx_hal_tim_ex.c ****       /* Disable the TIM Capture/Compare 4 DMA request */
1282:Drivers/STM32F3xx_HAL_Driver/Src/stm32f3xx_hal_tim_ex.c ****       __HAL_TIM_DISABLE_DMA(htim, TIM_DMA_CC4);
1283:Drivers/STM32F3xx_HAL_Driver/Src/stm32f3xx_hal_tim_ex.c ****     }
1284:Drivers/STM32F3xx_HAL_Driver/Src/stm32f3xx_hal_tim_ex.c ****     break;
1285:Drivers/STM32F3xx_HAL_Driver/Src/stm32f3xx_hal_tim_ex.c ****     
1286:Drivers/STM32F3xx_HAL_Driver/Src/stm32f3xx_hal_tim_ex.c ****     default:
1287:Drivers/STM32F3xx_HAL_Driver/Src/stm32f3xx_hal_tim_ex.c ****     break;
1288:Drivers/STM32F3xx_HAL_Driver/Src/stm32f3xx_hal_tim_ex.c ****   } 
1289:Drivers/STM32F3xx_HAL_Driver/Src/stm32f3xx_hal_tim_ex.c ****   
1290:Drivers/STM32F3xx_HAL_Driver/Src/stm32f3xx_hal_tim_ex.c ****   /* Disable the complementary PWM output */
1291:Drivers/STM32F3xx_HAL_Driver/Src/stm32f3xx_hal_tim_ex.c ****   TIM_CCxNChannelCmd(htim->Instance, Channel, TIM_CCxN_DISABLE);
1292:Drivers/STM32F3xx_HAL_Driver/Src/stm32f3xx_hal_tim_ex.c ****      
1293:Drivers/STM32F3xx_HAL_Driver/Src/stm32f3xx_hal_tim_ex.c ****   /* Disable the Main Ouput */
1294:Drivers/STM32F3xx_HAL_Driver/Src/stm32f3xx_hal_tim_ex.c ****   __HAL_TIM_MOE_DISABLE(htim);
1295:Drivers/STM32F3xx_HAL_Driver/Src/stm32f3xx_hal_tim_ex.c **** 
1296:Drivers/STM32F3xx_HAL_Driver/Src/stm32f3xx_hal_tim_ex.c ****   /* Disable the Peripheral */
1297:Drivers/STM32F3xx_HAL_Driver/Src/stm32f3xx_hal_tim_ex.c ****   __HAL_TIM_DISABLE(htim);
1298:Drivers/STM32F3xx_HAL_Driver/Src/stm32f3xx_hal_tim_ex.c ****   
1299:Drivers/STM32F3xx_HAL_Driver/Src/stm32f3xx_hal_tim_ex.c ****   /* Change the htim state */
1300:Drivers/STM32F3xx_HAL_Driver/Src/stm32f3xx_hal_tim_ex.c ****   htim->State = HAL_TIM_STATE_READY;
1301:Drivers/STM32F3xx_HAL_Driver/Src/stm32f3xx_hal_tim_ex.c ****   
1302:Drivers/STM32F3xx_HAL_Driver/Src/stm32f3xx_hal_tim_ex.c ****   /* Return function status */
1303:Drivers/STM32F3xx_HAL_Driver/Src/stm32f3xx_hal_tim_ex.c ****   return HAL_OK;
1304:Drivers/STM32F3xx_HAL_Driver/Src/stm32f3xx_hal_tim_ex.c **** }
1305:Drivers/STM32F3xx_HAL_Driver/Src/stm32f3xx_hal_tim_ex.c **** 
1306:Drivers/STM32F3xx_HAL_Driver/Src/stm32f3xx_hal_tim_ex.c **** /**
1307:Drivers/STM32F3xx_HAL_Driver/Src/stm32f3xx_hal_tim_ex.c ****   * @}
1308:Drivers/STM32F3xx_HAL_Driver/Src/stm32f3xx_hal_tim_ex.c ****   */
1309:Drivers/STM32F3xx_HAL_Driver/Src/stm32f3xx_hal_tim_ex.c ****   
1310:Drivers/STM32F3xx_HAL_Driver/Src/stm32f3xx_hal_tim_ex.c **** /** @defgroup TIMEx_Exported_Functions_Group4 Timer Complementary One Pulse functions
1311:Drivers/STM32F3xx_HAL_Driver/Src/stm32f3xx_hal_tim_ex.c ****   * @brief    Timer Complementary One Pulse functions
1312:Drivers/STM32F3xx_HAL_Driver/Src/stm32f3xx_hal_tim_ex.c ****   *
1313:Drivers/STM32F3xx_HAL_Driver/Src/stm32f3xx_hal_tim_ex.c **** @verbatim   
1314:Drivers/STM32F3xx_HAL_Driver/Src/stm32f3xx_hal_tim_ex.c ****   ==============================================================================
1315:Drivers/STM32F3xx_HAL_Driver/Src/stm32f3xx_hal_tim_ex.c ****                 ##### Timer Complementary One Pulse functions #####
1316:Drivers/STM32F3xx_HAL_Driver/Src/stm32f3xx_hal_tim_ex.c ****   ==============================================================================  
1317:Drivers/STM32F3xx_HAL_Driver/Src/stm32f3xx_hal_tim_ex.c ****   [..]  
1318:Drivers/STM32F3xx_HAL_Driver/Src/stm32f3xx_hal_tim_ex.c ****     This section provides functions allowing to:
ARM GAS  /tmp/cc1baImv.s 			page 39


1319:Drivers/STM32F3xx_HAL_Driver/Src/stm32f3xx_hal_tim_ex.c ****     (+) Start the Complementary One Pulse generation.
1320:Drivers/STM32F3xx_HAL_Driver/Src/stm32f3xx_hal_tim_ex.c ****     (+) Stop the Complementary One Pulse.
1321:Drivers/STM32F3xx_HAL_Driver/Src/stm32f3xx_hal_tim_ex.c ****     (+) Start the Complementary One Pulse and enable interrupts.
1322:Drivers/STM32F3xx_HAL_Driver/Src/stm32f3xx_hal_tim_ex.c ****     (+) Stop the Complementary One Pulse and disable interrupts.
1323:Drivers/STM32F3xx_HAL_Driver/Src/stm32f3xx_hal_tim_ex.c ****                
1324:Drivers/STM32F3xx_HAL_Driver/Src/stm32f3xx_hal_tim_ex.c **** @endverbatim
1325:Drivers/STM32F3xx_HAL_Driver/Src/stm32f3xx_hal_tim_ex.c ****   * @{
1326:Drivers/STM32F3xx_HAL_Driver/Src/stm32f3xx_hal_tim_ex.c ****   */
1327:Drivers/STM32F3xx_HAL_Driver/Src/stm32f3xx_hal_tim_ex.c **** 
1328:Drivers/STM32F3xx_HAL_Driver/Src/stm32f3xx_hal_tim_ex.c **** /**
1329:Drivers/STM32F3xx_HAL_Driver/Src/stm32f3xx_hal_tim_ex.c ****   * @brief  Starts the TIM One Pulse signal generation on the complemetary 
1330:Drivers/STM32F3xx_HAL_Driver/Src/stm32f3xx_hal_tim_ex.c ****   *         output.
1331:Drivers/STM32F3xx_HAL_Driver/Src/stm32f3xx_hal_tim_ex.c ****   * @param  htim TIM One Pulse handle
1332:Drivers/STM32F3xx_HAL_Driver/Src/stm32f3xx_hal_tim_ex.c ****   * @param  OutputChannel TIM Channel to be enabled
1333:Drivers/STM32F3xx_HAL_Driver/Src/stm32f3xx_hal_tim_ex.c ****   *          This parameter can be one of the following values:
1334:Drivers/STM32F3xx_HAL_Driver/Src/stm32f3xx_hal_tim_ex.c ****   *            @arg TIM_CHANNEL_1: TIM Channel 1 selected
1335:Drivers/STM32F3xx_HAL_Driver/Src/stm32f3xx_hal_tim_ex.c ****   *            @arg TIM_CHANNEL_2: TIM Channel 2 selected
1336:Drivers/STM32F3xx_HAL_Driver/Src/stm32f3xx_hal_tim_ex.c ****   * @retval HAL status
1337:Drivers/STM32F3xx_HAL_Driver/Src/stm32f3xx_hal_tim_ex.c ****   */
1338:Drivers/STM32F3xx_HAL_Driver/Src/stm32f3xx_hal_tim_ex.c **** HAL_StatusTypeDef HAL_TIMEx_OnePulseN_Start(TIM_HandleTypeDef *htim, uint32_t OutputChannel)
1339:Drivers/STM32F3xx_HAL_Driver/Src/stm32f3xx_hal_tim_ex.c ****   {
1340:Drivers/STM32F3xx_HAL_Driver/Src/stm32f3xx_hal_tim_ex.c ****   /* Check the parameters */
1341:Drivers/STM32F3xx_HAL_Driver/Src/stm32f3xx_hal_tim_ex.c ****   assert_param(IS_TIM_CCXN_INSTANCE(htim->Instance, OutputChannel)); 
1342:Drivers/STM32F3xx_HAL_Driver/Src/stm32f3xx_hal_tim_ex.c ****   
1343:Drivers/STM32F3xx_HAL_Driver/Src/stm32f3xx_hal_tim_ex.c ****   /* Enable the complementary One Pulse output */
1344:Drivers/STM32F3xx_HAL_Driver/Src/stm32f3xx_hal_tim_ex.c ****   TIM_CCxNChannelCmd(htim->Instance, OutputChannel, TIM_CCxN_ENABLE); 
1345:Drivers/STM32F3xx_HAL_Driver/Src/stm32f3xx_hal_tim_ex.c ****   
1346:Drivers/STM32F3xx_HAL_Driver/Src/stm32f3xx_hal_tim_ex.c ****   /* Enable the Main Ouput */
1347:Drivers/STM32F3xx_HAL_Driver/Src/stm32f3xx_hal_tim_ex.c ****   __HAL_TIM_MOE_ENABLE(htim);
1348:Drivers/STM32F3xx_HAL_Driver/Src/stm32f3xx_hal_tim_ex.c ****   
1349:Drivers/STM32F3xx_HAL_Driver/Src/stm32f3xx_hal_tim_ex.c ****   /* Return function status */
1350:Drivers/STM32F3xx_HAL_Driver/Src/stm32f3xx_hal_tim_ex.c ****   return HAL_OK;
1351:Drivers/STM32F3xx_HAL_Driver/Src/stm32f3xx_hal_tim_ex.c **** }
1352:Drivers/STM32F3xx_HAL_Driver/Src/stm32f3xx_hal_tim_ex.c **** 
1353:Drivers/STM32F3xx_HAL_Driver/Src/stm32f3xx_hal_tim_ex.c **** /**
1354:Drivers/STM32F3xx_HAL_Driver/Src/stm32f3xx_hal_tim_ex.c ****   * @brief  Stops the TIM One Pulse signal generation on the complementary 
1355:Drivers/STM32F3xx_HAL_Driver/Src/stm32f3xx_hal_tim_ex.c ****   *         output.
1356:Drivers/STM32F3xx_HAL_Driver/Src/stm32f3xx_hal_tim_ex.c ****   * @param  htim TIM One Pulse handle
1357:Drivers/STM32F3xx_HAL_Driver/Src/stm32f3xx_hal_tim_ex.c ****   * @param  OutputChannel TIM Channel to be disabled
1358:Drivers/STM32F3xx_HAL_Driver/Src/stm32f3xx_hal_tim_ex.c ****   *          This parameter can be one of the following values:
1359:Drivers/STM32F3xx_HAL_Driver/Src/stm32f3xx_hal_tim_ex.c ****   *            @arg TIM_CHANNEL_1: TIM Channel 1 selected
1360:Drivers/STM32F3xx_HAL_Driver/Src/stm32f3xx_hal_tim_ex.c ****   *            @arg TIM_CHANNEL_2: TIM Channel 2 selected
1361:Drivers/STM32F3xx_HAL_Driver/Src/stm32f3xx_hal_tim_ex.c ****   * @retval HAL status
1362:Drivers/STM32F3xx_HAL_Driver/Src/stm32f3xx_hal_tim_ex.c ****   */
1363:Drivers/STM32F3xx_HAL_Driver/Src/stm32f3xx_hal_tim_ex.c **** HAL_StatusTypeDef HAL_TIMEx_OnePulseN_Stop(TIM_HandleTypeDef *htim, uint32_t OutputChannel)
1364:Drivers/STM32F3xx_HAL_Driver/Src/stm32f3xx_hal_tim_ex.c **** {
1365:Drivers/STM32F3xx_HAL_Driver/Src/stm32f3xx_hal_tim_ex.c **** 
1366:Drivers/STM32F3xx_HAL_Driver/Src/stm32f3xx_hal_tim_ex.c ****   /* Check the parameters */
1367:Drivers/STM32F3xx_HAL_Driver/Src/stm32f3xx_hal_tim_ex.c ****   assert_param(IS_TIM_CCXN_INSTANCE(htim->Instance, OutputChannel)); 
1368:Drivers/STM32F3xx_HAL_Driver/Src/stm32f3xx_hal_tim_ex.c **** 
1369:Drivers/STM32F3xx_HAL_Driver/Src/stm32f3xx_hal_tim_ex.c ****   /* Disable the complementary One Pulse output */
1370:Drivers/STM32F3xx_HAL_Driver/Src/stm32f3xx_hal_tim_ex.c ****   TIM_CCxNChannelCmd(htim->Instance, OutputChannel, TIM_CCxN_DISABLE);
1371:Drivers/STM32F3xx_HAL_Driver/Src/stm32f3xx_hal_tim_ex.c ****   
1372:Drivers/STM32F3xx_HAL_Driver/Src/stm32f3xx_hal_tim_ex.c ****   /* Disable the Main Ouput */
1373:Drivers/STM32F3xx_HAL_Driver/Src/stm32f3xx_hal_tim_ex.c ****   __HAL_TIM_MOE_DISABLE(htim);
1374:Drivers/STM32F3xx_HAL_Driver/Src/stm32f3xx_hal_tim_ex.c ****   
1375:Drivers/STM32F3xx_HAL_Driver/Src/stm32f3xx_hal_tim_ex.c ****   /* Disable the Peripheral */
ARM GAS  /tmp/cc1baImv.s 			page 40


1376:Drivers/STM32F3xx_HAL_Driver/Src/stm32f3xx_hal_tim_ex.c ****   __HAL_TIM_DISABLE(htim); 
1377:Drivers/STM32F3xx_HAL_Driver/Src/stm32f3xx_hal_tim_ex.c ****    
1378:Drivers/STM32F3xx_HAL_Driver/Src/stm32f3xx_hal_tim_ex.c ****   /* Return function status */
1379:Drivers/STM32F3xx_HAL_Driver/Src/stm32f3xx_hal_tim_ex.c ****   return HAL_OK;
1380:Drivers/STM32F3xx_HAL_Driver/Src/stm32f3xx_hal_tim_ex.c **** }
1381:Drivers/STM32F3xx_HAL_Driver/Src/stm32f3xx_hal_tim_ex.c **** 
1382:Drivers/STM32F3xx_HAL_Driver/Src/stm32f3xx_hal_tim_ex.c **** /**
1383:Drivers/STM32F3xx_HAL_Driver/Src/stm32f3xx_hal_tim_ex.c ****   * @brief  Starts the TIM One Pulse signal generation in interrupt mode on the
1384:Drivers/STM32F3xx_HAL_Driver/Src/stm32f3xx_hal_tim_ex.c ****   *         complementary channel.
1385:Drivers/STM32F3xx_HAL_Driver/Src/stm32f3xx_hal_tim_ex.c ****   * @param  htim TIM One Pulse handle
1386:Drivers/STM32F3xx_HAL_Driver/Src/stm32f3xx_hal_tim_ex.c ****   * @param  OutputChannel TIM Channel to be enabled
1387:Drivers/STM32F3xx_HAL_Driver/Src/stm32f3xx_hal_tim_ex.c ****   *          This parameter can be one of the following values:
1388:Drivers/STM32F3xx_HAL_Driver/Src/stm32f3xx_hal_tim_ex.c ****   *            @arg TIM_CHANNEL_1: TIM Channel 1 selected
1389:Drivers/STM32F3xx_HAL_Driver/Src/stm32f3xx_hal_tim_ex.c ****   *            @arg TIM_CHANNEL_2: TIM Channel 2 selected
1390:Drivers/STM32F3xx_HAL_Driver/Src/stm32f3xx_hal_tim_ex.c ****   * @retval HAL status
1391:Drivers/STM32F3xx_HAL_Driver/Src/stm32f3xx_hal_tim_ex.c ****   */
1392:Drivers/STM32F3xx_HAL_Driver/Src/stm32f3xx_hal_tim_ex.c **** HAL_StatusTypeDef HAL_TIMEx_OnePulseN_Start_IT(TIM_HandleTypeDef *htim, uint32_t OutputChannel)
1393:Drivers/STM32F3xx_HAL_Driver/Src/stm32f3xx_hal_tim_ex.c **** {
1394:Drivers/STM32F3xx_HAL_Driver/Src/stm32f3xx_hal_tim_ex.c ****   /* Check the parameters */
1395:Drivers/STM32F3xx_HAL_Driver/Src/stm32f3xx_hal_tim_ex.c ****   assert_param(IS_TIM_CCXN_INSTANCE(htim->Instance, OutputChannel)); 
1396:Drivers/STM32F3xx_HAL_Driver/Src/stm32f3xx_hal_tim_ex.c **** 
1397:Drivers/STM32F3xx_HAL_Driver/Src/stm32f3xx_hal_tim_ex.c ****   /* Enable the TIM Capture/Compare 1 interrupt */
1398:Drivers/STM32F3xx_HAL_Driver/Src/stm32f3xx_hal_tim_ex.c ****   __HAL_TIM_ENABLE_IT(htim, TIM_IT_CC1);
1399:Drivers/STM32F3xx_HAL_Driver/Src/stm32f3xx_hal_tim_ex.c ****   
1400:Drivers/STM32F3xx_HAL_Driver/Src/stm32f3xx_hal_tim_ex.c ****   /* Enable the TIM Capture/Compare 2 interrupt */
1401:Drivers/STM32F3xx_HAL_Driver/Src/stm32f3xx_hal_tim_ex.c ****   __HAL_TIM_ENABLE_IT(htim, TIM_IT_CC2);
1402:Drivers/STM32F3xx_HAL_Driver/Src/stm32f3xx_hal_tim_ex.c ****   
1403:Drivers/STM32F3xx_HAL_Driver/Src/stm32f3xx_hal_tim_ex.c ****   /* Enable the complementary One Pulse output */
1404:Drivers/STM32F3xx_HAL_Driver/Src/stm32f3xx_hal_tim_ex.c ****   TIM_CCxNChannelCmd(htim->Instance, OutputChannel, TIM_CCxN_ENABLE); 
1405:Drivers/STM32F3xx_HAL_Driver/Src/stm32f3xx_hal_tim_ex.c ****   
1406:Drivers/STM32F3xx_HAL_Driver/Src/stm32f3xx_hal_tim_ex.c ****   /* Enable the Main Ouput */
1407:Drivers/STM32F3xx_HAL_Driver/Src/stm32f3xx_hal_tim_ex.c ****   __HAL_TIM_MOE_ENABLE(htim);
1408:Drivers/STM32F3xx_HAL_Driver/Src/stm32f3xx_hal_tim_ex.c ****   
1409:Drivers/STM32F3xx_HAL_Driver/Src/stm32f3xx_hal_tim_ex.c ****   /* Return function status */
1410:Drivers/STM32F3xx_HAL_Driver/Src/stm32f3xx_hal_tim_ex.c ****   return HAL_OK;
1411:Drivers/STM32F3xx_HAL_Driver/Src/stm32f3xx_hal_tim_ex.c ****   } 
1412:Drivers/STM32F3xx_HAL_Driver/Src/stm32f3xx_hal_tim_ex.c ****   
1413:Drivers/STM32F3xx_HAL_Driver/Src/stm32f3xx_hal_tim_ex.c **** /**
1414:Drivers/STM32F3xx_HAL_Driver/Src/stm32f3xx_hal_tim_ex.c ****   * @brief  Stops the TIM One Pulse signal generation in interrupt mode on the
1415:Drivers/STM32F3xx_HAL_Driver/Src/stm32f3xx_hal_tim_ex.c ****   *         complementary channel.
1416:Drivers/STM32F3xx_HAL_Driver/Src/stm32f3xx_hal_tim_ex.c ****   * @param  htim TIM One Pulse handle
1417:Drivers/STM32F3xx_HAL_Driver/Src/stm32f3xx_hal_tim_ex.c ****   * @param  OutputChannel TIM Channel to be disabled
1418:Drivers/STM32F3xx_HAL_Driver/Src/stm32f3xx_hal_tim_ex.c ****   *          This parameter can be one of the following values:
1419:Drivers/STM32F3xx_HAL_Driver/Src/stm32f3xx_hal_tim_ex.c ****   *            @arg TIM_CHANNEL_1: TIM Channel 1 selected
1420:Drivers/STM32F3xx_HAL_Driver/Src/stm32f3xx_hal_tim_ex.c ****   *            @arg TIM_CHANNEL_2: TIM Channel 2 selected
1421:Drivers/STM32F3xx_HAL_Driver/Src/stm32f3xx_hal_tim_ex.c ****   * @retval HAL status
1422:Drivers/STM32F3xx_HAL_Driver/Src/stm32f3xx_hal_tim_ex.c ****   */
1423:Drivers/STM32F3xx_HAL_Driver/Src/stm32f3xx_hal_tim_ex.c **** HAL_StatusTypeDef HAL_TIMEx_OnePulseN_Stop_IT(TIM_HandleTypeDef *htim, uint32_t OutputChannel)
1424:Drivers/STM32F3xx_HAL_Driver/Src/stm32f3xx_hal_tim_ex.c **** {
1425:Drivers/STM32F3xx_HAL_Driver/Src/stm32f3xx_hal_tim_ex.c ****   /* Check the parameters */
1426:Drivers/STM32F3xx_HAL_Driver/Src/stm32f3xx_hal_tim_ex.c ****   assert_param(IS_TIM_CCXN_INSTANCE(htim->Instance, OutputChannel)); 
1427:Drivers/STM32F3xx_HAL_Driver/Src/stm32f3xx_hal_tim_ex.c **** 
1428:Drivers/STM32F3xx_HAL_Driver/Src/stm32f3xx_hal_tim_ex.c ****   /* Disable the TIM Capture/Compare 1 interrupt */
1429:Drivers/STM32F3xx_HAL_Driver/Src/stm32f3xx_hal_tim_ex.c ****   __HAL_TIM_DISABLE_IT(htim, TIM_IT_CC1);
1430:Drivers/STM32F3xx_HAL_Driver/Src/stm32f3xx_hal_tim_ex.c ****   
1431:Drivers/STM32F3xx_HAL_Driver/Src/stm32f3xx_hal_tim_ex.c ****   /* Disable the TIM Capture/Compare 2 interrupt */
1432:Drivers/STM32F3xx_HAL_Driver/Src/stm32f3xx_hal_tim_ex.c ****   __HAL_TIM_DISABLE_IT(htim, TIM_IT_CC2);
ARM GAS  /tmp/cc1baImv.s 			page 41


1433:Drivers/STM32F3xx_HAL_Driver/Src/stm32f3xx_hal_tim_ex.c ****   
1434:Drivers/STM32F3xx_HAL_Driver/Src/stm32f3xx_hal_tim_ex.c ****   /* Disable the complementary One Pulse output */
1435:Drivers/STM32F3xx_HAL_Driver/Src/stm32f3xx_hal_tim_ex.c ****   TIM_CCxNChannelCmd(htim->Instance, OutputChannel, TIM_CCxN_DISABLE);
1436:Drivers/STM32F3xx_HAL_Driver/Src/stm32f3xx_hal_tim_ex.c ****   
1437:Drivers/STM32F3xx_HAL_Driver/Src/stm32f3xx_hal_tim_ex.c ****   /* Disable the Main Ouput */
1438:Drivers/STM32F3xx_HAL_Driver/Src/stm32f3xx_hal_tim_ex.c ****   __HAL_TIM_MOE_DISABLE(htim);
1439:Drivers/STM32F3xx_HAL_Driver/Src/stm32f3xx_hal_tim_ex.c ****   
1440:Drivers/STM32F3xx_HAL_Driver/Src/stm32f3xx_hal_tim_ex.c ****   /* Disable the Peripheral */
1441:Drivers/STM32F3xx_HAL_Driver/Src/stm32f3xx_hal_tim_ex.c ****   __HAL_TIM_DISABLE(htim);  
1442:Drivers/STM32F3xx_HAL_Driver/Src/stm32f3xx_hal_tim_ex.c ****   
1443:Drivers/STM32F3xx_HAL_Driver/Src/stm32f3xx_hal_tim_ex.c ****   /* Return function status */
1444:Drivers/STM32F3xx_HAL_Driver/Src/stm32f3xx_hal_tim_ex.c ****   return HAL_OK;
1445:Drivers/STM32F3xx_HAL_Driver/Src/stm32f3xx_hal_tim_ex.c **** }
1446:Drivers/STM32F3xx_HAL_Driver/Src/stm32f3xx_hal_tim_ex.c **** 
1447:Drivers/STM32F3xx_HAL_Driver/Src/stm32f3xx_hal_tim_ex.c **** /**
1448:Drivers/STM32F3xx_HAL_Driver/Src/stm32f3xx_hal_tim_ex.c ****   * @}
1449:Drivers/STM32F3xx_HAL_Driver/Src/stm32f3xx_hal_tim_ex.c ****   */
1450:Drivers/STM32F3xx_HAL_Driver/Src/stm32f3xx_hal_tim_ex.c **** /** @defgroup TIMEx_Exported_Functions_Group5 Peripheral Control functions
1451:Drivers/STM32F3xx_HAL_Driver/Src/stm32f3xx_hal_tim_ex.c ****   * @brief    Peripheral Control functions
1452:Drivers/STM32F3xx_HAL_Driver/Src/stm32f3xx_hal_tim_ex.c ****   *
1453:Drivers/STM32F3xx_HAL_Driver/Src/stm32f3xx_hal_tim_ex.c **** @verbatim   
1454:Drivers/STM32F3xx_HAL_Driver/Src/stm32f3xx_hal_tim_ex.c ****   ==============================================================================
1455:Drivers/STM32F3xx_HAL_Driver/Src/stm32f3xx_hal_tim_ex.c ****                     ##### Peripheral Control functions #####
1456:Drivers/STM32F3xx_HAL_Driver/Src/stm32f3xx_hal_tim_ex.c ****   ==============================================================================  
1457:Drivers/STM32F3xx_HAL_Driver/Src/stm32f3xx_hal_tim_ex.c ****   [..]  
1458:Drivers/STM32F3xx_HAL_Driver/Src/stm32f3xx_hal_tim_ex.c ****     This section provides functions allowing to:
1459:Drivers/STM32F3xx_HAL_Driver/Src/stm32f3xx_hal_tim_ex.c ****     (+) Configure the commutation event in case of use of the Hall sensor interface.
1460:Drivers/STM32F3xx_HAL_Driver/Src/stm32f3xx_hal_tim_ex.c ****       (+) Configure Output channels for OC and PWM mode. 
1461:Drivers/STM32F3xx_HAL_Driver/Src/stm32f3xx_hal_tim_ex.c **** 
1462:Drivers/STM32F3xx_HAL_Driver/Src/stm32f3xx_hal_tim_ex.c ****       (+) Configure Complementary channels, break features and dead time.
1463:Drivers/STM32F3xx_HAL_Driver/Src/stm32f3xx_hal_tim_ex.c ****       (+) Configure Master synchronization.
1464:Drivers/STM32F3xx_HAL_Driver/Src/stm32f3xx_hal_tim_ex.c ****       (+) Configure timer remapping capabilities.
1465:Drivers/STM32F3xx_HAL_Driver/Src/stm32f3xx_hal_tim_ex.c ****       (+) Enable or disable channel grouping
1466:Drivers/STM32F3xx_HAL_Driver/Src/stm32f3xx_hal_tim_ex.c ****       
1467:Drivers/STM32F3xx_HAL_Driver/Src/stm32f3xx_hal_tim_ex.c **** @endverbatim
1468:Drivers/STM32F3xx_HAL_Driver/Src/stm32f3xx_hal_tim_ex.c ****   * @{
1469:Drivers/STM32F3xx_HAL_Driver/Src/stm32f3xx_hal_tim_ex.c ****   */
1470:Drivers/STM32F3xx_HAL_Driver/Src/stm32f3xx_hal_tim_ex.c **** #if defined(STM32F302xE) || defined(STM32F303xE) || defined(STM32F398xx) || \
1471:Drivers/STM32F3xx_HAL_Driver/Src/stm32f3xx_hal_tim_ex.c ****     defined(STM32F302xC) || defined(STM32F303xC) || defined(STM32F358xx) || \
1472:Drivers/STM32F3xx_HAL_Driver/Src/stm32f3xx_hal_tim_ex.c ****     defined(STM32F303x8) || defined(STM32F334x8) || defined(STM32F328xx) || \
1473:Drivers/STM32F3xx_HAL_Driver/Src/stm32f3xx_hal_tim_ex.c ****     defined(STM32F301x8) || defined(STM32F302x8) || defined(STM32F318xx)
1474:Drivers/STM32F3xx_HAL_Driver/Src/stm32f3xx_hal_tim_ex.c **** /**
1475:Drivers/STM32F3xx_HAL_Driver/Src/stm32f3xx_hal_tim_ex.c ****   * @brief  Configure the TIM commutation event sequence.
1476:Drivers/STM32F3xx_HAL_Driver/Src/stm32f3xx_hal_tim_ex.c ****   * @note this function is mandatory to use the commutation event in order to 
1477:Drivers/STM32F3xx_HAL_Driver/Src/stm32f3xx_hal_tim_ex.c ****   *        update the configuration at each commutation detection on the TRGI input of the Timer,
1478:Drivers/STM32F3xx_HAL_Driver/Src/stm32f3xx_hal_tim_ex.c ****   *        the typical use of this feature is with the use of another Timer(interface Timer) 
1479:Drivers/STM32F3xx_HAL_Driver/Src/stm32f3xx_hal_tim_ex.c ****   *        configured in Hall sensor interface, this interface Timer will generate the 
1480:Drivers/STM32F3xx_HAL_Driver/Src/stm32f3xx_hal_tim_ex.c ****   *        commutation at its TRGO output (connected to Timer used in this function) each time 
1481:Drivers/STM32F3xx_HAL_Driver/Src/stm32f3xx_hal_tim_ex.c ****   *        the TI1 of the Interface Timer detect a commutation at its input TI1.
1482:Drivers/STM32F3xx_HAL_Driver/Src/stm32f3xx_hal_tim_ex.c ****   * @param  htim TIM handle
1483:Drivers/STM32F3xx_HAL_Driver/Src/stm32f3xx_hal_tim_ex.c ****   * @param  InputTrigger the Internal trigger corresponding to the Timer Interfacing with the Hall 
1484:Drivers/STM32F3xx_HAL_Driver/Src/stm32f3xx_hal_tim_ex.c ****   *          This parameter can be one of the following values:
1485:Drivers/STM32F3xx_HAL_Driver/Src/stm32f3xx_hal_tim_ex.c ****   *            @arg TIM_TS_ITR0: Internal trigger 0 selected
1486:Drivers/STM32F3xx_HAL_Driver/Src/stm32f3xx_hal_tim_ex.c ****   *            @arg TIM_TS_ITR1: Internal trigger 1 selected
1487:Drivers/STM32F3xx_HAL_Driver/Src/stm32f3xx_hal_tim_ex.c ****   *            @arg TIM_TS_ITR2: Internal trigger 2 selected
1488:Drivers/STM32F3xx_HAL_Driver/Src/stm32f3xx_hal_tim_ex.c ****   *            @arg TIM_TS_ITR3: Internal trigger 3 selected
1489:Drivers/STM32F3xx_HAL_Driver/Src/stm32f3xx_hal_tim_ex.c ****   *            @arg TIM_TS_NONE: No trigger is needed 
ARM GAS  /tmp/cc1baImv.s 			page 42


1490:Drivers/STM32F3xx_HAL_Driver/Src/stm32f3xx_hal_tim_ex.c ****   * @param  CommutationSource the Commutation Event source
1491:Drivers/STM32F3xx_HAL_Driver/Src/stm32f3xx_hal_tim_ex.c ****   *          This parameter can be one of the following values:
1492:Drivers/STM32F3xx_HAL_Driver/Src/stm32f3xx_hal_tim_ex.c ****   *            @arg TIM_COMMUTATION_TRGI: Commutation source is the TRGI of the Interface Timer
1493:Drivers/STM32F3xx_HAL_Driver/Src/stm32f3xx_hal_tim_ex.c ****   *            @arg TIM_COMMUTATION_SOFTWARE:  Commutation source is set by software using the COMG
1494:Drivers/STM32F3xx_HAL_Driver/Src/stm32f3xx_hal_tim_ex.c ****   * @retval HAL status
1495:Drivers/STM32F3xx_HAL_Driver/Src/stm32f3xx_hal_tim_ex.c ****   */
1496:Drivers/STM32F3xx_HAL_Driver/Src/stm32f3xx_hal_tim_ex.c **** HAL_StatusTypeDef HAL_TIMEx_ConfigCommutationEvent(TIM_HandleTypeDef *htim, uint32_t  InputTrigger,
1497:Drivers/STM32F3xx_HAL_Driver/Src/stm32f3xx_hal_tim_ex.c **** {
1498:Drivers/STM32F3xx_HAL_Driver/Src/stm32f3xx_hal_tim_ex.c ****   /* Check the parameters */
1499:Drivers/STM32F3xx_HAL_Driver/Src/stm32f3xx_hal_tim_ex.c ****   assert_param(IS_TIM_COMMUTATION_EVENT_INSTANCE(htim->Instance));
1500:Drivers/STM32F3xx_HAL_Driver/Src/stm32f3xx_hal_tim_ex.c ****   assert_param(IS_TIM_INTERNAL_TRIGGEREVENT_SELECTION(InputTrigger));
1501:Drivers/STM32F3xx_HAL_Driver/Src/stm32f3xx_hal_tim_ex.c ****   
1502:Drivers/STM32F3xx_HAL_Driver/Src/stm32f3xx_hal_tim_ex.c ****   __HAL_LOCK(htim);
1503:Drivers/STM32F3xx_HAL_Driver/Src/stm32f3xx_hal_tim_ex.c ****   
1504:Drivers/STM32F3xx_HAL_Driver/Src/stm32f3xx_hal_tim_ex.c ****   if ((InputTrigger == TIM_TS_ITR0) || (InputTrigger == TIM_TS_ITR1) ||
1505:Drivers/STM32F3xx_HAL_Driver/Src/stm32f3xx_hal_tim_ex.c ****       (InputTrigger == TIM_TS_ITR2) || (InputTrigger == TIM_TS_ITR3))
1506:Drivers/STM32F3xx_HAL_Driver/Src/stm32f3xx_hal_tim_ex.c ****   {    
1507:Drivers/STM32F3xx_HAL_Driver/Src/stm32f3xx_hal_tim_ex.c ****     /* Select the Input trigger */
1508:Drivers/STM32F3xx_HAL_Driver/Src/stm32f3xx_hal_tim_ex.c ****     htim->Instance->SMCR &= ~TIM_SMCR_TS;
1509:Drivers/STM32F3xx_HAL_Driver/Src/stm32f3xx_hal_tim_ex.c ****     htim->Instance->SMCR |= InputTrigger;
1510:Drivers/STM32F3xx_HAL_Driver/Src/stm32f3xx_hal_tim_ex.c ****   }
1511:Drivers/STM32F3xx_HAL_Driver/Src/stm32f3xx_hal_tim_ex.c ****     
1512:Drivers/STM32F3xx_HAL_Driver/Src/stm32f3xx_hal_tim_ex.c ****   /* Select the Capture Compare preload feature */
1513:Drivers/STM32F3xx_HAL_Driver/Src/stm32f3xx_hal_tim_ex.c ****   htim->Instance->CR2 |= TIM_CR2_CCPC;
1514:Drivers/STM32F3xx_HAL_Driver/Src/stm32f3xx_hal_tim_ex.c ****   /* Select the Commutation event source */
1515:Drivers/STM32F3xx_HAL_Driver/Src/stm32f3xx_hal_tim_ex.c ****   htim->Instance->CR2 &= ~TIM_CR2_CCUS;
1516:Drivers/STM32F3xx_HAL_Driver/Src/stm32f3xx_hal_tim_ex.c ****   htim->Instance->CR2 |= CommutationSource;
1517:Drivers/STM32F3xx_HAL_Driver/Src/stm32f3xx_hal_tim_ex.c ****     
1518:Drivers/STM32F3xx_HAL_Driver/Src/stm32f3xx_hal_tim_ex.c ****   __HAL_UNLOCK(htim);
1519:Drivers/STM32F3xx_HAL_Driver/Src/stm32f3xx_hal_tim_ex.c ****   
1520:Drivers/STM32F3xx_HAL_Driver/Src/stm32f3xx_hal_tim_ex.c ****   return HAL_OK;
1521:Drivers/STM32F3xx_HAL_Driver/Src/stm32f3xx_hal_tim_ex.c **** }
1522:Drivers/STM32F3xx_HAL_Driver/Src/stm32f3xx_hal_tim_ex.c **** 
1523:Drivers/STM32F3xx_HAL_Driver/Src/stm32f3xx_hal_tim_ex.c **** /**
1524:Drivers/STM32F3xx_HAL_Driver/Src/stm32f3xx_hal_tim_ex.c ****   * @brief  Configure the TIM commutation event sequence with interrupt.
1525:Drivers/STM32F3xx_HAL_Driver/Src/stm32f3xx_hal_tim_ex.c ****   * @note this function is mandatory to use the commutation event in order to 
1526:Drivers/STM32F3xx_HAL_Driver/Src/stm32f3xx_hal_tim_ex.c ****   *        update the configuration at each commutation detection on the TRGI input of the Timer,
1527:Drivers/STM32F3xx_HAL_Driver/Src/stm32f3xx_hal_tim_ex.c ****   *        the typical use of this feature is with the use of another Timer(interface Timer) 
1528:Drivers/STM32F3xx_HAL_Driver/Src/stm32f3xx_hal_tim_ex.c ****   *        configured in Hall sensor interface, this interface Timer will generate the 
1529:Drivers/STM32F3xx_HAL_Driver/Src/stm32f3xx_hal_tim_ex.c ****   *        commutation at its TRGO output (connected to Timer used in this function) each time 
1530:Drivers/STM32F3xx_HAL_Driver/Src/stm32f3xx_hal_tim_ex.c ****   *        the TI1 of the Interface Timer detect a commutation at its input TI1.
1531:Drivers/STM32F3xx_HAL_Driver/Src/stm32f3xx_hal_tim_ex.c ****   * @param  htim TIM handle
1532:Drivers/STM32F3xx_HAL_Driver/Src/stm32f3xx_hal_tim_ex.c ****   * @param  InputTrigger the Internal trigger corresponding to the Timer Interfacing with the Hall 
1533:Drivers/STM32F3xx_HAL_Driver/Src/stm32f3xx_hal_tim_ex.c ****   *          This parameter can be one of the following values:
1534:Drivers/STM32F3xx_HAL_Driver/Src/stm32f3xx_hal_tim_ex.c ****   *            @arg TIM_TS_ITR0: Internal trigger 0 selected
1535:Drivers/STM32F3xx_HAL_Driver/Src/stm32f3xx_hal_tim_ex.c ****   *            @arg TIM_TS_ITR1: Internal trigger 1 selected
1536:Drivers/STM32F3xx_HAL_Driver/Src/stm32f3xx_hal_tim_ex.c ****   *            @arg TIM_TS_ITR2: Internal trigger 2 selected
1537:Drivers/STM32F3xx_HAL_Driver/Src/stm32f3xx_hal_tim_ex.c ****   *            @arg TIM_TS_ITR3: Internal trigger 3 selected
1538:Drivers/STM32F3xx_HAL_Driver/Src/stm32f3xx_hal_tim_ex.c ****   *            @arg TIM_TS_NONE: No trigger is needed 
1539:Drivers/STM32F3xx_HAL_Driver/Src/stm32f3xx_hal_tim_ex.c ****   * @param  CommutationSource the Commutation Event source
1540:Drivers/STM32F3xx_HAL_Driver/Src/stm32f3xx_hal_tim_ex.c ****   *          This parameter can be one of the following values:
1541:Drivers/STM32F3xx_HAL_Driver/Src/stm32f3xx_hal_tim_ex.c ****   *            @arg TIM_COMMUTATION_TRGI: Commutation source is the TRGI of the Interface Timer
1542:Drivers/STM32F3xx_HAL_Driver/Src/stm32f3xx_hal_tim_ex.c ****   *            @arg TIM_COMMUTATION_SOFTWARE:  Commutation source is set by software using the COMG
1543:Drivers/STM32F3xx_HAL_Driver/Src/stm32f3xx_hal_tim_ex.c ****   * @retval HAL status
1544:Drivers/STM32F3xx_HAL_Driver/Src/stm32f3xx_hal_tim_ex.c ****   */
1545:Drivers/STM32F3xx_HAL_Driver/Src/stm32f3xx_hal_tim_ex.c **** HAL_StatusTypeDef HAL_TIMEx_ConfigCommutationEvent_IT(TIM_HandleTypeDef *htim, uint32_t  InputTrigg
1546:Drivers/STM32F3xx_HAL_Driver/Src/stm32f3xx_hal_tim_ex.c **** {
ARM GAS  /tmp/cc1baImv.s 			page 43


1547:Drivers/STM32F3xx_HAL_Driver/Src/stm32f3xx_hal_tim_ex.c ****   /* Check the parameters */
1548:Drivers/STM32F3xx_HAL_Driver/Src/stm32f3xx_hal_tim_ex.c ****   assert_param(IS_TIM_COMMUTATION_EVENT_INSTANCE(htim->Instance));
1549:Drivers/STM32F3xx_HAL_Driver/Src/stm32f3xx_hal_tim_ex.c ****   assert_param(IS_TIM_INTERNAL_TRIGGEREVENT_SELECTION(InputTrigger));
1550:Drivers/STM32F3xx_HAL_Driver/Src/stm32f3xx_hal_tim_ex.c ****   
1551:Drivers/STM32F3xx_HAL_Driver/Src/stm32f3xx_hal_tim_ex.c ****   __HAL_LOCK(htim);
1552:Drivers/STM32F3xx_HAL_Driver/Src/stm32f3xx_hal_tim_ex.c ****   
1553:Drivers/STM32F3xx_HAL_Driver/Src/stm32f3xx_hal_tim_ex.c ****   if ((InputTrigger == TIM_TS_ITR0) || (InputTrigger == TIM_TS_ITR1) ||
1554:Drivers/STM32F3xx_HAL_Driver/Src/stm32f3xx_hal_tim_ex.c ****       (InputTrigger == TIM_TS_ITR2) || (InputTrigger == TIM_TS_ITR3))
1555:Drivers/STM32F3xx_HAL_Driver/Src/stm32f3xx_hal_tim_ex.c ****   {    
1556:Drivers/STM32F3xx_HAL_Driver/Src/stm32f3xx_hal_tim_ex.c ****     /* Select the Input trigger */
1557:Drivers/STM32F3xx_HAL_Driver/Src/stm32f3xx_hal_tim_ex.c ****     htim->Instance->SMCR &= ~TIM_SMCR_TS;
1558:Drivers/STM32F3xx_HAL_Driver/Src/stm32f3xx_hal_tim_ex.c ****     htim->Instance->SMCR |= InputTrigger;
1559:Drivers/STM32F3xx_HAL_Driver/Src/stm32f3xx_hal_tim_ex.c ****   }
1560:Drivers/STM32F3xx_HAL_Driver/Src/stm32f3xx_hal_tim_ex.c ****   
1561:Drivers/STM32F3xx_HAL_Driver/Src/stm32f3xx_hal_tim_ex.c ****   /* Select the Capture Compare preload feature */
1562:Drivers/STM32F3xx_HAL_Driver/Src/stm32f3xx_hal_tim_ex.c ****   htim->Instance->CR2 |= TIM_CR2_CCPC;
1563:Drivers/STM32F3xx_HAL_Driver/Src/stm32f3xx_hal_tim_ex.c ****   /* Select the Commutation event source */
1564:Drivers/STM32F3xx_HAL_Driver/Src/stm32f3xx_hal_tim_ex.c ****   htim->Instance->CR2 &= ~TIM_CR2_CCUS;
1565:Drivers/STM32F3xx_HAL_Driver/Src/stm32f3xx_hal_tim_ex.c ****   htim->Instance->CR2 |= CommutationSource;
1566:Drivers/STM32F3xx_HAL_Driver/Src/stm32f3xx_hal_tim_ex.c ****     
1567:Drivers/STM32F3xx_HAL_Driver/Src/stm32f3xx_hal_tim_ex.c ****   /* Enable the Commutation Interrupt Request */
1568:Drivers/STM32F3xx_HAL_Driver/Src/stm32f3xx_hal_tim_ex.c ****   __HAL_TIM_ENABLE_IT(htim, TIM_IT_COM);
1569:Drivers/STM32F3xx_HAL_Driver/Src/stm32f3xx_hal_tim_ex.c **** 
1570:Drivers/STM32F3xx_HAL_Driver/Src/stm32f3xx_hal_tim_ex.c ****   __HAL_UNLOCK(htim);
1571:Drivers/STM32F3xx_HAL_Driver/Src/stm32f3xx_hal_tim_ex.c ****   
1572:Drivers/STM32F3xx_HAL_Driver/Src/stm32f3xx_hal_tim_ex.c ****   return HAL_OK;
1573:Drivers/STM32F3xx_HAL_Driver/Src/stm32f3xx_hal_tim_ex.c **** }
1574:Drivers/STM32F3xx_HAL_Driver/Src/stm32f3xx_hal_tim_ex.c **** 
1575:Drivers/STM32F3xx_HAL_Driver/Src/stm32f3xx_hal_tim_ex.c **** /**
1576:Drivers/STM32F3xx_HAL_Driver/Src/stm32f3xx_hal_tim_ex.c ****   * @brief  Configure the TIM commutation event sequence with DMA.
1577:Drivers/STM32F3xx_HAL_Driver/Src/stm32f3xx_hal_tim_ex.c ****   * @note this function is mandatory to use the commutation event in order to 
1578:Drivers/STM32F3xx_HAL_Driver/Src/stm32f3xx_hal_tim_ex.c ****   *        update the configuration at each commutation detection on the TRGI input of the Timer,
1579:Drivers/STM32F3xx_HAL_Driver/Src/stm32f3xx_hal_tim_ex.c ****   *        the typical use of this feature is with the use of another Timer(interface Timer) 
1580:Drivers/STM32F3xx_HAL_Driver/Src/stm32f3xx_hal_tim_ex.c ****   *        configured in Hall sensor interface, this interface Timer will generate the 
1581:Drivers/STM32F3xx_HAL_Driver/Src/stm32f3xx_hal_tim_ex.c ****   *        commutation at its TRGO output (connected to Timer used in this function) each time 
1582:Drivers/STM32F3xx_HAL_Driver/Src/stm32f3xx_hal_tim_ex.c ****   *        the TI1 of the Interface Timer detect a commutation at its input TI1.
1583:Drivers/STM32F3xx_HAL_Driver/Src/stm32f3xx_hal_tim_ex.c ****   * @note The user should configure the DMA in his own software, in This function only the COMDE bi
1584:Drivers/STM32F3xx_HAL_Driver/Src/stm32f3xx_hal_tim_ex.c ****   * @param  htim TIM handle
1585:Drivers/STM32F3xx_HAL_Driver/Src/stm32f3xx_hal_tim_ex.c ****   * @param  InputTrigger the Internal trigger corresponding to the Timer Interfacing with the Hall 
1586:Drivers/STM32F3xx_HAL_Driver/Src/stm32f3xx_hal_tim_ex.c ****   *          This parameter can be one of the following values:
1587:Drivers/STM32F3xx_HAL_Driver/Src/stm32f3xx_hal_tim_ex.c ****   *            @arg TIM_TS_ITR0: Internal trigger 0 selected
1588:Drivers/STM32F3xx_HAL_Driver/Src/stm32f3xx_hal_tim_ex.c ****   *            @arg TIM_TS_ITR1: Internal trigger 1 selected
1589:Drivers/STM32F3xx_HAL_Driver/Src/stm32f3xx_hal_tim_ex.c ****   *            @arg TIM_TS_ITR2: Internal trigger 2 selected
1590:Drivers/STM32F3xx_HAL_Driver/Src/stm32f3xx_hal_tim_ex.c ****   *            @arg TIM_TS_ITR3: Internal trigger 3 selected
1591:Drivers/STM32F3xx_HAL_Driver/Src/stm32f3xx_hal_tim_ex.c ****   *            @arg TIM_TS_NONE: No trigger is needed 
1592:Drivers/STM32F3xx_HAL_Driver/Src/stm32f3xx_hal_tim_ex.c ****   * @param  CommutationSource the Commutation Event source
1593:Drivers/STM32F3xx_HAL_Driver/Src/stm32f3xx_hal_tim_ex.c ****   *          This parameter can be one of the following values:
1594:Drivers/STM32F3xx_HAL_Driver/Src/stm32f3xx_hal_tim_ex.c ****   *            @arg TIM_COMMUTATION_TRGI: Commutation source is the TRGI of the Interface Timer
1595:Drivers/STM32F3xx_HAL_Driver/Src/stm32f3xx_hal_tim_ex.c ****   *            @arg TIM_COMMUTATION_SOFTWARE:  Commutation source is set by software using the COMG
1596:Drivers/STM32F3xx_HAL_Driver/Src/stm32f3xx_hal_tim_ex.c ****   * @retval HAL status
1597:Drivers/STM32F3xx_HAL_Driver/Src/stm32f3xx_hal_tim_ex.c ****   */
1598:Drivers/STM32F3xx_HAL_Driver/Src/stm32f3xx_hal_tim_ex.c **** HAL_StatusTypeDef HAL_TIMEx_ConfigCommutationEvent_DMA(TIM_HandleTypeDef *htim, uint32_t  InputTrig
1599:Drivers/STM32F3xx_HAL_Driver/Src/stm32f3xx_hal_tim_ex.c **** {
1600:Drivers/STM32F3xx_HAL_Driver/Src/stm32f3xx_hal_tim_ex.c ****   /* Check the parameters */
1601:Drivers/STM32F3xx_HAL_Driver/Src/stm32f3xx_hal_tim_ex.c ****   assert_param(IS_TIM_COMMUTATION_EVENT_INSTANCE(htim->Instance));
1602:Drivers/STM32F3xx_HAL_Driver/Src/stm32f3xx_hal_tim_ex.c ****   assert_param(IS_TIM_INTERNAL_TRIGGEREVENT_SELECTION(InputTrigger));
1603:Drivers/STM32F3xx_HAL_Driver/Src/stm32f3xx_hal_tim_ex.c ****   
ARM GAS  /tmp/cc1baImv.s 			page 44


1604:Drivers/STM32F3xx_HAL_Driver/Src/stm32f3xx_hal_tim_ex.c ****   __HAL_LOCK(htim);
1605:Drivers/STM32F3xx_HAL_Driver/Src/stm32f3xx_hal_tim_ex.c ****   
1606:Drivers/STM32F3xx_HAL_Driver/Src/stm32f3xx_hal_tim_ex.c ****   if ((InputTrigger == TIM_TS_ITR0) || (InputTrigger == TIM_TS_ITR1) ||
1607:Drivers/STM32F3xx_HAL_Driver/Src/stm32f3xx_hal_tim_ex.c ****       (InputTrigger == TIM_TS_ITR2) || (InputTrigger == TIM_TS_ITR3))
1608:Drivers/STM32F3xx_HAL_Driver/Src/stm32f3xx_hal_tim_ex.c ****   {    
1609:Drivers/STM32F3xx_HAL_Driver/Src/stm32f3xx_hal_tim_ex.c ****     /* Select the Input trigger */
1610:Drivers/STM32F3xx_HAL_Driver/Src/stm32f3xx_hal_tim_ex.c ****     htim->Instance->SMCR &= ~TIM_SMCR_TS;
1611:Drivers/STM32F3xx_HAL_Driver/Src/stm32f3xx_hal_tim_ex.c ****     htim->Instance->SMCR |= InputTrigger;
1612:Drivers/STM32F3xx_HAL_Driver/Src/stm32f3xx_hal_tim_ex.c ****   }
1613:Drivers/STM32F3xx_HAL_Driver/Src/stm32f3xx_hal_tim_ex.c ****   
1614:Drivers/STM32F3xx_HAL_Driver/Src/stm32f3xx_hal_tim_ex.c ****   /* Select the Capture Compare preload feature */
1615:Drivers/STM32F3xx_HAL_Driver/Src/stm32f3xx_hal_tim_ex.c ****   htim->Instance->CR2 |= TIM_CR2_CCPC;
1616:Drivers/STM32F3xx_HAL_Driver/Src/stm32f3xx_hal_tim_ex.c ****   /* Select the Commutation event source */
1617:Drivers/STM32F3xx_HAL_Driver/Src/stm32f3xx_hal_tim_ex.c ****   htim->Instance->CR2 &= ~TIM_CR2_CCUS;
1618:Drivers/STM32F3xx_HAL_Driver/Src/stm32f3xx_hal_tim_ex.c ****   htim->Instance->CR2 |= CommutationSource;
1619:Drivers/STM32F3xx_HAL_Driver/Src/stm32f3xx_hal_tim_ex.c ****   
1620:Drivers/STM32F3xx_HAL_Driver/Src/stm32f3xx_hal_tim_ex.c ****   /* Enable the Commutation DMA Request */
1621:Drivers/STM32F3xx_HAL_Driver/Src/stm32f3xx_hal_tim_ex.c ****   /* Set the DMA Commutation Callback */
1622:Drivers/STM32F3xx_HAL_Driver/Src/stm32f3xx_hal_tim_ex.c ****   htim->hdma[TIM_DMA_ID_COMMUTATION]->XferCpltCallback = TIMEx_DMACommutationCplt;     
1623:Drivers/STM32F3xx_HAL_Driver/Src/stm32f3xx_hal_tim_ex.c ****   /* Set the DMA error callback */
1624:Drivers/STM32F3xx_HAL_Driver/Src/stm32f3xx_hal_tim_ex.c ****   htim->hdma[TIM_DMA_ID_COMMUTATION]->XferErrorCallback = TIM_DMAError;
1625:Drivers/STM32F3xx_HAL_Driver/Src/stm32f3xx_hal_tim_ex.c ****   
1626:Drivers/STM32F3xx_HAL_Driver/Src/stm32f3xx_hal_tim_ex.c ****   /* Enable the Commutation DMA Request */
1627:Drivers/STM32F3xx_HAL_Driver/Src/stm32f3xx_hal_tim_ex.c ****   __HAL_TIM_ENABLE_DMA(htim, TIM_DMA_COM);
1628:Drivers/STM32F3xx_HAL_Driver/Src/stm32f3xx_hal_tim_ex.c **** 
1629:Drivers/STM32F3xx_HAL_Driver/Src/stm32f3xx_hal_tim_ex.c ****   __HAL_UNLOCK(htim);
1630:Drivers/STM32F3xx_HAL_Driver/Src/stm32f3xx_hal_tim_ex.c ****   
1631:Drivers/STM32F3xx_HAL_Driver/Src/stm32f3xx_hal_tim_ex.c ****   return HAL_OK;
1632:Drivers/STM32F3xx_HAL_Driver/Src/stm32f3xx_hal_tim_ex.c **** }
1633:Drivers/STM32F3xx_HAL_Driver/Src/stm32f3xx_hal_tim_ex.c **** 
1634:Drivers/STM32F3xx_HAL_Driver/Src/stm32f3xx_hal_tim_ex.c **** /**
1635:Drivers/STM32F3xx_HAL_Driver/Src/stm32f3xx_hal_tim_ex.c ****   * @brief  Initializes the TIM Output Compare Channels according to the specified
1636:Drivers/STM32F3xx_HAL_Driver/Src/stm32f3xx_hal_tim_ex.c ****   *         parameters in the TIM_OC_InitTypeDef.
1637:Drivers/STM32F3xx_HAL_Driver/Src/stm32f3xx_hal_tim_ex.c ****   * @param  htim TIM Output Compare handle
1638:Drivers/STM32F3xx_HAL_Driver/Src/stm32f3xx_hal_tim_ex.c ****   * @param  sConfig TIM Output Compare configuration structure
1639:Drivers/STM32F3xx_HAL_Driver/Src/stm32f3xx_hal_tim_ex.c ****   * @param  Channel TIM Channels to configure
1640:Drivers/STM32F3xx_HAL_Driver/Src/stm32f3xx_hal_tim_ex.c ****   *          This parameter can be one of the following values:
1641:Drivers/STM32F3xx_HAL_Driver/Src/stm32f3xx_hal_tim_ex.c ****   *            @arg TIM_CHANNEL_1: TIM Channel 1 selected
1642:Drivers/STM32F3xx_HAL_Driver/Src/stm32f3xx_hal_tim_ex.c ****   *            @arg TIM_CHANNEL_2: TIM Channel 2 selected
1643:Drivers/STM32F3xx_HAL_Driver/Src/stm32f3xx_hal_tim_ex.c ****   *            @arg TIM_CHANNEL_3: TIM Channel 3 selected
1644:Drivers/STM32F3xx_HAL_Driver/Src/stm32f3xx_hal_tim_ex.c ****   *            @arg TIM_CHANNEL_4: TIM Channel 4 selected 
1645:Drivers/STM32F3xx_HAL_Driver/Src/stm32f3xx_hal_tim_ex.c ****   *            @arg TIM_CHANNEL_5: TIM Channel 5 selected 
1646:Drivers/STM32F3xx_HAL_Driver/Src/stm32f3xx_hal_tim_ex.c ****   *            @arg TIM_CHANNEL_6: TIM Channel 6 selected
1647:Drivers/STM32F3xx_HAL_Driver/Src/stm32f3xx_hal_tim_ex.c ****   * @note For STM32F302xC, STM32F302xE, STM32F303xC, STM32F303xE, STM32F358xx,
1648:Drivers/STM32F3xx_HAL_Driver/Src/stm32f3xx_hal_tim_ex.c ****   *       STM32F398xx and STM32F303x8 up to 6 OC channels can be configured
1649:Drivers/STM32F3xx_HAL_Driver/Src/stm32f3xx_hal_tim_ex.c ****   * @retval HAL status
1650:Drivers/STM32F3xx_HAL_Driver/Src/stm32f3xx_hal_tim_ex.c ****   */
1651:Drivers/STM32F3xx_HAL_Driver/Src/stm32f3xx_hal_tim_ex.c **** HAL_StatusTypeDef HAL_TIM_OC_ConfigChannel(TIM_HandleTypeDef *htim,
1652:Drivers/STM32F3xx_HAL_Driver/Src/stm32f3xx_hal_tim_ex.c ****                                            TIM_OC_InitTypeDef* sConfig,
1653:Drivers/STM32F3xx_HAL_Driver/Src/stm32f3xx_hal_tim_ex.c ****                                            uint32_t Channel)
1654:Drivers/STM32F3xx_HAL_Driver/Src/stm32f3xx_hal_tim_ex.c **** {  
1655:Drivers/STM32F3xx_HAL_Driver/Src/stm32f3xx_hal_tim_ex.c ****   /* Check the parameters */
1656:Drivers/STM32F3xx_HAL_Driver/Src/stm32f3xx_hal_tim_ex.c ****   assert_param(IS_TIM_CHANNELS(Channel)); 
1657:Drivers/STM32F3xx_HAL_Driver/Src/stm32f3xx_hal_tim_ex.c ****   assert_param(IS_TIM_OC_MODE(sConfig->OCMode));
1658:Drivers/STM32F3xx_HAL_Driver/Src/stm32f3xx_hal_tim_ex.c ****   assert_param(IS_TIM_OC_POLARITY(sConfig->OCPolarity));
1659:Drivers/STM32F3xx_HAL_Driver/Src/stm32f3xx_hal_tim_ex.c ****   
1660:Drivers/STM32F3xx_HAL_Driver/Src/stm32f3xx_hal_tim_ex.c ****   /* Check input state */
ARM GAS  /tmp/cc1baImv.s 			page 45


1661:Drivers/STM32F3xx_HAL_Driver/Src/stm32f3xx_hal_tim_ex.c ****   __HAL_LOCK(htim); 
1662:Drivers/STM32F3xx_HAL_Driver/Src/stm32f3xx_hal_tim_ex.c ****   
1663:Drivers/STM32F3xx_HAL_Driver/Src/stm32f3xx_hal_tim_ex.c ****   htim->State = HAL_TIM_STATE_BUSY;
1664:Drivers/STM32F3xx_HAL_Driver/Src/stm32f3xx_hal_tim_ex.c ****   
1665:Drivers/STM32F3xx_HAL_Driver/Src/stm32f3xx_hal_tim_ex.c ****   switch (Channel)
1666:Drivers/STM32F3xx_HAL_Driver/Src/stm32f3xx_hal_tim_ex.c ****   {
1667:Drivers/STM32F3xx_HAL_Driver/Src/stm32f3xx_hal_tim_ex.c ****     case TIM_CHANNEL_1:
1668:Drivers/STM32F3xx_HAL_Driver/Src/stm32f3xx_hal_tim_ex.c ****     {
1669:Drivers/STM32F3xx_HAL_Driver/Src/stm32f3xx_hal_tim_ex.c ****       /* Check the parameters */
1670:Drivers/STM32F3xx_HAL_Driver/Src/stm32f3xx_hal_tim_ex.c ****       assert_param(IS_TIM_CC1_INSTANCE(htim->Instance)); 
1671:Drivers/STM32F3xx_HAL_Driver/Src/stm32f3xx_hal_tim_ex.c ****       
1672:Drivers/STM32F3xx_HAL_Driver/Src/stm32f3xx_hal_tim_ex.c ****      /* Configure the TIM Channel 1 in Output Compare */
1673:Drivers/STM32F3xx_HAL_Driver/Src/stm32f3xx_hal_tim_ex.c ****       TIM_OC1_SetConfig(htim->Instance, sConfig);
1674:Drivers/STM32F3xx_HAL_Driver/Src/stm32f3xx_hal_tim_ex.c ****     }
1675:Drivers/STM32F3xx_HAL_Driver/Src/stm32f3xx_hal_tim_ex.c ****     break;
1676:Drivers/STM32F3xx_HAL_Driver/Src/stm32f3xx_hal_tim_ex.c ****     
1677:Drivers/STM32F3xx_HAL_Driver/Src/stm32f3xx_hal_tim_ex.c ****     case TIM_CHANNEL_2:
1678:Drivers/STM32F3xx_HAL_Driver/Src/stm32f3xx_hal_tim_ex.c ****     {
1679:Drivers/STM32F3xx_HAL_Driver/Src/stm32f3xx_hal_tim_ex.c ****       /* Check the parameters */
1680:Drivers/STM32F3xx_HAL_Driver/Src/stm32f3xx_hal_tim_ex.c ****       assert_param(IS_TIM_CC2_INSTANCE(htim->Instance)); 
1681:Drivers/STM32F3xx_HAL_Driver/Src/stm32f3xx_hal_tim_ex.c ****       
1682:Drivers/STM32F3xx_HAL_Driver/Src/stm32f3xx_hal_tim_ex.c ****       /* Configure the TIM Channel 2 in Output Compare */
1683:Drivers/STM32F3xx_HAL_Driver/Src/stm32f3xx_hal_tim_ex.c ****       TIM_OC2_SetConfig(htim->Instance, sConfig);
1684:Drivers/STM32F3xx_HAL_Driver/Src/stm32f3xx_hal_tim_ex.c ****     }
1685:Drivers/STM32F3xx_HAL_Driver/Src/stm32f3xx_hal_tim_ex.c ****     break;
1686:Drivers/STM32F3xx_HAL_Driver/Src/stm32f3xx_hal_tim_ex.c ****     
1687:Drivers/STM32F3xx_HAL_Driver/Src/stm32f3xx_hal_tim_ex.c ****     case TIM_CHANNEL_3:
1688:Drivers/STM32F3xx_HAL_Driver/Src/stm32f3xx_hal_tim_ex.c ****     {
1689:Drivers/STM32F3xx_HAL_Driver/Src/stm32f3xx_hal_tim_ex.c ****       /* Check the parameters */
1690:Drivers/STM32F3xx_HAL_Driver/Src/stm32f3xx_hal_tim_ex.c ****       assert_param(IS_TIM_CC3_INSTANCE(htim->Instance)); 
1691:Drivers/STM32F3xx_HAL_Driver/Src/stm32f3xx_hal_tim_ex.c ****       
1692:Drivers/STM32F3xx_HAL_Driver/Src/stm32f3xx_hal_tim_ex.c ****       /* Configure the TIM Channel 3 in Output Compare */
1693:Drivers/STM32F3xx_HAL_Driver/Src/stm32f3xx_hal_tim_ex.c ****       TIM_OC3_SetConfig(htim->Instance, sConfig);
1694:Drivers/STM32F3xx_HAL_Driver/Src/stm32f3xx_hal_tim_ex.c ****     }
1695:Drivers/STM32F3xx_HAL_Driver/Src/stm32f3xx_hal_tim_ex.c ****     break;
1696:Drivers/STM32F3xx_HAL_Driver/Src/stm32f3xx_hal_tim_ex.c ****     
1697:Drivers/STM32F3xx_HAL_Driver/Src/stm32f3xx_hal_tim_ex.c ****     case TIM_CHANNEL_4:
1698:Drivers/STM32F3xx_HAL_Driver/Src/stm32f3xx_hal_tim_ex.c ****     {
1699:Drivers/STM32F3xx_HAL_Driver/Src/stm32f3xx_hal_tim_ex.c ****       /* Check the parameters */
1700:Drivers/STM32F3xx_HAL_Driver/Src/stm32f3xx_hal_tim_ex.c ****       assert_param(IS_TIM_CC4_INSTANCE(htim->Instance)); 
1701:Drivers/STM32F3xx_HAL_Driver/Src/stm32f3xx_hal_tim_ex.c ****       
1702:Drivers/STM32F3xx_HAL_Driver/Src/stm32f3xx_hal_tim_ex.c ****        /* Configure the TIM Channel 4 in Output Compare */
1703:Drivers/STM32F3xx_HAL_Driver/Src/stm32f3xx_hal_tim_ex.c ****        TIM_OC4_SetConfig(htim->Instance, sConfig);
1704:Drivers/STM32F3xx_HAL_Driver/Src/stm32f3xx_hal_tim_ex.c ****     }
1705:Drivers/STM32F3xx_HAL_Driver/Src/stm32f3xx_hal_tim_ex.c ****     break;
1706:Drivers/STM32F3xx_HAL_Driver/Src/stm32f3xx_hal_tim_ex.c ****     
1707:Drivers/STM32F3xx_HAL_Driver/Src/stm32f3xx_hal_tim_ex.c ****     case TIM_CHANNEL_5:
1708:Drivers/STM32F3xx_HAL_Driver/Src/stm32f3xx_hal_tim_ex.c ****     {
1709:Drivers/STM32F3xx_HAL_Driver/Src/stm32f3xx_hal_tim_ex.c ****       /* Check the parameters */
1710:Drivers/STM32F3xx_HAL_Driver/Src/stm32f3xx_hal_tim_ex.c ****       assert_param(IS_TIM_CC5_INSTANCE(htim->Instance)); 
1711:Drivers/STM32F3xx_HAL_Driver/Src/stm32f3xx_hal_tim_ex.c ****       
1712:Drivers/STM32F3xx_HAL_Driver/Src/stm32f3xx_hal_tim_ex.c ****        /* Configure the TIM Channel 5 in Output Compare */
1713:Drivers/STM32F3xx_HAL_Driver/Src/stm32f3xx_hal_tim_ex.c ****        TIM_OC5_SetConfig(htim->Instance, sConfig);
1714:Drivers/STM32F3xx_HAL_Driver/Src/stm32f3xx_hal_tim_ex.c ****     }
1715:Drivers/STM32F3xx_HAL_Driver/Src/stm32f3xx_hal_tim_ex.c ****     break;
1716:Drivers/STM32F3xx_HAL_Driver/Src/stm32f3xx_hal_tim_ex.c ****     
1717:Drivers/STM32F3xx_HAL_Driver/Src/stm32f3xx_hal_tim_ex.c ****     case TIM_CHANNEL_6:
ARM GAS  /tmp/cc1baImv.s 			page 46


1718:Drivers/STM32F3xx_HAL_Driver/Src/stm32f3xx_hal_tim_ex.c ****     {
1719:Drivers/STM32F3xx_HAL_Driver/Src/stm32f3xx_hal_tim_ex.c ****       /* Check the parameters */
1720:Drivers/STM32F3xx_HAL_Driver/Src/stm32f3xx_hal_tim_ex.c ****       assert_param(IS_TIM_CC6_INSTANCE(htim->Instance)); 
1721:Drivers/STM32F3xx_HAL_Driver/Src/stm32f3xx_hal_tim_ex.c ****       
1722:Drivers/STM32F3xx_HAL_Driver/Src/stm32f3xx_hal_tim_ex.c ****        /* Configure the TIM Channel 6 in Output Compare */
1723:Drivers/STM32F3xx_HAL_Driver/Src/stm32f3xx_hal_tim_ex.c ****        TIM_OC6_SetConfig(htim->Instance, sConfig);
1724:Drivers/STM32F3xx_HAL_Driver/Src/stm32f3xx_hal_tim_ex.c ****     }
1725:Drivers/STM32F3xx_HAL_Driver/Src/stm32f3xx_hal_tim_ex.c ****     break;
1726:Drivers/STM32F3xx_HAL_Driver/Src/stm32f3xx_hal_tim_ex.c ****         
1727:Drivers/STM32F3xx_HAL_Driver/Src/stm32f3xx_hal_tim_ex.c ****     default:
1728:Drivers/STM32F3xx_HAL_Driver/Src/stm32f3xx_hal_tim_ex.c ****     break;    
1729:Drivers/STM32F3xx_HAL_Driver/Src/stm32f3xx_hal_tim_ex.c ****   }
1730:Drivers/STM32F3xx_HAL_Driver/Src/stm32f3xx_hal_tim_ex.c ****   
1731:Drivers/STM32F3xx_HAL_Driver/Src/stm32f3xx_hal_tim_ex.c ****   htim->State = HAL_TIM_STATE_READY;
1732:Drivers/STM32F3xx_HAL_Driver/Src/stm32f3xx_hal_tim_ex.c ****   
1733:Drivers/STM32F3xx_HAL_Driver/Src/stm32f3xx_hal_tim_ex.c ****   __HAL_UNLOCK(htim); 
1734:Drivers/STM32F3xx_HAL_Driver/Src/stm32f3xx_hal_tim_ex.c ****   
1735:Drivers/STM32F3xx_HAL_Driver/Src/stm32f3xx_hal_tim_ex.c ****   return HAL_OK;
1736:Drivers/STM32F3xx_HAL_Driver/Src/stm32f3xx_hal_tim_ex.c **** }
1737:Drivers/STM32F3xx_HAL_Driver/Src/stm32f3xx_hal_tim_ex.c **** 
1738:Drivers/STM32F3xx_HAL_Driver/Src/stm32f3xx_hal_tim_ex.c **** /**
1739:Drivers/STM32F3xx_HAL_Driver/Src/stm32f3xx_hal_tim_ex.c ****   * @brief  Initializes the TIM PWM  channels according to the specified
1740:Drivers/STM32F3xx_HAL_Driver/Src/stm32f3xx_hal_tim_ex.c ****   *         parameters in the TIM_OC_InitTypeDef.
1741:Drivers/STM32F3xx_HAL_Driver/Src/stm32f3xx_hal_tim_ex.c ****   * @param  htim TIM PWM handle
1742:Drivers/STM32F3xx_HAL_Driver/Src/stm32f3xx_hal_tim_ex.c ****   * @param  sConfig TIM PWM configuration structure
1743:Drivers/STM32F3xx_HAL_Driver/Src/stm32f3xx_hal_tim_ex.c ****   * @param  Channel TIM Channels to be configured
1744:Drivers/STM32F3xx_HAL_Driver/Src/stm32f3xx_hal_tim_ex.c ****   *          This parameter can be one of the following values:
1745:Drivers/STM32F3xx_HAL_Driver/Src/stm32f3xx_hal_tim_ex.c ****   *            @arg TIM_CHANNEL_1: TIM Channel 1 selected
1746:Drivers/STM32F3xx_HAL_Driver/Src/stm32f3xx_hal_tim_ex.c ****   *            @arg TIM_CHANNEL_2: TIM Channel 2 selected
1747:Drivers/STM32F3xx_HAL_Driver/Src/stm32f3xx_hal_tim_ex.c ****   *            @arg TIM_CHANNEL_3: TIM Channel 3 selected
1748:Drivers/STM32F3xx_HAL_Driver/Src/stm32f3xx_hal_tim_ex.c ****   *            @arg TIM_CHANNEL_4: TIM Channel 4 selected
1749:Drivers/STM32F3xx_HAL_Driver/Src/stm32f3xx_hal_tim_ex.c ****   *            @arg TIM_CHANNEL_5: TIM Channel 5 selected 
1750:Drivers/STM32F3xx_HAL_Driver/Src/stm32f3xx_hal_tim_ex.c ****   *            @arg TIM_CHANNEL_6: TIM Channel 6 selected 
1751:Drivers/STM32F3xx_HAL_Driver/Src/stm32f3xx_hal_tim_ex.c ****   * @note For STM32F302xC, STM32F302xE, STM32F303xC, STM32F303xE, STM32F358xx,
1752:Drivers/STM32F3xx_HAL_Driver/Src/stm32f3xx_hal_tim_ex.c ****   *       STM32F398xx and STM32F303x8 up to 6 PWM channels can be configured
1753:Drivers/STM32F3xx_HAL_Driver/Src/stm32f3xx_hal_tim_ex.c ****   * @retval HAL status
1754:Drivers/STM32F3xx_HAL_Driver/Src/stm32f3xx_hal_tim_ex.c ****   */
1755:Drivers/STM32F3xx_HAL_Driver/Src/stm32f3xx_hal_tim_ex.c **** HAL_StatusTypeDef HAL_TIM_PWM_ConfigChannel(TIM_HandleTypeDef *htim, 
1756:Drivers/STM32F3xx_HAL_Driver/Src/stm32f3xx_hal_tim_ex.c ****                                             TIM_OC_InitTypeDef* sConfig, 
1757:Drivers/STM32F3xx_HAL_Driver/Src/stm32f3xx_hal_tim_ex.c ****                                             uint32_t Channel)
1758:Drivers/STM32F3xx_HAL_Driver/Src/stm32f3xx_hal_tim_ex.c **** {
1759:Drivers/STM32F3xx_HAL_Driver/Src/stm32f3xx_hal_tim_ex.c ****   /* Check the parameters */
1760:Drivers/STM32F3xx_HAL_Driver/Src/stm32f3xx_hal_tim_ex.c ****   assert_param(IS_TIM_CHANNELS(Channel)); 
1761:Drivers/STM32F3xx_HAL_Driver/Src/stm32f3xx_hal_tim_ex.c ****   assert_param(IS_TIM_PWM_MODE(sConfig->OCMode));
1762:Drivers/STM32F3xx_HAL_Driver/Src/stm32f3xx_hal_tim_ex.c ****   assert_param(IS_TIM_OC_POLARITY(sConfig->OCPolarity));
1763:Drivers/STM32F3xx_HAL_Driver/Src/stm32f3xx_hal_tim_ex.c ****   assert_param(IS_TIM_FAST_STATE(sConfig->OCFastMode));
1764:Drivers/STM32F3xx_HAL_Driver/Src/stm32f3xx_hal_tim_ex.c ****   
1765:Drivers/STM32F3xx_HAL_Driver/Src/stm32f3xx_hal_tim_ex.c ****   /* Check input state */
1766:Drivers/STM32F3xx_HAL_Driver/Src/stm32f3xx_hal_tim_ex.c ****   __HAL_LOCK(htim);
1767:Drivers/STM32F3xx_HAL_Driver/Src/stm32f3xx_hal_tim_ex.c ****   
1768:Drivers/STM32F3xx_HAL_Driver/Src/stm32f3xx_hal_tim_ex.c ****   htim->State = HAL_TIM_STATE_BUSY;
1769:Drivers/STM32F3xx_HAL_Driver/Src/stm32f3xx_hal_tim_ex.c ****     
1770:Drivers/STM32F3xx_HAL_Driver/Src/stm32f3xx_hal_tim_ex.c ****   switch (Channel)
1771:Drivers/STM32F3xx_HAL_Driver/Src/stm32f3xx_hal_tim_ex.c ****   {
1772:Drivers/STM32F3xx_HAL_Driver/Src/stm32f3xx_hal_tim_ex.c ****     case TIM_CHANNEL_1:
1773:Drivers/STM32F3xx_HAL_Driver/Src/stm32f3xx_hal_tim_ex.c ****     {
1774:Drivers/STM32F3xx_HAL_Driver/Src/stm32f3xx_hal_tim_ex.c ****       /* Check the parameters */
ARM GAS  /tmp/cc1baImv.s 			page 47


1775:Drivers/STM32F3xx_HAL_Driver/Src/stm32f3xx_hal_tim_ex.c ****       assert_param(IS_TIM_CC1_INSTANCE(htim->Instance)); 
1776:Drivers/STM32F3xx_HAL_Driver/Src/stm32f3xx_hal_tim_ex.c ****       
1777:Drivers/STM32F3xx_HAL_Driver/Src/stm32f3xx_hal_tim_ex.c ****       /* Configure the Channel 1 in PWM mode */
1778:Drivers/STM32F3xx_HAL_Driver/Src/stm32f3xx_hal_tim_ex.c ****       TIM_OC1_SetConfig(htim->Instance, sConfig);
1779:Drivers/STM32F3xx_HAL_Driver/Src/stm32f3xx_hal_tim_ex.c ****       
1780:Drivers/STM32F3xx_HAL_Driver/Src/stm32f3xx_hal_tim_ex.c ****       /* Set the Preload enable bit for channel1 */
1781:Drivers/STM32F3xx_HAL_Driver/Src/stm32f3xx_hal_tim_ex.c ****       htim->Instance->CCMR1 |= TIM_CCMR1_OC1PE;
1782:Drivers/STM32F3xx_HAL_Driver/Src/stm32f3xx_hal_tim_ex.c ****       
1783:Drivers/STM32F3xx_HAL_Driver/Src/stm32f3xx_hal_tim_ex.c ****       /* Configure the Output Fast mode */
1784:Drivers/STM32F3xx_HAL_Driver/Src/stm32f3xx_hal_tim_ex.c ****       htim->Instance->CCMR1 &= ~TIM_CCMR1_OC1FE;
1785:Drivers/STM32F3xx_HAL_Driver/Src/stm32f3xx_hal_tim_ex.c ****       htim->Instance->CCMR1 |= sConfig->OCFastMode;
1786:Drivers/STM32F3xx_HAL_Driver/Src/stm32f3xx_hal_tim_ex.c ****     }
1787:Drivers/STM32F3xx_HAL_Driver/Src/stm32f3xx_hal_tim_ex.c ****     break;
1788:Drivers/STM32F3xx_HAL_Driver/Src/stm32f3xx_hal_tim_ex.c ****     
1789:Drivers/STM32F3xx_HAL_Driver/Src/stm32f3xx_hal_tim_ex.c ****     case TIM_CHANNEL_2:
1790:Drivers/STM32F3xx_HAL_Driver/Src/stm32f3xx_hal_tim_ex.c ****     {
1791:Drivers/STM32F3xx_HAL_Driver/Src/stm32f3xx_hal_tim_ex.c ****       /* Check the parameters */
1792:Drivers/STM32F3xx_HAL_Driver/Src/stm32f3xx_hal_tim_ex.c ****       assert_param(IS_TIM_CC2_INSTANCE(htim->Instance)); 
1793:Drivers/STM32F3xx_HAL_Driver/Src/stm32f3xx_hal_tim_ex.c ****       
1794:Drivers/STM32F3xx_HAL_Driver/Src/stm32f3xx_hal_tim_ex.c ****       /* Configure the Channel 2 in PWM mode */
1795:Drivers/STM32F3xx_HAL_Driver/Src/stm32f3xx_hal_tim_ex.c ****       TIM_OC2_SetConfig(htim->Instance, sConfig);
1796:Drivers/STM32F3xx_HAL_Driver/Src/stm32f3xx_hal_tim_ex.c ****       
1797:Drivers/STM32F3xx_HAL_Driver/Src/stm32f3xx_hal_tim_ex.c ****       /* Set the Preload enable bit for channel2 */
1798:Drivers/STM32F3xx_HAL_Driver/Src/stm32f3xx_hal_tim_ex.c ****       htim->Instance->CCMR1 |= TIM_CCMR1_OC2PE;
1799:Drivers/STM32F3xx_HAL_Driver/Src/stm32f3xx_hal_tim_ex.c ****       
1800:Drivers/STM32F3xx_HAL_Driver/Src/stm32f3xx_hal_tim_ex.c ****       /* Configure the Output Fast mode */
1801:Drivers/STM32F3xx_HAL_Driver/Src/stm32f3xx_hal_tim_ex.c ****       htim->Instance->CCMR1 &= ~TIM_CCMR1_OC2FE;
1802:Drivers/STM32F3xx_HAL_Driver/Src/stm32f3xx_hal_tim_ex.c ****       htim->Instance->CCMR1 |= sConfig->OCFastMode << 8U;
1803:Drivers/STM32F3xx_HAL_Driver/Src/stm32f3xx_hal_tim_ex.c ****     }
1804:Drivers/STM32F3xx_HAL_Driver/Src/stm32f3xx_hal_tim_ex.c ****     break;
1805:Drivers/STM32F3xx_HAL_Driver/Src/stm32f3xx_hal_tim_ex.c ****     
1806:Drivers/STM32F3xx_HAL_Driver/Src/stm32f3xx_hal_tim_ex.c ****     case TIM_CHANNEL_3:
1807:Drivers/STM32F3xx_HAL_Driver/Src/stm32f3xx_hal_tim_ex.c ****     {
1808:Drivers/STM32F3xx_HAL_Driver/Src/stm32f3xx_hal_tim_ex.c ****       /* Check the parameters */
1809:Drivers/STM32F3xx_HAL_Driver/Src/stm32f3xx_hal_tim_ex.c ****       assert_param(IS_TIM_CC3_INSTANCE(htim->Instance)); 
1810:Drivers/STM32F3xx_HAL_Driver/Src/stm32f3xx_hal_tim_ex.c ****       
1811:Drivers/STM32F3xx_HAL_Driver/Src/stm32f3xx_hal_tim_ex.c ****       /* Configure the Channel 3 in PWM mode */
1812:Drivers/STM32F3xx_HAL_Driver/Src/stm32f3xx_hal_tim_ex.c ****       TIM_OC3_SetConfig(htim->Instance, sConfig);
1813:Drivers/STM32F3xx_HAL_Driver/Src/stm32f3xx_hal_tim_ex.c ****       
1814:Drivers/STM32F3xx_HAL_Driver/Src/stm32f3xx_hal_tim_ex.c ****       /* Set the Preload enable bit for channel3 */
1815:Drivers/STM32F3xx_HAL_Driver/Src/stm32f3xx_hal_tim_ex.c ****       htim->Instance->CCMR2 |= TIM_CCMR2_OC3PE;
1816:Drivers/STM32F3xx_HAL_Driver/Src/stm32f3xx_hal_tim_ex.c ****       
1817:Drivers/STM32F3xx_HAL_Driver/Src/stm32f3xx_hal_tim_ex.c ****      /* Configure the Output Fast mode */
1818:Drivers/STM32F3xx_HAL_Driver/Src/stm32f3xx_hal_tim_ex.c ****       htim->Instance->CCMR2 &= ~TIM_CCMR2_OC3FE;
1819:Drivers/STM32F3xx_HAL_Driver/Src/stm32f3xx_hal_tim_ex.c ****       htim->Instance->CCMR2 |= sConfig->OCFastMode;  
1820:Drivers/STM32F3xx_HAL_Driver/Src/stm32f3xx_hal_tim_ex.c ****     }
1821:Drivers/STM32F3xx_HAL_Driver/Src/stm32f3xx_hal_tim_ex.c ****     break;
1822:Drivers/STM32F3xx_HAL_Driver/Src/stm32f3xx_hal_tim_ex.c ****     
1823:Drivers/STM32F3xx_HAL_Driver/Src/stm32f3xx_hal_tim_ex.c ****     case TIM_CHANNEL_4:
1824:Drivers/STM32F3xx_HAL_Driver/Src/stm32f3xx_hal_tim_ex.c ****     {
1825:Drivers/STM32F3xx_HAL_Driver/Src/stm32f3xx_hal_tim_ex.c ****       /* Check the parameters */
1826:Drivers/STM32F3xx_HAL_Driver/Src/stm32f3xx_hal_tim_ex.c ****       assert_param(IS_TIM_CC4_INSTANCE(htim->Instance)); 
1827:Drivers/STM32F3xx_HAL_Driver/Src/stm32f3xx_hal_tim_ex.c ****       
1828:Drivers/STM32F3xx_HAL_Driver/Src/stm32f3xx_hal_tim_ex.c ****       /* Configure the Channel 4 in PWM mode */
1829:Drivers/STM32F3xx_HAL_Driver/Src/stm32f3xx_hal_tim_ex.c ****       TIM_OC4_SetConfig(htim->Instance, sConfig);
1830:Drivers/STM32F3xx_HAL_Driver/Src/stm32f3xx_hal_tim_ex.c ****       
1831:Drivers/STM32F3xx_HAL_Driver/Src/stm32f3xx_hal_tim_ex.c ****       /* Set the Preload enable bit for channel4 */
ARM GAS  /tmp/cc1baImv.s 			page 48


1832:Drivers/STM32F3xx_HAL_Driver/Src/stm32f3xx_hal_tim_ex.c ****       htim->Instance->CCMR2 |= TIM_CCMR2_OC4PE;
1833:Drivers/STM32F3xx_HAL_Driver/Src/stm32f3xx_hal_tim_ex.c ****       
1834:Drivers/STM32F3xx_HAL_Driver/Src/stm32f3xx_hal_tim_ex.c ****      /* Configure the Output Fast mode */
1835:Drivers/STM32F3xx_HAL_Driver/Src/stm32f3xx_hal_tim_ex.c ****       htim->Instance->CCMR2 &= ~TIM_CCMR2_OC4FE;
1836:Drivers/STM32F3xx_HAL_Driver/Src/stm32f3xx_hal_tim_ex.c ****       htim->Instance->CCMR2 |= sConfig->OCFastMode << 8U;  
1837:Drivers/STM32F3xx_HAL_Driver/Src/stm32f3xx_hal_tim_ex.c ****     }
1838:Drivers/STM32F3xx_HAL_Driver/Src/stm32f3xx_hal_tim_ex.c ****     break;
1839:Drivers/STM32F3xx_HAL_Driver/Src/stm32f3xx_hal_tim_ex.c ****     
1840:Drivers/STM32F3xx_HAL_Driver/Src/stm32f3xx_hal_tim_ex.c ****     case TIM_CHANNEL_5:
1841:Drivers/STM32F3xx_HAL_Driver/Src/stm32f3xx_hal_tim_ex.c ****     {
1842:Drivers/STM32F3xx_HAL_Driver/Src/stm32f3xx_hal_tim_ex.c ****        /* Check the parameters */
1843:Drivers/STM32F3xx_HAL_Driver/Src/stm32f3xx_hal_tim_ex.c ****       assert_param(IS_TIM_CC5_INSTANCE(htim->Instance)); 
1844:Drivers/STM32F3xx_HAL_Driver/Src/stm32f3xx_hal_tim_ex.c ****       
1845:Drivers/STM32F3xx_HAL_Driver/Src/stm32f3xx_hal_tim_ex.c ****      /* Configure the Channel 5 in PWM mode */
1846:Drivers/STM32F3xx_HAL_Driver/Src/stm32f3xx_hal_tim_ex.c ****       TIM_OC5_SetConfig(htim->Instance, sConfig);
1847:Drivers/STM32F3xx_HAL_Driver/Src/stm32f3xx_hal_tim_ex.c ****       
1848:Drivers/STM32F3xx_HAL_Driver/Src/stm32f3xx_hal_tim_ex.c ****       /* Set the Preload enable bit for channel5*/
1849:Drivers/STM32F3xx_HAL_Driver/Src/stm32f3xx_hal_tim_ex.c ****       htim->Instance->CCMR3 |= TIM_CCMR3_OC5PE;
1850:Drivers/STM32F3xx_HAL_Driver/Src/stm32f3xx_hal_tim_ex.c ****       
1851:Drivers/STM32F3xx_HAL_Driver/Src/stm32f3xx_hal_tim_ex.c ****      /* Configure the Output Fast mode */
1852:Drivers/STM32F3xx_HAL_Driver/Src/stm32f3xx_hal_tim_ex.c ****       htim->Instance->CCMR3 &= ~TIM_CCMR3_OC5FE;
1853:Drivers/STM32F3xx_HAL_Driver/Src/stm32f3xx_hal_tim_ex.c ****       htim->Instance->CCMR3 |= sConfig->OCFastMode;  
1854:Drivers/STM32F3xx_HAL_Driver/Src/stm32f3xx_hal_tim_ex.c ****     }
1855:Drivers/STM32F3xx_HAL_Driver/Src/stm32f3xx_hal_tim_ex.c ****     break;
1856:Drivers/STM32F3xx_HAL_Driver/Src/stm32f3xx_hal_tim_ex.c ****     
1857:Drivers/STM32F3xx_HAL_Driver/Src/stm32f3xx_hal_tim_ex.c ****     case TIM_CHANNEL_6:
1858:Drivers/STM32F3xx_HAL_Driver/Src/stm32f3xx_hal_tim_ex.c ****     {
1859:Drivers/STM32F3xx_HAL_Driver/Src/stm32f3xx_hal_tim_ex.c ****        /* Check the parameters */
1860:Drivers/STM32F3xx_HAL_Driver/Src/stm32f3xx_hal_tim_ex.c ****       assert_param(IS_TIM_CC6_INSTANCE(htim->Instance)); 
1861:Drivers/STM32F3xx_HAL_Driver/Src/stm32f3xx_hal_tim_ex.c ****       
1862:Drivers/STM32F3xx_HAL_Driver/Src/stm32f3xx_hal_tim_ex.c ****      /* Configure the Channel 5 in PWM mode */
1863:Drivers/STM32F3xx_HAL_Driver/Src/stm32f3xx_hal_tim_ex.c ****       TIM_OC6_SetConfig(htim->Instance, sConfig);
1864:Drivers/STM32F3xx_HAL_Driver/Src/stm32f3xx_hal_tim_ex.c ****       
1865:Drivers/STM32F3xx_HAL_Driver/Src/stm32f3xx_hal_tim_ex.c ****       /* Set the Preload enable bit for channel6 */
1866:Drivers/STM32F3xx_HAL_Driver/Src/stm32f3xx_hal_tim_ex.c ****       htim->Instance->CCMR3 |= TIM_CCMR3_OC6PE;
1867:Drivers/STM32F3xx_HAL_Driver/Src/stm32f3xx_hal_tim_ex.c ****       
1868:Drivers/STM32F3xx_HAL_Driver/Src/stm32f3xx_hal_tim_ex.c ****      /* Configure the Output Fast mode */
1869:Drivers/STM32F3xx_HAL_Driver/Src/stm32f3xx_hal_tim_ex.c ****       htim->Instance->CCMR3 &= ~TIM_CCMR3_OC6FE;
1870:Drivers/STM32F3xx_HAL_Driver/Src/stm32f3xx_hal_tim_ex.c ****       htim->Instance->CCMR3 |= sConfig->OCFastMode << 8U;  
1871:Drivers/STM32F3xx_HAL_Driver/Src/stm32f3xx_hal_tim_ex.c ****     }
1872:Drivers/STM32F3xx_HAL_Driver/Src/stm32f3xx_hal_tim_ex.c ****     break;
1873:Drivers/STM32F3xx_HAL_Driver/Src/stm32f3xx_hal_tim_ex.c ****     
1874:Drivers/STM32F3xx_HAL_Driver/Src/stm32f3xx_hal_tim_ex.c ****     default:
1875:Drivers/STM32F3xx_HAL_Driver/Src/stm32f3xx_hal_tim_ex.c ****     break;    
1876:Drivers/STM32F3xx_HAL_Driver/Src/stm32f3xx_hal_tim_ex.c ****   }
1877:Drivers/STM32F3xx_HAL_Driver/Src/stm32f3xx_hal_tim_ex.c ****   
1878:Drivers/STM32F3xx_HAL_Driver/Src/stm32f3xx_hal_tim_ex.c ****   htim->State = HAL_TIM_STATE_READY;
1879:Drivers/STM32F3xx_HAL_Driver/Src/stm32f3xx_hal_tim_ex.c ****     
1880:Drivers/STM32F3xx_HAL_Driver/Src/stm32f3xx_hal_tim_ex.c ****   __HAL_UNLOCK(htim);
1881:Drivers/STM32F3xx_HAL_Driver/Src/stm32f3xx_hal_tim_ex.c ****   
1882:Drivers/STM32F3xx_HAL_Driver/Src/stm32f3xx_hal_tim_ex.c ****   return HAL_OK;
1883:Drivers/STM32F3xx_HAL_Driver/Src/stm32f3xx_hal_tim_ex.c **** }
1884:Drivers/STM32F3xx_HAL_Driver/Src/stm32f3xx_hal_tim_ex.c **** 
1885:Drivers/STM32F3xx_HAL_Driver/Src/stm32f3xx_hal_tim_ex.c **** 
1886:Drivers/STM32F3xx_HAL_Driver/Src/stm32f3xx_hal_tim_ex.c **** /**
1887:Drivers/STM32F3xx_HAL_Driver/Src/stm32f3xx_hal_tim_ex.c ****   * @brief  Configures the TIM in master mode.
1888:Drivers/STM32F3xx_HAL_Driver/Src/stm32f3xx_hal_tim_ex.c ****   * @param  htim TIM handle.   
ARM GAS  /tmp/cc1baImv.s 			page 49


1889:Drivers/STM32F3xx_HAL_Driver/Src/stm32f3xx_hal_tim_ex.c ****   * @param  sMasterConfig pointer to a TIM_MasterConfigTypeDef structure that
1890:Drivers/STM32F3xx_HAL_Driver/Src/stm32f3xx_hal_tim_ex.c ****   *         contains the selected trigger output (TRGO) and the Master/Slave 
1891:Drivers/STM32F3xx_HAL_Driver/Src/stm32f3xx_hal_tim_ex.c ****   *         mode. 
1892:Drivers/STM32F3xx_HAL_Driver/Src/stm32f3xx_hal_tim_ex.c ****   * @retval HAL status
1893:Drivers/STM32F3xx_HAL_Driver/Src/stm32f3xx_hal_tim_ex.c ****   */
1894:Drivers/STM32F3xx_HAL_Driver/Src/stm32f3xx_hal_tim_ex.c **** HAL_StatusTypeDef HAL_TIMEx_MasterConfigSynchronization(TIM_HandleTypeDef *htim, 
1895:Drivers/STM32F3xx_HAL_Driver/Src/stm32f3xx_hal_tim_ex.c ****                                                       TIM_MasterConfigTypeDef * sMasterConfig)
1896:Drivers/STM32F3xx_HAL_Driver/Src/stm32f3xx_hal_tim_ex.c **** {
1897:Drivers/STM32F3xx_HAL_Driver/Src/stm32f3xx_hal_tim_ex.c ****   uint32_t tmpcr2;  
1898:Drivers/STM32F3xx_HAL_Driver/Src/stm32f3xx_hal_tim_ex.c ****   uint32_t tmpsmcr;  
1899:Drivers/STM32F3xx_HAL_Driver/Src/stm32f3xx_hal_tim_ex.c **** 
1900:Drivers/STM32F3xx_HAL_Driver/Src/stm32f3xx_hal_tim_ex.c ****   /* Check the parameters */
1901:Drivers/STM32F3xx_HAL_Driver/Src/stm32f3xx_hal_tim_ex.c ****   assert_param(IS_TIM_SYNCHRO_INSTANCE(htim->Instance));
1902:Drivers/STM32F3xx_HAL_Driver/Src/stm32f3xx_hal_tim_ex.c ****   assert_param(IS_TIM_TRGO_SOURCE(sMasterConfig->MasterOutputTrigger));
1903:Drivers/STM32F3xx_HAL_Driver/Src/stm32f3xx_hal_tim_ex.c ****   assert_param(IS_TIM_MSM_STATE(sMasterConfig->MasterSlaveMode));
1904:Drivers/STM32F3xx_HAL_Driver/Src/stm32f3xx_hal_tim_ex.c ****   
1905:Drivers/STM32F3xx_HAL_Driver/Src/stm32f3xx_hal_tim_ex.c ****   /* Check input state */
1906:Drivers/STM32F3xx_HAL_Driver/Src/stm32f3xx_hal_tim_ex.c ****   __HAL_LOCK(htim);
1907:Drivers/STM32F3xx_HAL_Driver/Src/stm32f3xx_hal_tim_ex.c **** 
1908:Drivers/STM32F3xx_HAL_Driver/Src/stm32f3xx_hal_tim_ex.c ****  /* Get the TIMx CR2 register value */
1909:Drivers/STM32F3xx_HAL_Driver/Src/stm32f3xx_hal_tim_ex.c ****   tmpcr2 = htim->Instance->CR2;
1910:Drivers/STM32F3xx_HAL_Driver/Src/stm32f3xx_hal_tim_ex.c **** 
1911:Drivers/STM32F3xx_HAL_Driver/Src/stm32f3xx_hal_tim_ex.c ****   /* Get the TIMx SMCR register value */
1912:Drivers/STM32F3xx_HAL_Driver/Src/stm32f3xx_hal_tim_ex.c ****   tmpsmcr = htim->Instance->SMCR;
1913:Drivers/STM32F3xx_HAL_Driver/Src/stm32f3xx_hal_tim_ex.c **** 
1914:Drivers/STM32F3xx_HAL_Driver/Src/stm32f3xx_hal_tim_ex.c ****   /* If the timer supports ADC synchronization through TRGO2, set the master mode selection 2U */
1915:Drivers/STM32F3xx_HAL_Driver/Src/stm32f3xx_hal_tim_ex.c ****   if (IS_TIM_TRGO2_INSTANCE(htim->Instance))
1916:Drivers/STM32F3xx_HAL_Driver/Src/stm32f3xx_hal_tim_ex.c ****   {
1917:Drivers/STM32F3xx_HAL_Driver/Src/stm32f3xx_hal_tim_ex.c ****     /* Check the parameters */
1918:Drivers/STM32F3xx_HAL_Driver/Src/stm32f3xx_hal_tim_ex.c ****     assert_param(IS_TIM_TRGO2_SOURCE(sMasterConfig->MasterOutputTrigger2));
1919:Drivers/STM32F3xx_HAL_Driver/Src/stm32f3xx_hal_tim_ex.c ****     
1920:Drivers/STM32F3xx_HAL_Driver/Src/stm32f3xx_hal_tim_ex.c ****     /* Clear the MMS2 bits */
1921:Drivers/STM32F3xx_HAL_Driver/Src/stm32f3xx_hal_tim_ex.c ****     tmpcr2 &= ~TIM_CR2_MMS2;
1922:Drivers/STM32F3xx_HAL_Driver/Src/stm32f3xx_hal_tim_ex.c ****     /* Select the TRGO2 source*/
1923:Drivers/STM32F3xx_HAL_Driver/Src/stm32f3xx_hal_tim_ex.c ****     tmpcr2 |= sMasterConfig->MasterOutputTrigger2;
1924:Drivers/STM32F3xx_HAL_Driver/Src/stm32f3xx_hal_tim_ex.c ****   }
1925:Drivers/STM32F3xx_HAL_Driver/Src/stm32f3xx_hal_tim_ex.c ****   
1926:Drivers/STM32F3xx_HAL_Driver/Src/stm32f3xx_hal_tim_ex.c ****   /* Reset the MMS Bits */
1927:Drivers/STM32F3xx_HAL_Driver/Src/stm32f3xx_hal_tim_ex.c ****   tmpcr2 &= ~TIM_CR2_MMS;
1928:Drivers/STM32F3xx_HAL_Driver/Src/stm32f3xx_hal_tim_ex.c ****   /* Select the TRGO source */
1929:Drivers/STM32F3xx_HAL_Driver/Src/stm32f3xx_hal_tim_ex.c ****   tmpcr2 |=  sMasterConfig->MasterOutputTrigger;
1930:Drivers/STM32F3xx_HAL_Driver/Src/stm32f3xx_hal_tim_ex.c **** 
1931:Drivers/STM32F3xx_HAL_Driver/Src/stm32f3xx_hal_tim_ex.c ****   /* Reset the MSM Bit */
1932:Drivers/STM32F3xx_HAL_Driver/Src/stm32f3xx_hal_tim_ex.c ****   tmpsmcr &= ~TIM_SMCR_MSM;
1933:Drivers/STM32F3xx_HAL_Driver/Src/stm32f3xx_hal_tim_ex.c ****   /* Set master mode */
1934:Drivers/STM32F3xx_HAL_Driver/Src/stm32f3xx_hal_tim_ex.c ****   tmpsmcr |= sMasterConfig->MasterSlaveMode;
1935:Drivers/STM32F3xx_HAL_Driver/Src/stm32f3xx_hal_tim_ex.c ****   
1936:Drivers/STM32F3xx_HAL_Driver/Src/stm32f3xx_hal_tim_ex.c ****   /* Update TIMx CR2 */
1937:Drivers/STM32F3xx_HAL_Driver/Src/stm32f3xx_hal_tim_ex.c ****   htim->Instance->CR2 = tmpcr2;
1938:Drivers/STM32F3xx_HAL_Driver/Src/stm32f3xx_hal_tim_ex.c ****   
1939:Drivers/STM32F3xx_HAL_Driver/Src/stm32f3xx_hal_tim_ex.c ****   /* Update TIMx SMCR */
1940:Drivers/STM32F3xx_HAL_Driver/Src/stm32f3xx_hal_tim_ex.c ****   htim->Instance->SMCR = tmpsmcr;
1941:Drivers/STM32F3xx_HAL_Driver/Src/stm32f3xx_hal_tim_ex.c **** 
1942:Drivers/STM32F3xx_HAL_Driver/Src/stm32f3xx_hal_tim_ex.c ****   __HAL_UNLOCK(htim);
1943:Drivers/STM32F3xx_HAL_Driver/Src/stm32f3xx_hal_tim_ex.c ****   
1944:Drivers/STM32F3xx_HAL_Driver/Src/stm32f3xx_hal_tim_ex.c ****   return HAL_OK;
1945:Drivers/STM32F3xx_HAL_Driver/Src/stm32f3xx_hal_tim_ex.c **** } 
ARM GAS  /tmp/cc1baImv.s 			page 50


1946:Drivers/STM32F3xx_HAL_Driver/Src/stm32f3xx_hal_tim_ex.c **** #endif /* STM32F302xE || STM32F303xE || STM32F398xx || */
1947:Drivers/STM32F3xx_HAL_Driver/Src/stm32f3xx_hal_tim_ex.c ****        /* STM32F302xC || STM32F303xC || STM32F358xx || */
1948:Drivers/STM32F3xx_HAL_Driver/Src/stm32f3xx_hal_tim_ex.c ****        /* STM32F303x8 || STM32F334x8 || STM32F328xx || */
1949:Drivers/STM32F3xx_HAL_Driver/Src/stm32f3xx_hal_tim_ex.c ****        /* STM32F301x8 || STM32F302x8 || STM32F318xx    */
1950:Drivers/STM32F3xx_HAL_Driver/Src/stm32f3xx_hal_tim_ex.c **** 
1951:Drivers/STM32F3xx_HAL_Driver/Src/stm32f3xx_hal_tim_ex.c **** #if defined(STM32F373xC) || defined(STM32F378xx)
1952:Drivers/STM32F3xx_HAL_Driver/Src/stm32f3xx_hal_tim_ex.c **** /**
1953:Drivers/STM32F3xx_HAL_Driver/Src/stm32f3xx_hal_tim_ex.c ****   * @brief  Configures the TIM in master mode.
1954:Drivers/STM32F3xx_HAL_Driver/Src/stm32f3xx_hal_tim_ex.c ****   * @param  htim TIM handle.   
1955:Drivers/STM32F3xx_HAL_Driver/Src/stm32f3xx_hal_tim_ex.c ****   * @param  sMasterConfig pointer to a TIM_MasterConfigTypeDef structure that
1956:Drivers/STM32F3xx_HAL_Driver/Src/stm32f3xx_hal_tim_ex.c ****   *         contains the selected trigger output (TRGO) and the Master/Slave 
1957:Drivers/STM32F3xx_HAL_Driver/Src/stm32f3xx_hal_tim_ex.c ****   *         mode. 
1958:Drivers/STM32F3xx_HAL_Driver/Src/stm32f3xx_hal_tim_ex.c ****   * @retval HAL status
1959:Drivers/STM32F3xx_HAL_Driver/Src/stm32f3xx_hal_tim_ex.c ****   */
1960:Drivers/STM32F3xx_HAL_Driver/Src/stm32f3xx_hal_tim_ex.c **** HAL_StatusTypeDef HAL_TIMEx_MasterConfigSynchronization(TIM_HandleTypeDef *htim, TIM_MasterConfigTy
1961:Drivers/STM32F3xx_HAL_Driver/Src/stm32f3xx_hal_tim_ex.c **** {
1962:Drivers/STM32F3xx_HAL_Driver/Src/stm32f3xx_hal_tim_ex.c ****   /* Check the parameters */
1963:Drivers/STM32F3xx_HAL_Driver/Src/stm32f3xx_hal_tim_ex.c ****   assert_param(IS_TIM_MASTER_INSTANCE(htim->Instance));
1964:Drivers/STM32F3xx_HAL_Driver/Src/stm32f3xx_hal_tim_ex.c ****   assert_param(IS_TIM_TRGO_SOURCE(sMasterConfig->MasterOutputTrigger));
1965:Drivers/STM32F3xx_HAL_Driver/Src/stm32f3xx_hal_tim_ex.c ****   assert_param(IS_TIM_MSM_STATE(sMasterConfig->MasterSlaveMode));
1966:Drivers/STM32F3xx_HAL_Driver/Src/stm32f3xx_hal_tim_ex.c ****   
1967:Drivers/STM32F3xx_HAL_Driver/Src/stm32f3xx_hal_tim_ex.c ****   __HAL_LOCK(htim);
1968:Drivers/STM32F3xx_HAL_Driver/Src/stm32f3xx_hal_tim_ex.c **** 
1969:Drivers/STM32F3xx_HAL_Driver/Src/stm32f3xx_hal_tim_ex.c ****   htim->State = HAL_TIM_STATE_BUSY;
1970:Drivers/STM32F3xx_HAL_Driver/Src/stm32f3xx_hal_tim_ex.c **** 
1971:Drivers/STM32F3xx_HAL_Driver/Src/stm32f3xx_hal_tim_ex.c ****   /* Reset the MMS Bits */
1972:Drivers/STM32F3xx_HAL_Driver/Src/stm32f3xx_hal_tim_ex.c ****   htim->Instance->CR2 &= ~TIM_CR2_MMS;
1973:Drivers/STM32F3xx_HAL_Driver/Src/stm32f3xx_hal_tim_ex.c ****   /* Select the TRGO source */
1974:Drivers/STM32F3xx_HAL_Driver/Src/stm32f3xx_hal_tim_ex.c ****   htim->Instance->CR2 |=  sMasterConfig->MasterOutputTrigger;
1975:Drivers/STM32F3xx_HAL_Driver/Src/stm32f3xx_hal_tim_ex.c **** 
1976:Drivers/STM32F3xx_HAL_Driver/Src/stm32f3xx_hal_tim_ex.c ****   /* Reset the MSM Bit */
1977:Drivers/STM32F3xx_HAL_Driver/Src/stm32f3xx_hal_tim_ex.c ****   htim->Instance->SMCR &= ~TIM_SMCR_MSM;
1978:Drivers/STM32F3xx_HAL_Driver/Src/stm32f3xx_hal_tim_ex.c ****   /* Set or Reset the MSM Bit */
1979:Drivers/STM32F3xx_HAL_Driver/Src/stm32f3xx_hal_tim_ex.c ****   htim->Instance->SMCR |= sMasterConfig->MasterSlaveMode;
1980:Drivers/STM32F3xx_HAL_Driver/Src/stm32f3xx_hal_tim_ex.c ****   
1981:Drivers/STM32F3xx_HAL_Driver/Src/stm32f3xx_hal_tim_ex.c ****   htim->State = HAL_TIM_STATE_READY;
1982:Drivers/STM32F3xx_HAL_Driver/Src/stm32f3xx_hal_tim_ex.c ****   
1983:Drivers/STM32F3xx_HAL_Driver/Src/stm32f3xx_hal_tim_ex.c ****   __HAL_UNLOCK(htim);
1984:Drivers/STM32F3xx_HAL_Driver/Src/stm32f3xx_hal_tim_ex.c ****   
1985:Drivers/STM32F3xx_HAL_Driver/Src/stm32f3xx_hal_tim_ex.c ****   return HAL_OK;
1986:Drivers/STM32F3xx_HAL_Driver/Src/stm32f3xx_hal_tim_ex.c **** }
1987:Drivers/STM32F3xx_HAL_Driver/Src/stm32f3xx_hal_tim_ex.c **** #endif /* STM32F373xC || STM32F378xx */
1988:Drivers/STM32F3xx_HAL_Driver/Src/stm32f3xx_hal_tim_ex.c **** 
1989:Drivers/STM32F3xx_HAL_Driver/Src/stm32f3xx_hal_tim_ex.c **** #if defined(STM32F302xE) || defined(STM32F303xE) || defined(STM32F398xx) || \
1990:Drivers/STM32F3xx_HAL_Driver/Src/stm32f3xx_hal_tim_ex.c ****     defined(STM32F302xC) || defined(STM32F303xC) || defined(STM32F358xx) || \
1991:Drivers/STM32F3xx_HAL_Driver/Src/stm32f3xx_hal_tim_ex.c ****     defined(STM32F303x8) || defined(STM32F334x8) || defined(STM32F328xx) || \
1992:Drivers/STM32F3xx_HAL_Driver/Src/stm32f3xx_hal_tim_ex.c ****     defined(STM32F301x8) || defined(STM32F302x8) || defined(STM32F318xx)
1993:Drivers/STM32F3xx_HAL_Driver/Src/stm32f3xx_hal_tim_ex.c **** /**
1994:Drivers/STM32F3xx_HAL_Driver/Src/stm32f3xx_hal_tim_ex.c ****   * @brief   Configures the Break feature, dead time, Lock level, OSSI/OSSR State
1995:Drivers/STM32F3xx_HAL_Driver/Src/stm32f3xx_hal_tim_ex.c ****   *         and the AOE(automatic output enable).
1996:Drivers/STM32F3xx_HAL_Driver/Src/stm32f3xx_hal_tim_ex.c ****   * @param  htim TIM handle
1997:Drivers/STM32F3xx_HAL_Driver/Src/stm32f3xx_hal_tim_ex.c ****   * @param  sBreakDeadTimeConfig pointer to a TIM_ConfigBreakDeadConfigTypeDef 
1998:Drivers/STM32F3xx_HAL_Driver/Src/stm32f3xx_hal_tim_ex.c ****             structure that contains the BDTR Register configuration information
1999:Drivers/STM32F3xx_HAL_Driver/Src/stm32f3xx_hal_tim_ex.c ****             for the TIM peripheral. 
2000:Drivers/STM32F3xx_HAL_Driver/Src/stm32f3xx_hal_tim_ex.c ****   * @note   For STM32F302xC, STM32F302xE, STM32F303xC, STM32F358xx, STM32F303xE,
2001:Drivers/STM32F3xx_HAL_Driver/Src/stm32f3xx_hal_tim_ex.c ****             STM32F398xx and STM32F303x8 two break inputs can be configured.
2002:Drivers/STM32F3xx_HAL_Driver/Src/stm32f3xx_hal_tim_ex.c ****   * @retval HAL status
ARM GAS  /tmp/cc1baImv.s 			page 51


2003:Drivers/STM32F3xx_HAL_Driver/Src/stm32f3xx_hal_tim_ex.c ****   */
2004:Drivers/STM32F3xx_HAL_Driver/Src/stm32f3xx_hal_tim_ex.c **** HAL_StatusTypeDef HAL_TIMEx_ConfigBreakDeadTime(TIM_HandleTypeDef *htim, 
2005:Drivers/STM32F3xx_HAL_Driver/Src/stm32f3xx_hal_tim_ex.c ****                                                 TIM_BreakDeadTimeConfigTypeDef * sBreakDeadTimeConf
2006:Drivers/STM32F3xx_HAL_Driver/Src/stm32f3xx_hal_tim_ex.c **** {
2007:Drivers/STM32F3xx_HAL_Driver/Src/stm32f3xx_hal_tim_ex.c ****   uint32_t tmpbdtr = 0U;
2008:Drivers/STM32F3xx_HAL_Driver/Src/stm32f3xx_hal_tim_ex.c ****   
2009:Drivers/STM32F3xx_HAL_Driver/Src/stm32f3xx_hal_tim_ex.c ****   /* Check the parameters */
2010:Drivers/STM32F3xx_HAL_Driver/Src/stm32f3xx_hal_tim_ex.c ****   assert_param(IS_TIM_BREAK_INSTANCE(htim->Instance));
2011:Drivers/STM32F3xx_HAL_Driver/Src/stm32f3xx_hal_tim_ex.c ****   assert_param(IS_TIM_OSSR_STATE(sBreakDeadTimeConfig->OffStateRunMode));
2012:Drivers/STM32F3xx_HAL_Driver/Src/stm32f3xx_hal_tim_ex.c ****   assert_param(IS_TIM_OSSI_STATE(sBreakDeadTimeConfig->OffStateIDLEMode));
2013:Drivers/STM32F3xx_HAL_Driver/Src/stm32f3xx_hal_tim_ex.c ****   assert_param(IS_TIM_LOCK_LEVEL(sBreakDeadTimeConfig->LockLevel));
2014:Drivers/STM32F3xx_HAL_Driver/Src/stm32f3xx_hal_tim_ex.c ****   assert_param(IS_TIM_DEADTIME(sBreakDeadTimeConfig->DeadTime));
2015:Drivers/STM32F3xx_HAL_Driver/Src/stm32f3xx_hal_tim_ex.c ****   assert_param(IS_TIM_BREAK_STATE(sBreakDeadTimeConfig->BreakState));
2016:Drivers/STM32F3xx_HAL_Driver/Src/stm32f3xx_hal_tim_ex.c ****   assert_param(IS_TIM_BREAK_POLARITY(sBreakDeadTimeConfig->BreakPolarity));
2017:Drivers/STM32F3xx_HAL_Driver/Src/stm32f3xx_hal_tim_ex.c ****   assert_param(IS_TIM_BREAK_FILTER(sBreakDeadTimeConfig->BreakFilter));
2018:Drivers/STM32F3xx_HAL_Driver/Src/stm32f3xx_hal_tim_ex.c ****   assert_param(IS_TIM_AUTOMATIC_OUTPUT_STATE(sBreakDeadTimeConfig->AutomaticOutput));
2019:Drivers/STM32F3xx_HAL_Driver/Src/stm32f3xx_hal_tim_ex.c ****   
2020:Drivers/STM32F3xx_HAL_Driver/Src/stm32f3xx_hal_tim_ex.c ****   /* Check input state */
2021:Drivers/STM32F3xx_HAL_Driver/Src/stm32f3xx_hal_tim_ex.c ****   __HAL_LOCK(htim);
2022:Drivers/STM32F3xx_HAL_Driver/Src/stm32f3xx_hal_tim_ex.c ****   
2023:Drivers/STM32F3xx_HAL_Driver/Src/stm32f3xx_hal_tim_ex.c ****   /* Set the Lock level, the Break enable Bit and the Polarity, the OSSR State,
2024:Drivers/STM32F3xx_HAL_Driver/Src/stm32f3xx_hal_tim_ex.c ****   the OSSI State, the dead time value and the Automatic Output Enable Bit */
2025:Drivers/STM32F3xx_HAL_Driver/Src/stm32f3xx_hal_tim_ex.c ****   
2026:Drivers/STM32F3xx_HAL_Driver/Src/stm32f3xx_hal_tim_ex.c ****   /* Set the BDTR bits */
2027:Drivers/STM32F3xx_HAL_Driver/Src/stm32f3xx_hal_tim_ex.c ****   MODIFY_REG(tmpbdtr, TIM_BDTR_DTG, sBreakDeadTimeConfig->DeadTime);
2028:Drivers/STM32F3xx_HAL_Driver/Src/stm32f3xx_hal_tim_ex.c ****   MODIFY_REG(tmpbdtr, TIM_BDTR_LOCK, sBreakDeadTimeConfig->LockLevel);
2029:Drivers/STM32F3xx_HAL_Driver/Src/stm32f3xx_hal_tim_ex.c ****   MODIFY_REG(tmpbdtr, TIM_BDTR_OSSI, sBreakDeadTimeConfig->OffStateIDLEMode);
2030:Drivers/STM32F3xx_HAL_Driver/Src/stm32f3xx_hal_tim_ex.c ****   MODIFY_REG(tmpbdtr, TIM_BDTR_OSSR, sBreakDeadTimeConfig->OffStateRunMode);
2031:Drivers/STM32F3xx_HAL_Driver/Src/stm32f3xx_hal_tim_ex.c ****   MODIFY_REG(tmpbdtr, TIM_BDTR_BKE, sBreakDeadTimeConfig->BreakState);
2032:Drivers/STM32F3xx_HAL_Driver/Src/stm32f3xx_hal_tim_ex.c ****   MODIFY_REG(tmpbdtr, TIM_BDTR_BKP, sBreakDeadTimeConfig->BreakPolarity);
2033:Drivers/STM32F3xx_HAL_Driver/Src/stm32f3xx_hal_tim_ex.c ****   MODIFY_REG(tmpbdtr, TIM_BDTR_AOE, sBreakDeadTimeConfig->AutomaticOutput);
2034:Drivers/STM32F3xx_HAL_Driver/Src/stm32f3xx_hal_tim_ex.c ****   MODIFY_REG(tmpbdtr, TIM_BDTR_MOE, sBreakDeadTimeConfig->AutomaticOutput);
2035:Drivers/STM32F3xx_HAL_Driver/Src/stm32f3xx_hal_tim_ex.c ****   MODIFY_REG(tmpbdtr, TIM_BDTR_BKF, (sBreakDeadTimeConfig->BreakFilter << BDTR_BKF_SHIFT));
2036:Drivers/STM32F3xx_HAL_Driver/Src/stm32f3xx_hal_tim_ex.c ****   
2037:Drivers/STM32F3xx_HAL_Driver/Src/stm32f3xx_hal_tim_ex.c ****   if (IS_TIM_BKIN2_INSTANCE(htim->Instance))
2038:Drivers/STM32F3xx_HAL_Driver/Src/stm32f3xx_hal_tim_ex.c ****   {
2039:Drivers/STM32F3xx_HAL_Driver/Src/stm32f3xx_hal_tim_ex.c ****     assert_param(IS_TIM_BREAK2_STATE(sBreakDeadTimeConfig->Break2State));
2040:Drivers/STM32F3xx_HAL_Driver/Src/stm32f3xx_hal_tim_ex.c ****     assert_param(IS_TIM_BREAK2_POLARITY(sBreakDeadTimeConfig->Break2Polarity));
2041:Drivers/STM32F3xx_HAL_Driver/Src/stm32f3xx_hal_tim_ex.c ****     assert_param(IS_TIM_BREAK_FILTER(sBreakDeadTimeConfig->Break2Filter));
2042:Drivers/STM32F3xx_HAL_Driver/Src/stm32f3xx_hal_tim_ex.c ****     
2043:Drivers/STM32F3xx_HAL_Driver/Src/stm32f3xx_hal_tim_ex.c ****     /* Set the BREAK2 input related BDTR bits */
2044:Drivers/STM32F3xx_HAL_Driver/Src/stm32f3xx_hal_tim_ex.c ****     MODIFY_REG(tmpbdtr, TIM_BDTR_BK2F, (sBreakDeadTimeConfig->Break2Filter << BDTR_BK2F_SHIFT));
2045:Drivers/STM32F3xx_HAL_Driver/Src/stm32f3xx_hal_tim_ex.c ****     MODIFY_REG(tmpbdtr, TIM_BDTR_BK2E, sBreakDeadTimeConfig->Break2State);
2046:Drivers/STM32F3xx_HAL_Driver/Src/stm32f3xx_hal_tim_ex.c ****     MODIFY_REG(tmpbdtr, TIM_BDTR_BK2P, sBreakDeadTimeConfig->Break2Polarity);
2047:Drivers/STM32F3xx_HAL_Driver/Src/stm32f3xx_hal_tim_ex.c ****   }
2048:Drivers/STM32F3xx_HAL_Driver/Src/stm32f3xx_hal_tim_ex.c ****   
2049:Drivers/STM32F3xx_HAL_Driver/Src/stm32f3xx_hal_tim_ex.c ****   /* Set TIMx_BDTR */
2050:Drivers/STM32F3xx_HAL_Driver/Src/stm32f3xx_hal_tim_ex.c ****   htim->Instance->BDTR = tmpbdtr;
2051:Drivers/STM32F3xx_HAL_Driver/Src/stm32f3xx_hal_tim_ex.c ****   
2052:Drivers/STM32F3xx_HAL_Driver/Src/stm32f3xx_hal_tim_ex.c ****   __HAL_UNLOCK(htim);
2053:Drivers/STM32F3xx_HAL_Driver/Src/stm32f3xx_hal_tim_ex.c **** 
2054:Drivers/STM32F3xx_HAL_Driver/Src/stm32f3xx_hal_tim_ex.c ****   return HAL_OK;
2055:Drivers/STM32F3xx_HAL_Driver/Src/stm32f3xx_hal_tim_ex.c **** }
2056:Drivers/STM32F3xx_HAL_Driver/Src/stm32f3xx_hal_tim_ex.c **** #endif /* STM32F302xE || STM32F303xE || STM32F398xx || */
2057:Drivers/STM32F3xx_HAL_Driver/Src/stm32f3xx_hal_tim_ex.c ****        /* STM32F302xC || STM32F303xC || STM32F358xx || */
2058:Drivers/STM32F3xx_HAL_Driver/Src/stm32f3xx_hal_tim_ex.c ****        /* STM32F303x8 || STM32F334x8 || STM32F328xx || */
2059:Drivers/STM32F3xx_HAL_Driver/Src/stm32f3xx_hal_tim_ex.c ****        /* STM32F301x8 || STM32F302x8 || STM32F318xx    */
ARM GAS  /tmp/cc1baImv.s 			page 52


2060:Drivers/STM32F3xx_HAL_Driver/Src/stm32f3xx_hal_tim_ex.c **** 
2061:Drivers/STM32F3xx_HAL_Driver/Src/stm32f3xx_hal_tim_ex.c **** #if defined(STM32F373xC) || defined(STM32F378xx)
2062:Drivers/STM32F3xx_HAL_Driver/Src/stm32f3xx_hal_tim_ex.c **** /**
2063:Drivers/STM32F3xx_HAL_Driver/Src/stm32f3xx_hal_tim_ex.c ****   * @brief   Configures the Break feature, dead time, Lock level, OSSI/OSSR State
2064:Drivers/STM32F3xx_HAL_Driver/Src/stm32f3xx_hal_tim_ex.c ****   *          and the AOE(automatic output enable).
2065:Drivers/STM32F3xx_HAL_Driver/Src/stm32f3xx_hal_tim_ex.c ****   * @param  htim TIM handle
2066:Drivers/STM32F3xx_HAL_Driver/Src/stm32f3xx_hal_tim_ex.c ****   * @param  sBreakDeadTimeConfig pointer to a TIM_ConfigBreakDeadConfigTypeDef structure that
2067:Drivers/STM32F3xx_HAL_Driver/Src/stm32f3xx_hal_tim_ex.c ****   *         contains the BDTR Register configuration  information for the TIM peripheral. 
2068:Drivers/STM32F3xx_HAL_Driver/Src/stm32f3xx_hal_tim_ex.c ****   * @retval HAL status
2069:Drivers/STM32F3xx_HAL_Driver/Src/stm32f3xx_hal_tim_ex.c ****   */    
2070:Drivers/STM32F3xx_HAL_Driver/Src/stm32f3xx_hal_tim_ex.c **** HAL_StatusTypeDef HAL_TIMEx_ConfigBreakDeadTime(TIM_HandleTypeDef *htim, 
2071:Drivers/STM32F3xx_HAL_Driver/Src/stm32f3xx_hal_tim_ex.c ****                                                 TIM_BreakDeadTimeConfigTypeDef *sBreakDeadTimeConfi
2072:Drivers/STM32F3xx_HAL_Driver/Src/stm32f3xx_hal_tim_ex.c **** {
2073:Drivers/STM32F3xx_HAL_Driver/Src/stm32f3xx_hal_tim_ex.c ****   uint32_t tmpbdtr = 0U;
2074:Drivers/STM32F3xx_HAL_Driver/Src/stm32f3xx_hal_tim_ex.c **** 
2075:Drivers/STM32F3xx_HAL_Driver/Src/stm32f3xx_hal_tim_ex.c ****   /* Check the parameters */
2076:Drivers/STM32F3xx_HAL_Driver/Src/stm32f3xx_hal_tim_ex.c ****   assert_param(IS_TIM_BREAK_INSTANCE(htim->Instance));
2077:Drivers/STM32F3xx_HAL_Driver/Src/stm32f3xx_hal_tim_ex.c ****   assert_param(IS_TIM_OSSR_STATE(sBreakDeadTimeConfig->OffStateRunMode));
2078:Drivers/STM32F3xx_HAL_Driver/Src/stm32f3xx_hal_tim_ex.c ****   assert_param(IS_TIM_OSSI_STATE(sBreakDeadTimeConfig->OffStateIDLEMode));
