ARM GAS  /tmp/ccuQngBj.s 			page 1


   1              		.cpu cortex-m4
   2              		.eabi_attribute 27, 1
   3              		.eabi_attribute 28, 1
   4              		.eabi_attribute 20, 1
   5              		.eabi_attribute 21, 1
   6              		.eabi_attribute 23, 3
   7              		.eabi_attribute 24, 1
   8              		.eabi_attribute 25, 1
   9              		.eabi_attribute 26, 1
  10              		.eabi_attribute 30, 2
  11              		.eabi_attribute 34, 1
  12              		.eabi_attribute 18, 4
  13              		.file	"stm32f3xx_hal_tim.c"
  14              		.text
  15              	.Ltext0:
  16              		.cfi_sections	.debug_frame
  17              		.section	.text.HAL_TIM_Base_MspInit,"ax",%progbits
  18              		.align	1
  19              		.p2align 2,,3
  20              		.weak	HAL_TIM_Base_MspInit
  21              		.arch armv7e-m
  22              		.syntax unified
  23              		.thumb
  24              		.thumb_func
  25              		.fpu fpv4-sp-d16
  27              	HAL_TIM_Base_MspInit:
  28              	.LVL0:
  29              	.LFB697:
  30              		.file 1 "Drivers/STM32F3xx_HAL_Driver/Src/stm32f3xx_hal_tim.c"
   1:Drivers/STM32F3xx_HAL_Driver/Src/stm32f3xx_hal_tim.c **** /**
   2:Drivers/STM32F3xx_HAL_Driver/Src/stm32f3xx_hal_tim.c ****   ******************************************************************************
   3:Drivers/STM32F3xx_HAL_Driver/Src/stm32f3xx_hal_tim.c ****   * @file    stm32f3xx_hal_tim.c
   4:Drivers/STM32F3xx_HAL_Driver/Src/stm32f3xx_hal_tim.c ****   * @author  MCD Application Team
   5:Drivers/STM32F3xx_HAL_Driver/Src/stm32f3xx_hal_tim.c ****   * @brief   TIM HAL module driver.
   6:Drivers/STM32F3xx_HAL_Driver/Src/stm32f3xx_hal_tim.c ****   *          This file provides firmware functions to manage the following 
   7:Drivers/STM32F3xx_HAL_Driver/Src/stm32f3xx_hal_tim.c ****   *          functionalities of the Timer (TIM) peripheral:
   8:Drivers/STM32F3xx_HAL_Driver/Src/stm32f3xx_hal_tim.c ****   *           + Time Base Initialization
   9:Drivers/STM32F3xx_HAL_Driver/Src/stm32f3xx_hal_tim.c ****   *           + Time Base Start
  10:Drivers/STM32F3xx_HAL_Driver/Src/stm32f3xx_hal_tim.c ****   *           + Time Base Start Interruption
  11:Drivers/STM32F3xx_HAL_Driver/Src/stm32f3xx_hal_tim.c ****   *           + Time Base Start DMA
  12:Drivers/STM32F3xx_HAL_Driver/Src/stm32f3xx_hal_tim.c ****   *           + Time Output Compare/PWM Initialization
  13:Drivers/STM32F3xx_HAL_Driver/Src/stm32f3xx_hal_tim.c ****   *           + Time Output Compare/PWM Channel Configuration
  14:Drivers/STM32F3xx_HAL_Driver/Src/stm32f3xx_hal_tim.c ****   *           + Time Output Compare/PWM  Start
  15:Drivers/STM32F3xx_HAL_Driver/Src/stm32f3xx_hal_tim.c ****   *           + Time Output Compare/PWM  Start Interruption
  16:Drivers/STM32F3xx_HAL_Driver/Src/stm32f3xx_hal_tim.c ****   *           + Time Output Compare/PWM Start DMA
  17:Drivers/STM32F3xx_HAL_Driver/Src/stm32f3xx_hal_tim.c ****   *           + Time Input Capture Initialization
  18:Drivers/STM32F3xx_HAL_Driver/Src/stm32f3xx_hal_tim.c ****   *           + Time Input Capture Channel Configuration
  19:Drivers/STM32F3xx_HAL_Driver/Src/stm32f3xx_hal_tim.c ****   *           + Time Input Capture Start
  20:Drivers/STM32F3xx_HAL_Driver/Src/stm32f3xx_hal_tim.c ****   *           + Time Input Capture Start Interruption 
  21:Drivers/STM32F3xx_HAL_Driver/Src/stm32f3xx_hal_tim.c ****   *           + Time Input Capture Start DMA
  22:Drivers/STM32F3xx_HAL_Driver/Src/stm32f3xx_hal_tim.c ****   *           + Time One Pulse Initialization
  23:Drivers/STM32F3xx_HAL_Driver/Src/stm32f3xx_hal_tim.c ****   *           + Time One Pulse Channel Configuration
  24:Drivers/STM32F3xx_HAL_Driver/Src/stm32f3xx_hal_tim.c ****   *           + Time One Pulse Start 
  25:Drivers/STM32F3xx_HAL_Driver/Src/stm32f3xx_hal_tim.c ****   *           + Time Encoder Interface Initialization
  26:Drivers/STM32F3xx_HAL_Driver/Src/stm32f3xx_hal_tim.c ****   *           + Time Encoder Interface Start
  27:Drivers/STM32F3xx_HAL_Driver/Src/stm32f3xx_hal_tim.c ****   *           + Time Encoder Interface Start Interruption
  28:Drivers/STM32F3xx_HAL_Driver/Src/stm32f3xx_hal_tim.c ****   *           + Time Encoder Interface Start DMA
ARM GAS  /tmp/ccuQngBj.s 			page 2


  29:Drivers/STM32F3xx_HAL_Driver/Src/stm32f3xx_hal_tim.c ****   *           + Commutation Event configuration with Interruption and DMA
  30:Drivers/STM32F3xx_HAL_Driver/Src/stm32f3xx_hal_tim.c ****   *           + Time OCRef clear configuration
  31:Drivers/STM32F3xx_HAL_Driver/Src/stm32f3xx_hal_tim.c ****   *           + Time External Clock configuration
  32:Drivers/STM32F3xx_HAL_Driver/Src/stm32f3xx_hal_tim.c ****   @verbatim
  33:Drivers/STM32F3xx_HAL_Driver/Src/stm32f3xx_hal_tim.c ****   ==============================================================================
  34:Drivers/STM32F3xx_HAL_Driver/Src/stm32f3xx_hal_tim.c ****                       ##### TIMER Generic features #####
  35:Drivers/STM32F3xx_HAL_Driver/Src/stm32f3xx_hal_tim.c ****   ==============================================================================
  36:Drivers/STM32F3xx_HAL_Driver/Src/stm32f3xx_hal_tim.c ****   [..] The Timer features include: 
  37:Drivers/STM32F3xx_HAL_Driver/Src/stm32f3xx_hal_tim.c ****        (#) 16-bit up, down, up/down auto-reload counter.
  38:Drivers/STM32F3xx_HAL_Driver/Src/stm32f3xx_hal_tim.c ****        (#) 16-bit programmable prescaler allowing dividing (also on the fly) the 
  39:Drivers/STM32F3xx_HAL_Driver/Src/stm32f3xx_hal_tim.c ****            counter clock frequency either by any factor between 1 and 65536.
  40:Drivers/STM32F3xx_HAL_Driver/Src/stm32f3xx_hal_tim.c ****        (#) Up to 4 independent channels for:
  41:Drivers/STM32F3xx_HAL_Driver/Src/stm32f3xx_hal_tim.c ****            (++) Input Capture
  42:Drivers/STM32F3xx_HAL_Driver/Src/stm32f3xx_hal_tim.c ****            (++) Output Compare
  43:Drivers/STM32F3xx_HAL_Driver/Src/stm32f3xx_hal_tim.c ****            (++) PWM generation (Edge and Center-aligned Mode)
  44:Drivers/STM32F3xx_HAL_Driver/Src/stm32f3xx_hal_tim.c ****            (++) One-pulse mode output               
  45:Drivers/STM32F3xx_HAL_Driver/Src/stm32f3xx_hal_tim.c ****    
  46:Drivers/STM32F3xx_HAL_Driver/Src/stm32f3xx_hal_tim.c ****             ##### How to use this driver #####
  47:Drivers/STM32F3xx_HAL_Driver/Src/stm32f3xx_hal_tim.c ****   ==============================================================================
  48:Drivers/STM32F3xx_HAL_Driver/Src/stm32f3xx_hal_tim.c ****     [..]
  49:Drivers/STM32F3xx_HAL_Driver/Src/stm32f3xx_hal_tim.c ****      (#) Initialize the TIM low level resources by implementing the following functions 
  50:Drivers/STM32F3xx_HAL_Driver/Src/stm32f3xx_hal_tim.c ****          depending from feature used :
  51:Drivers/STM32F3xx_HAL_Driver/Src/stm32f3xx_hal_tim.c ****            (++) Time Base : HAL_TIM_Base_MspInit() 
  52:Drivers/STM32F3xx_HAL_Driver/Src/stm32f3xx_hal_tim.c ****            (++) Input Capture : HAL_TIM_IC_MspInit()
  53:Drivers/STM32F3xx_HAL_Driver/Src/stm32f3xx_hal_tim.c ****            (++) Output Compare : HAL_TIM_OC_MspInit()
  54:Drivers/STM32F3xx_HAL_Driver/Src/stm32f3xx_hal_tim.c ****            (++) PWM generation : HAL_TIM_PWM_MspInit()
  55:Drivers/STM32F3xx_HAL_Driver/Src/stm32f3xx_hal_tim.c ****            (++) One-pulse mode output : HAL_TIM_OnePulse_MspInit()
  56:Drivers/STM32F3xx_HAL_Driver/Src/stm32f3xx_hal_tim.c ****            (++) Encoder mode output : HAL_TIM_Encoder_MspInit()
  57:Drivers/STM32F3xx_HAL_Driver/Src/stm32f3xx_hal_tim.c ****            
  58:Drivers/STM32F3xx_HAL_Driver/Src/stm32f3xx_hal_tim.c ****      (#) Initialize the TIM low level resources :
  59:Drivers/STM32F3xx_HAL_Driver/Src/stm32f3xx_hal_tim.c ****         (##) Enable the TIM interface clock using __HAL_RCC_TIMx_CLK_ENABLE  (); 
  60:Drivers/STM32F3xx_HAL_Driver/Src/stm32f3xx_hal_tim.c ****         (##) TIM pins configuration
  61:Drivers/STM32F3xx_HAL_Driver/Src/stm32f3xx_hal_tim.c ****             (+++) Enable the clock for the TIM GPIOs using the following function:
  62:Drivers/STM32F3xx_HAL_Driver/Src/stm32f3xx_hal_tim.c ****              __HAL_RCC_GPIOx_CLK_ENABLE();   
  63:Drivers/STM32F3xx_HAL_Driver/Src/stm32f3xx_hal_tim.c ****             (+++) Configure these TIM pins in Alternate function mode using HAL_GPIO_Init();  
  64:Drivers/STM32F3xx_HAL_Driver/Src/stm32f3xx_hal_tim.c **** 
  65:Drivers/STM32F3xx_HAL_Driver/Src/stm32f3xx_hal_tim.c ****      (#) The external Clock can be configured, if needed (the default clock is the 
  66:Drivers/STM32F3xx_HAL_Driver/Src/stm32f3xx_hal_tim.c ****          internal clock from the APBx), using the following function:
  67:Drivers/STM32F3xx_HAL_Driver/Src/stm32f3xx_hal_tim.c ****          HAL_TIM_ConfigClockSource, the clock configuration should be done before 
  68:Drivers/STM32F3xx_HAL_Driver/Src/stm32f3xx_hal_tim.c ****          any start function.
  69:Drivers/STM32F3xx_HAL_Driver/Src/stm32f3xx_hal_tim.c ****   
  70:Drivers/STM32F3xx_HAL_Driver/Src/stm32f3xx_hal_tim.c ****      (#) Configure the TIM in the desired functioning mode using one of the 
  71:Drivers/STM32F3xx_HAL_Driver/Src/stm32f3xx_hal_tim.c ****        Initialization function of this driver:
  72:Drivers/STM32F3xx_HAL_Driver/Src/stm32f3xx_hal_tim.c ****        (++) HAL_TIM_Base_Init: to use the Timer to generate a simple time base
  73:Drivers/STM32F3xx_HAL_Driver/Src/stm32f3xx_hal_tim.c ****        (++) HAL_TIM_OC_Init and HAL_TIM_OC_ConfigChannel: to use the Timer to generate an 
  74:Drivers/STM32F3xx_HAL_Driver/Src/stm32f3xx_hal_tim.c ****             Output Compare signal.
  75:Drivers/STM32F3xx_HAL_Driver/Src/stm32f3xx_hal_tim.c ****        (++) HAL_TIM_PWM_Init and HAL_TIM_PWM_ConfigChannel: to use the Timer to generate a 
  76:Drivers/STM32F3xx_HAL_Driver/Src/stm32f3xx_hal_tim.c ****             PWM signal.
  77:Drivers/STM32F3xx_HAL_Driver/Src/stm32f3xx_hal_tim.c ****        (++) HAL_TIM_IC_Init and HAL_TIM_IC_ConfigChannel: to use the Timer to measure an 
  78:Drivers/STM32F3xx_HAL_Driver/Src/stm32f3xx_hal_tim.c ****             external signal.
  79:Drivers/STM32F3xx_HAL_Driver/Src/stm32f3xx_hal_tim.c ****          (++) HAL_TIM_OnePulse_Init and HAL_TIM_OnePulse_ConfigChannel: to use the Timer 
  80:Drivers/STM32F3xx_HAL_Driver/Src/stm32f3xx_hal_tim.c ****               in One Pulse Mode.
  81:Drivers/STM32F3xx_HAL_Driver/Src/stm32f3xx_hal_tim.c ****        (++) HAL_TIM_Encoder_Init: to use the Timer Encoder Interface.
  82:Drivers/STM32F3xx_HAL_Driver/Src/stm32f3xx_hal_tim.c **** 
  83:Drivers/STM32F3xx_HAL_Driver/Src/stm32f3xx_hal_tim.c ****      (#) Activate the TIM peripheral using one of the start functions depending from the feature us
  84:Drivers/STM32F3xx_HAL_Driver/Src/stm32f3xx_hal_tim.c ****            (++) Time Base : HAL_TIM_Base_Start(), HAL_TIM_Base_Start_DMA(), HAL_TIM_Base_Start_IT()
  85:Drivers/STM32F3xx_HAL_Driver/Src/stm32f3xx_hal_tim.c ****            (++) Input Capture :  HAL_TIM_IC_Start(), HAL_TIM_IC_Start_DMA(), HAL_TIM_IC_Start_IT()
ARM GAS  /tmp/ccuQngBj.s 			page 3


  86:Drivers/STM32F3xx_HAL_Driver/Src/stm32f3xx_hal_tim.c ****            (++) Output Compare : HAL_TIM_OC_Start(), HAL_TIM_OC_Start_DMA(), HAL_TIM_OC_Start_IT()
  87:Drivers/STM32F3xx_HAL_Driver/Src/stm32f3xx_hal_tim.c ****            (++) PWM generation : HAL_TIM_PWM_Start(), HAL_TIM_PWM_Start_DMA(), HAL_TIM_PWM_Start_IT
  88:Drivers/STM32F3xx_HAL_Driver/Src/stm32f3xx_hal_tim.c ****            (++) One-pulse mode output : HAL_TIM_OnePulse_Start(), HAL_TIM_OnePulse_Start_IT()
  89:Drivers/STM32F3xx_HAL_Driver/Src/stm32f3xx_hal_tim.c ****            (++) Encoder mode output : HAL_TIM_Encoder_Start(), HAL_TIM_Encoder_Start_DMA(), HAL_TIM
  90:Drivers/STM32F3xx_HAL_Driver/Src/stm32f3xx_hal_tim.c **** 
  91:Drivers/STM32F3xx_HAL_Driver/Src/stm32f3xx_hal_tim.c ****      (#) The DMA Burst is managed with the two following functions:
  92:Drivers/STM32F3xx_HAL_Driver/Src/stm32f3xx_hal_tim.c ****          HAL_TIM_DMABurst_WriteStart()
  93:Drivers/STM32F3xx_HAL_Driver/Src/stm32f3xx_hal_tim.c ****          HAL_TIM_DMABurst_ReadStart()
  94:Drivers/STM32F3xx_HAL_Driver/Src/stm32f3xx_hal_tim.c ****   
  95:Drivers/STM32F3xx_HAL_Driver/Src/stm32f3xx_hal_tim.c ****   @endverbatim
  96:Drivers/STM32F3xx_HAL_Driver/Src/stm32f3xx_hal_tim.c ****   ******************************************************************************
  97:Drivers/STM32F3xx_HAL_Driver/Src/stm32f3xx_hal_tim.c ****   * @attention
  98:Drivers/STM32F3xx_HAL_Driver/Src/stm32f3xx_hal_tim.c ****   *
  99:Drivers/STM32F3xx_HAL_Driver/Src/stm32f3xx_hal_tim.c ****   * <h2><center>&copy; COPYRIGHT(c) 2016 STMicroelectronics</center></h2>
 100:Drivers/STM32F3xx_HAL_Driver/Src/stm32f3xx_hal_tim.c ****   *
 101:Drivers/STM32F3xx_HAL_Driver/Src/stm32f3xx_hal_tim.c ****   * Redistribution and use in source and binary forms, with or without modification,
 102:Drivers/STM32F3xx_HAL_Driver/Src/stm32f3xx_hal_tim.c ****   * are permitted provided that the following conditions are met:
 103:Drivers/STM32F3xx_HAL_Driver/Src/stm32f3xx_hal_tim.c ****   *   1. Redistributions of source code must retain the above copyright notice,
 104:Drivers/STM32F3xx_HAL_Driver/Src/stm32f3xx_hal_tim.c ****   *      this list of conditions and the following disclaimer.
 105:Drivers/STM32F3xx_HAL_Driver/Src/stm32f3xx_hal_tim.c ****   *   2. Redistributions in binary form must reproduce the above copyright notice,
 106:Drivers/STM32F3xx_HAL_Driver/Src/stm32f3xx_hal_tim.c ****   *      this list of conditions and the following disclaimer in the documentation
 107:Drivers/STM32F3xx_HAL_Driver/Src/stm32f3xx_hal_tim.c ****   *      and/or other materials provided with the distribution.
 108:Drivers/STM32F3xx_HAL_Driver/Src/stm32f3xx_hal_tim.c ****   *   3. Neither the name of STMicroelectronics nor the names of its contributors
 109:Drivers/STM32F3xx_HAL_Driver/Src/stm32f3xx_hal_tim.c ****   *      may be used to endorse or promote products derived from this software
 110:Drivers/STM32F3xx_HAL_Driver/Src/stm32f3xx_hal_tim.c ****   *      without specific prior written permission.
 111:Drivers/STM32F3xx_HAL_Driver/Src/stm32f3xx_hal_tim.c ****   *
 112:Drivers/STM32F3xx_HAL_Driver/Src/stm32f3xx_hal_tim.c ****   * THIS SOFTWARE IS PROVIDED BY THE COPYRIGHT HOLDERS AND CONTRIBUTORS "AS IS"
 113:Drivers/STM32F3xx_HAL_Driver/Src/stm32f3xx_hal_tim.c ****   * AND ANY EXPRESS OR IMPLIED WARRANTIES, INCLUDING, BUT NOT LIMITED TO, THE
 114:Drivers/STM32F3xx_HAL_Driver/Src/stm32f3xx_hal_tim.c ****   * IMPLIED WARRANTIES OF MERCHANTABILITY AND FITNESS FOR A PARTICULAR PURPOSE ARE
 115:Drivers/STM32F3xx_HAL_Driver/Src/stm32f3xx_hal_tim.c ****   * DISCLAIMED. IN NO EVENT SHALL THE COPYRIGHT HOLDER OR CONTRIBUTORS BE LIABLE
 116:Drivers/STM32F3xx_HAL_Driver/Src/stm32f3xx_hal_tim.c ****   * FOR ANY DIRECT, INDIRECT, INCIDENTAL, SPECIAL, EXEMPLARY, OR CONSEQUENTIAL
 117:Drivers/STM32F3xx_HAL_Driver/Src/stm32f3xx_hal_tim.c ****   * DAMAGES (INCLUDING, BUT NOT LIMITED TO, PROCUREMENT OF SUBSTITUTE GOODS OR
 118:Drivers/STM32F3xx_HAL_Driver/Src/stm32f3xx_hal_tim.c ****   * SERVICES; LOSS OF USE, DATA, OR PROFITS; OR BUSINESS INTERRUPTION) HOWEVER
 119:Drivers/STM32F3xx_HAL_Driver/Src/stm32f3xx_hal_tim.c ****   * CAUSED AND ON ANY THEORY OF LIABILITY, WHETHER IN CONTRACT, STRICT LIABILITY,
 120:Drivers/STM32F3xx_HAL_Driver/Src/stm32f3xx_hal_tim.c ****   * OR TORT (INCLUDING NEGLIGENCE OR OTHERWISE) ARISING IN ANY WAY OUT OF THE USE
 121:Drivers/STM32F3xx_HAL_Driver/Src/stm32f3xx_hal_tim.c ****   * OF THIS SOFTWARE, EVEN IF ADVISED OF THE POSSIBILITY OF SUCH DAMAGE.
 122:Drivers/STM32F3xx_HAL_Driver/Src/stm32f3xx_hal_tim.c ****   *
 123:Drivers/STM32F3xx_HAL_Driver/Src/stm32f3xx_hal_tim.c ****   ******************************************************************************  
 124:Drivers/STM32F3xx_HAL_Driver/Src/stm32f3xx_hal_tim.c ****   */ 
 125:Drivers/STM32F3xx_HAL_Driver/Src/stm32f3xx_hal_tim.c **** 
 126:Drivers/STM32F3xx_HAL_Driver/Src/stm32f3xx_hal_tim.c **** /* Includes ------------------------------------------------------------------*/
 127:Drivers/STM32F3xx_HAL_Driver/Src/stm32f3xx_hal_tim.c **** #include "stm32f3xx_hal.h"
 128:Drivers/STM32F3xx_HAL_Driver/Src/stm32f3xx_hal_tim.c **** 
 129:Drivers/STM32F3xx_HAL_Driver/Src/stm32f3xx_hal_tim.c **** /** @addtogroup STM32F3xx_HAL_Driver
 130:Drivers/STM32F3xx_HAL_Driver/Src/stm32f3xx_hal_tim.c ****   * @{
 131:Drivers/STM32F3xx_HAL_Driver/Src/stm32f3xx_hal_tim.c ****   */
 132:Drivers/STM32F3xx_HAL_Driver/Src/stm32f3xx_hal_tim.c **** 
 133:Drivers/STM32F3xx_HAL_Driver/Src/stm32f3xx_hal_tim.c **** /** @defgroup TIM TIM
 134:Drivers/STM32F3xx_HAL_Driver/Src/stm32f3xx_hal_tim.c ****   * @brief TIM HAL module driver
 135:Drivers/STM32F3xx_HAL_Driver/Src/stm32f3xx_hal_tim.c ****   * @{
 136:Drivers/STM32F3xx_HAL_Driver/Src/stm32f3xx_hal_tim.c ****   */
 137:Drivers/STM32F3xx_HAL_Driver/Src/stm32f3xx_hal_tim.c **** 
 138:Drivers/STM32F3xx_HAL_Driver/Src/stm32f3xx_hal_tim.c **** #ifdef HAL_TIM_MODULE_ENABLED
 139:Drivers/STM32F3xx_HAL_Driver/Src/stm32f3xx_hal_tim.c **** 
 140:Drivers/STM32F3xx_HAL_Driver/Src/stm32f3xx_hal_tim.c **** /* Private typedef -----------------------------------------------------------*/
 141:Drivers/STM32F3xx_HAL_Driver/Src/stm32f3xx_hal_tim.c **** /* Private define ------------------------------------------------------------*/
 142:Drivers/STM32F3xx_HAL_Driver/Src/stm32f3xx_hal_tim.c **** /* Private macro -------------------------------------------------------------*/
ARM GAS  /tmp/ccuQngBj.s 			page 4


 143:Drivers/STM32F3xx_HAL_Driver/Src/stm32f3xx_hal_tim.c **** /* Private variables ---------------------------------------------------------*/
 144:Drivers/STM32F3xx_HAL_Driver/Src/stm32f3xx_hal_tim.c **** /* Private function prototypes -----------------------------------------------*/
 145:Drivers/STM32F3xx_HAL_Driver/Src/stm32f3xx_hal_tim.c **** 
 146:Drivers/STM32F3xx_HAL_Driver/Src/stm32f3xx_hal_tim.c **** /** @defgroup TIM_Private_Functions TIM Private Functions
 147:Drivers/STM32F3xx_HAL_Driver/Src/stm32f3xx_hal_tim.c ****   * @{
 148:Drivers/STM32F3xx_HAL_Driver/Src/stm32f3xx_hal_tim.c ****   */
 149:Drivers/STM32F3xx_HAL_Driver/Src/stm32f3xx_hal_tim.c **** static void TIM_TI1_ConfigInputStage(TIM_TypeDef *TIMx, uint32_t TIM_ICPolarity, uint32_t TIM_ICFil
 150:Drivers/STM32F3xx_HAL_Driver/Src/stm32f3xx_hal_tim.c **** static void TIM_TI2_SetConfig(TIM_TypeDef *TIMx, uint32_t TIM_ICPolarity, uint32_t TIM_ICSelection,
 151:Drivers/STM32F3xx_HAL_Driver/Src/stm32f3xx_hal_tim.c ****                        uint32_t TIM_ICFilter);
 152:Drivers/STM32F3xx_HAL_Driver/Src/stm32f3xx_hal_tim.c **** static void TIM_TI2_ConfigInputStage(TIM_TypeDef *TIMx, uint32_t TIM_ICPolarity, uint32_t TIM_ICFil
 153:Drivers/STM32F3xx_HAL_Driver/Src/stm32f3xx_hal_tim.c **** static void TIM_TI3_SetConfig(TIM_TypeDef *TIMx, uint32_t TIM_ICPolarity, uint32_t TIM_ICSelection,
 154:Drivers/STM32F3xx_HAL_Driver/Src/stm32f3xx_hal_tim.c ****                        uint32_t TIM_ICFilter);
 155:Drivers/STM32F3xx_HAL_Driver/Src/stm32f3xx_hal_tim.c **** static void TIM_TI4_SetConfig(TIM_TypeDef *TIMx, uint32_t TIM_ICPolarity, uint32_t TIM_ICSelection,
 156:Drivers/STM32F3xx_HAL_Driver/Src/stm32f3xx_hal_tim.c ****                        uint32_t TIM_ICFilter);
 157:Drivers/STM32F3xx_HAL_Driver/Src/stm32f3xx_hal_tim.c **** static void TIM_ITRx_SetConfig(TIM_TypeDef* TIMx, uint16_t InputTriggerSource);
 158:Drivers/STM32F3xx_HAL_Driver/Src/stm32f3xx_hal_tim.c **** static void TIM_DMAPeriodElapsedCplt(DMA_HandleTypeDef *hdma);
 159:Drivers/STM32F3xx_HAL_Driver/Src/stm32f3xx_hal_tim.c **** static void TIM_DMATriggerCplt(DMA_HandleTypeDef *hdma);
 160:Drivers/STM32F3xx_HAL_Driver/Src/stm32f3xx_hal_tim.c **** static void TIM_SlaveTimer_SetConfig(TIM_HandleTypeDef *htim,
 161:Drivers/STM32F3xx_HAL_Driver/Src/stm32f3xx_hal_tim.c ****                                      TIM_SlaveConfigTypeDef * sSlaveConfig);
 162:Drivers/STM32F3xx_HAL_Driver/Src/stm32f3xx_hal_tim.c **** 
 163:Drivers/STM32F3xx_HAL_Driver/Src/stm32f3xx_hal_tim.c **** /**
 164:Drivers/STM32F3xx_HAL_Driver/Src/stm32f3xx_hal_tim.c ****   * @}
 165:Drivers/STM32F3xx_HAL_Driver/Src/stm32f3xx_hal_tim.c ****   */
 166:Drivers/STM32F3xx_HAL_Driver/Src/stm32f3xx_hal_tim.c **** 
 167:Drivers/STM32F3xx_HAL_Driver/Src/stm32f3xx_hal_tim.c **** /* Exported functions ---------------------------------------------------------*/
 168:Drivers/STM32F3xx_HAL_Driver/Src/stm32f3xx_hal_tim.c **** 
 169:Drivers/STM32F3xx_HAL_Driver/Src/stm32f3xx_hal_tim.c **** /** @defgroup TIM_Exported_Functions TIM Exported Functions
 170:Drivers/STM32F3xx_HAL_Driver/Src/stm32f3xx_hal_tim.c ****   * @{
 171:Drivers/STM32F3xx_HAL_Driver/Src/stm32f3xx_hal_tim.c ****   */
 172:Drivers/STM32F3xx_HAL_Driver/Src/stm32f3xx_hal_tim.c **** 
 173:Drivers/STM32F3xx_HAL_Driver/Src/stm32f3xx_hal_tim.c **** /** @defgroup TIM_Exported_Functions_Group1 Time Base functions 
 174:Drivers/STM32F3xx_HAL_Driver/Src/stm32f3xx_hal_tim.c ****  *  @brief    Time Base functions 
 175:Drivers/STM32F3xx_HAL_Driver/Src/stm32f3xx_hal_tim.c ****  *
 176:Drivers/STM32F3xx_HAL_Driver/Src/stm32f3xx_hal_tim.c **** @verbatim    
 177:Drivers/STM32F3xx_HAL_Driver/Src/stm32f3xx_hal_tim.c ****   ==============================================================================
 178:Drivers/STM32F3xx_HAL_Driver/Src/stm32f3xx_hal_tim.c ****               ##### Time Base functions #####
 179:Drivers/STM32F3xx_HAL_Driver/Src/stm32f3xx_hal_tim.c ****   ==============================================================================
 180:Drivers/STM32F3xx_HAL_Driver/Src/stm32f3xx_hal_tim.c ****   [..]  
 181:Drivers/STM32F3xx_HAL_Driver/Src/stm32f3xx_hal_tim.c ****     This section provides functions allowing to:
 182:Drivers/STM32F3xx_HAL_Driver/Src/stm32f3xx_hal_tim.c ****     (+) Initialize and configure the TIM base. 
 183:Drivers/STM32F3xx_HAL_Driver/Src/stm32f3xx_hal_tim.c ****     (+) De-initialize the TIM base.
 184:Drivers/STM32F3xx_HAL_Driver/Src/stm32f3xx_hal_tim.c ****     (+) Start the Time Base.
 185:Drivers/STM32F3xx_HAL_Driver/Src/stm32f3xx_hal_tim.c ****     (+) Stop the Time Base.
 186:Drivers/STM32F3xx_HAL_Driver/Src/stm32f3xx_hal_tim.c ****     (+) Start the Time Base and enable interrupt.
 187:Drivers/STM32F3xx_HAL_Driver/Src/stm32f3xx_hal_tim.c ****     (+) Stop the Time Base and disable interrupt.
 188:Drivers/STM32F3xx_HAL_Driver/Src/stm32f3xx_hal_tim.c ****     (+) Start the Time Base and enable DMA transfer.
 189:Drivers/STM32F3xx_HAL_Driver/Src/stm32f3xx_hal_tim.c ****     (+) Stop the Time Base and disable DMA transfer.
 190:Drivers/STM32F3xx_HAL_Driver/Src/stm32f3xx_hal_tim.c ****  
 191:Drivers/STM32F3xx_HAL_Driver/Src/stm32f3xx_hal_tim.c **** @endverbatim
 192:Drivers/STM32F3xx_HAL_Driver/Src/stm32f3xx_hal_tim.c ****   * @{
 193:Drivers/STM32F3xx_HAL_Driver/Src/stm32f3xx_hal_tim.c ****   */
 194:Drivers/STM32F3xx_HAL_Driver/Src/stm32f3xx_hal_tim.c **** /**
 195:Drivers/STM32F3xx_HAL_Driver/Src/stm32f3xx_hal_tim.c ****   * @brief  Initializes the TIM Time base Unit according to the specified
 196:Drivers/STM32F3xx_HAL_Driver/Src/stm32f3xx_hal_tim.c ****   *         parameters in the TIM_HandleTypeDef and create the associated handle.
 197:Drivers/STM32F3xx_HAL_Driver/Src/stm32f3xx_hal_tim.c ****   * @param  htim TIM Base handle
 198:Drivers/STM32F3xx_HAL_Driver/Src/stm32f3xx_hal_tim.c ****   * @retval HAL status
 199:Drivers/STM32F3xx_HAL_Driver/Src/stm32f3xx_hal_tim.c ****   */
ARM GAS  /tmp/ccuQngBj.s 			page 5


 200:Drivers/STM32F3xx_HAL_Driver/Src/stm32f3xx_hal_tim.c **** HAL_StatusTypeDef HAL_TIM_Base_Init(TIM_HandleTypeDef *htim)
 201:Drivers/STM32F3xx_HAL_Driver/Src/stm32f3xx_hal_tim.c **** { 
 202:Drivers/STM32F3xx_HAL_Driver/Src/stm32f3xx_hal_tim.c ****   /* Check the TIM handle allocation */
 203:Drivers/STM32F3xx_HAL_Driver/Src/stm32f3xx_hal_tim.c ****   if(htim == NULL)
 204:Drivers/STM32F3xx_HAL_Driver/Src/stm32f3xx_hal_tim.c ****   {
 205:Drivers/STM32F3xx_HAL_Driver/Src/stm32f3xx_hal_tim.c ****     return HAL_ERROR;
 206:Drivers/STM32F3xx_HAL_Driver/Src/stm32f3xx_hal_tim.c ****   }
 207:Drivers/STM32F3xx_HAL_Driver/Src/stm32f3xx_hal_tim.c ****   
 208:Drivers/STM32F3xx_HAL_Driver/Src/stm32f3xx_hal_tim.c ****   /* Check the parameters */
 209:Drivers/STM32F3xx_HAL_Driver/Src/stm32f3xx_hal_tim.c ****   assert_param(IS_TIM_INSTANCE(htim->Instance)); 
 210:Drivers/STM32F3xx_HAL_Driver/Src/stm32f3xx_hal_tim.c ****   assert_param(IS_TIM_COUNTER_MODE(htim->Init.CounterMode));
 211:Drivers/STM32F3xx_HAL_Driver/Src/stm32f3xx_hal_tim.c ****   assert_param(IS_TIM_CLOCKDIVISION_DIV(htim->Init.ClockDivision));
 212:Drivers/STM32F3xx_HAL_Driver/Src/stm32f3xx_hal_tim.c ****   assert_param(IS_TIM_AUTORELOAD_PRELOAD(htim->Init.AutoReloadPreload));
 213:Drivers/STM32F3xx_HAL_Driver/Src/stm32f3xx_hal_tim.c ****   
 214:Drivers/STM32F3xx_HAL_Driver/Src/stm32f3xx_hal_tim.c ****   if(htim->State == HAL_TIM_STATE_RESET)
 215:Drivers/STM32F3xx_HAL_Driver/Src/stm32f3xx_hal_tim.c ****   {  
 216:Drivers/STM32F3xx_HAL_Driver/Src/stm32f3xx_hal_tim.c ****     /* Allocate lock resource and initialize it */
 217:Drivers/STM32F3xx_HAL_Driver/Src/stm32f3xx_hal_tim.c ****     htim->Lock = HAL_UNLOCKED;
 218:Drivers/STM32F3xx_HAL_Driver/Src/stm32f3xx_hal_tim.c **** 
 219:Drivers/STM32F3xx_HAL_Driver/Src/stm32f3xx_hal_tim.c ****     /* Init the low level hardware : GPIO, CLOCK, NVIC */
 220:Drivers/STM32F3xx_HAL_Driver/Src/stm32f3xx_hal_tim.c ****     HAL_TIM_Base_MspInit(htim);
 221:Drivers/STM32F3xx_HAL_Driver/Src/stm32f3xx_hal_tim.c ****   }
 222:Drivers/STM32F3xx_HAL_Driver/Src/stm32f3xx_hal_tim.c ****   
 223:Drivers/STM32F3xx_HAL_Driver/Src/stm32f3xx_hal_tim.c ****   /* Set the TIM state */
 224:Drivers/STM32F3xx_HAL_Driver/Src/stm32f3xx_hal_tim.c ****   htim->State= HAL_TIM_STATE_BUSY;
 225:Drivers/STM32F3xx_HAL_Driver/Src/stm32f3xx_hal_tim.c ****   
 226:Drivers/STM32F3xx_HAL_Driver/Src/stm32f3xx_hal_tim.c ****   /* Set the Time Base configuration */
 227:Drivers/STM32F3xx_HAL_Driver/Src/stm32f3xx_hal_tim.c ****   TIM_Base_SetConfig(htim->Instance, &htim->Init); 
 228:Drivers/STM32F3xx_HAL_Driver/Src/stm32f3xx_hal_tim.c ****   
 229:Drivers/STM32F3xx_HAL_Driver/Src/stm32f3xx_hal_tim.c ****   /* Initialize the TIM state*/
 230:Drivers/STM32F3xx_HAL_Driver/Src/stm32f3xx_hal_tim.c ****   htim->State= HAL_TIM_STATE_READY;
 231:Drivers/STM32F3xx_HAL_Driver/Src/stm32f3xx_hal_tim.c ****   
 232:Drivers/STM32F3xx_HAL_Driver/Src/stm32f3xx_hal_tim.c ****   return HAL_OK;
 233:Drivers/STM32F3xx_HAL_Driver/Src/stm32f3xx_hal_tim.c **** }
 234:Drivers/STM32F3xx_HAL_Driver/Src/stm32f3xx_hal_tim.c **** 
 235:Drivers/STM32F3xx_HAL_Driver/Src/stm32f3xx_hal_tim.c **** /**
 236:Drivers/STM32F3xx_HAL_Driver/Src/stm32f3xx_hal_tim.c ****   * @brief  DeInitializes the TIM Base peripheral 
 237:Drivers/STM32F3xx_HAL_Driver/Src/stm32f3xx_hal_tim.c ****   * @param  htim TIM Base handle
 238:Drivers/STM32F3xx_HAL_Driver/Src/stm32f3xx_hal_tim.c ****   * @retval HAL status
 239:Drivers/STM32F3xx_HAL_Driver/Src/stm32f3xx_hal_tim.c ****   */
 240:Drivers/STM32F3xx_HAL_Driver/Src/stm32f3xx_hal_tim.c **** HAL_StatusTypeDef HAL_TIM_Base_DeInit(TIM_HandleTypeDef *htim)
 241:Drivers/STM32F3xx_HAL_Driver/Src/stm32f3xx_hal_tim.c **** {
 242:Drivers/STM32F3xx_HAL_Driver/Src/stm32f3xx_hal_tim.c ****   /* Check the parameters */
 243:Drivers/STM32F3xx_HAL_Driver/Src/stm32f3xx_hal_tim.c ****   assert_param(IS_TIM_INSTANCE(htim->Instance));
 244:Drivers/STM32F3xx_HAL_Driver/Src/stm32f3xx_hal_tim.c ****    
 245:Drivers/STM32F3xx_HAL_Driver/Src/stm32f3xx_hal_tim.c ****   htim->State = HAL_TIM_STATE_BUSY;
 246:Drivers/STM32F3xx_HAL_Driver/Src/stm32f3xx_hal_tim.c ****    
 247:Drivers/STM32F3xx_HAL_Driver/Src/stm32f3xx_hal_tim.c ****   /* Disable the TIM Peripheral Clock */
 248:Drivers/STM32F3xx_HAL_Driver/Src/stm32f3xx_hal_tim.c ****   __HAL_TIM_DISABLE(htim);
 249:Drivers/STM32F3xx_HAL_Driver/Src/stm32f3xx_hal_tim.c ****     
 250:Drivers/STM32F3xx_HAL_Driver/Src/stm32f3xx_hal_tim.c ****   /* DeInit the low level hardware: GPIO, CLOCK, NVIC */
 251:Drivers/STM32F3xx_HAL_Driver/Src/stm32f3xx_hal_tim.c ****   HAL_TIM_Base_MspDeInit(htim);
 252:Drivers/STM32F3xx_HAL_Driver/Src/stm32f3xx_hal_tim.c ****     
 253:Drivers/STM32F3xx_HAL_Driver/Src/stm32f3xx_hal_tim.c ****   /* Change TIM state */  
 254:Drivers/STM32F3xx_HAL_Driver/Src/stm32f3xx_hal_tim.c ****   htim->State = HAL_TIM_STATE_RESET; 
 255:Drivers/STM32F3xx_HAL_Driver/Src/stm32f3xx_hal_tim.c ****   
 256:Drivers/STM32F3xx_HAL_Driver/Src/stm32f3xx_hal_tim.c ****   /* Release Lock */
ARM GAS  /tmp/ccuQngBj.s 			page 6


 257:Drivers/STM32F3xx_HAL_Driver/Src/stm32f3xx_hal_tim.c ****   __HAL_UNLOCK(htim);
 258:Drivers/STM32F3xx_HAL_Driver/Src/stm32f3xx_hal_tim.c **** 
 259:Drivers/STM32F3xx_HAL_Driver/Src/stm32f3xx_hal_tim.c ****   return HAL_OK;
 260:Drivers/STM32F3xx_HAL_Driver/Src/stm32f3xx_hal_tim.c **** }
 261:Drivers/STM32F3xx_HAL_Driver/Src/stm32f3xx_hal_tim.c **** 
 262:Drivers/STM32F3xx_HAL_Driver/Src/stm32f3xx_hal_tim.c **** /**
 263:Drivers/STM32F3xx_HAL_Driver/Src/stm32f3xx_hal_tim.c ****   * @brief  Initializes the TIM Base MSP.
 264:Drivers/STM32F3xx_HAL_Driver/Src/stm32f3xx_hal_tim.c ****   * @param  htim TIM handle
 265:Drivers/STM32F3xx_HAL_Driver/Src/stm32f3xx_hal_tim.c ****   * @retval None
 266:Drivers/STM32F3xx_HAL_Driver/Src/stm32f3xx_hal_tim.c ****   */
 267:Drivers/STM32F3xx_HAL_Driver/Src/stm32f3xx_hal_tim.c **** __weak void HAL_TIM_Base_MspInit(TIM_HandleTypeDef *htim)
 268:Drivers/STM32F3xx_HAL_Driver/Src/stm32f3xx_hal_tim.c **** {
  31              		.loc 1 268 1 view -0
  32              		.cfi_startproc
  33              		@ args = 0, pretend = 0, frame = 0
  34              		@ frame_needed = 0, uses_anonymous_args = 0
  35              		@ link register save eliminated.
 269:Drivers/STM32F3xx_HAL_Driver/Src/stm32f3xx_hal_tim.c ****   /* Prevent unused argument(s) compilation warning */
 270:Drivers/STM32F3xx_HAL_Driver/Src/stm32f3xx_hal_tim.c ****   UNUSED(htim);
  36              		.loc 1 270 3 view .LVU1
 271:Drivers/STM32F3xx_HAL_Driver/Src/stm32f3xx_hal_tim.c **** 
 272:Drivers/STM32F3xx_HAL_Driver/Src/stm32f3xx_hal_tim.c ****   /* NOTE : This function Should not be modified, when the callback is needed,
 273:Drivers/STM32F3xx_HAL_Driver/Src/stm32f3xx_hal_tim.c ****             the HAL_TIM_Base_MspInit could be implemented in the user file
 274:Drivers/STM32F3xx_HAL_Driver/Src/stm32f3xx_hal_tim.c ****    */
 275:Drivers/STM32F3xx_HAL_Driver/Src/stm32f3xx_hal_tim.c **** }
  37              		.loc 1 275 1 is_stmt 0 view .LVU2
  38 0000 7047     		bx	lr
  39              		.cfi_endproc
  40              	.LFE697:
  42 0002 00BF     		.section	.text.HAL_TIM_Base_Init,"ax",%progbits
  43              		.align	1
  44              		.p2align 2,,3
  45              		.global	HAL_TIM_Base_Init
  46              		.syntax unified
  47              		.thumb
  48              		.thumb_func
  49              		.fpu fpv4-sp-d16
  51              	HAL_TIM_Base_Init:
  52              	.LVL1:
  53              	.LFB695:
 201:Drivers/STM32F3xx_HAL_Driver/Src/stm32f3xx_hal_tim.c ****   /* Check the TIM handle allocation */
  54              		.loc 1 201 1 is_stmt 1 view -0
  55              		.cfi_startproc
  56              		@ args = 0, pretend = 0, frame = 0
  57              		@ frame_needed = 0, uses_anonymous_args = 0
 203:Drivers/STM32F3xx_HAL_Driver/Src/stm32f3xx_hal_tim.c ****   {
  58              		.loc 1 203 3 view .LVU4
 203:Drivers/STM32F3xx_HAL_Driver/Src/stm32f3xx_hal_tim.c ****   {
  59              		.loc 1 203 5 is_stmt 0 view .LVU5
  60 0000 0028     		cmp	r0, #0
  61 0002 51D0     		beq	.L16
 209:Drivers/STM32F3xx_HAL_Driver/Src/stm32f3xx_hal_tim.c ****   assert_param(IS_TIM_COUNTER_MODE(htim->Init.CounterMode));
  62              		.loc 1 209 3 is_stmt 1 view .LVU6
 210:Drivers/STM32F3xx_HAL_Driver/Src/stm32f3xx_hal_tim.c ****   assert_param(IS_TIM_CLOCKDIVISION_DIV(htim->Init.ClockDivision));
  63              		.loc 1 210 3 view .LVU7
 211:Drivers/STM32F3xx_HAL_Driver/Src/stm32f3xx_hal_tim.c ****   assert_param(IS_TIM_AUTORELOAD_PRELOAD(htim->Init.AutoReloadPreload));
  64              		.loc 1 211 3 view .LVU8
ARM GAS  /tmp/ccuQngBj.s 			page 7


 212:Drivers/STM32F3xx_HAL_Driver/Src/stm32f3xx_hal_tim.c ****   
  65              		.loc 1 212 3 view .LVU9
 214:Drivers/STM32F3xx_HAL_Driver/Src/stm32f3xx_hal_tim.c ****   {  
  66              		.loc 1 214 3 view .LVU10
 201:Drivers/STM32F3xx_HAL_Driver/Src/stm32f3xx_hal_tim.c ****   /* Check the TIM handle allocation */
  67              		.loc 1 201 1 is_stmt 0 view .LVU11
  68 0004 F8B5     		push	{r3, r4, r5, r6, r7, lr}
  69              	.LCFI0:
  70              		.cfi_def_cfa_offset 24
  71              		.cfi_offset 3, -24
  72              		.cfi_offset 4, -20
  73              		.cfi_offset 5, -16
  74              		.cfi_offset 6, -12
  75              		.cfi_offset 7, -8
  76              		.cfi_offset 14, -4
 214:Drivers/STM32F3xx_HAL_Driver/Src/stm32f3xx_hal_tim.c ****   {  
  77              		.loc 1 214 10 view .LVU12
  78 0006 90F83D30 		ldrb	r3, [r0, #61]	@ zero_extendqisi2
  79 000a 0446     		mov	r4, r0
 214:Drivers/STM32F3xx_HAL_Driver/Src/stm32f3xx_hal_tim.c ****   {  
  80              		.loc 1 214 5 view .LVU13
  81 000c 03F0FF02 		and	r2, r3, #255
  82 0010 002B     		cmp	r3, #0
  83 0012 33D0     		beq	.L25
  84              	.LVL2:
  85              	.L5:
 224:Drivers/STM32F3xx_HAL_Driver/Src/stm32f3xx_hal_tim.c ****   
  86              		.loc 1 224 3 is_stmt 1 view .LVU14
 227:Drivers/STM32F3xx_HAL_Driver/Src/stm32f3xx_hal_tim.c ****   
  87              		.loc 1 227 3 is_stmt 0 view .LVU15
  88 0014 2268     		ldr	r2, [r4]
  89              	.LBB144:
  90              	.LBB145:
 276:Drivers/STM32F3xx_HAL_Driver/Src/stm32f3xx_hal_tim.c **** 
 277:Drivers/STM32F3xx_HAL_Driver/Src/stm32f3xx_hal_tim.c **** /**
 278:Drivers/STM32F3xx_HAL_Driver/Src/stm32f3xx_hal_tim.c ****   * @brief  DeInitializes TIM Base MSP.
 279:Drivers/STM32F3xx_HAL_Driver/Src/stm32f3xx_hal_tim.c ****   * @param  htim TIM handle
 280:Drivers/STM32F3xx_HAL_Driver/Src/stm32f3xx_hal_tim.c ****   * @retval None
 281:Drivers/STM32F3xx_HAL_Driver/Src/stm32f3xx_hal_tim.c ****   */
 282:Drivers/STM32F3xx_HAL_Driver/Src/stm32f3xx_hal_tim.c **** __weak void HAL_TIM_Base_MspDeInit(TIM_HandleTypeDef *htim)
 283:Drivers/STM32F3xx_HAL_Driver/Src/stm32f3xx_hal_tim.c **** {
 284:Drivers/STM32F3xx_HAL_Driver/Src/stm32f3xx_hal_tim.c ****   /* Prevent unused argument(s) compilation warning */
 285:Drivers/STM32F3xx_HAL_Driver/Src/stm32f3xx_hal_tim.c ****   UNUSED(htim);
 286:Drivers/STM32F3xx_HAL_Driver/Src/stm32f3xx_hal_tim.c **** 
 287:Drivers/STM32F3xx_HAL_Driver/Src/stm32f3xx_hal_tim.c ****   /* NOTE : This function Should not be modified, when the callback is needed,
 288:Drivers/STM32F3xx_HAL_Driver/Src/stm32f3xx_hal_tim.c ****             the HAL_TIM_Base_MspDeInit could be implemented in the user file
 289:Drivers/STM32F3xx_HAL_Driver/Src/stm32f3xx_hal_tim.c ****    */
 290:Drivers/STM32F3xx_HAL_Driver/Src/stm32f3xx_hal_tim.c **** }
 291:Drivers/STM32F3xx_HAL_Driver/Src/stm32f3xx_hal_tim.c **** 
 292:Drivers/STM32F3xx_HAL_Driver/Src/stm32f3xx_hal_tim.c **** 
 293:Drivers/STM32F3xx_HAL_Driver/Src/stm32f3xx_hal_tim.c **** /**
 294:Drivers/STM32F3xx_HAL_Driver/Src/stm32f3xx_hal_tim.c ****   * @brief  Starts the TIM Base generation.
 295:Drivers/STM32F3xx_HAL_Driver/Src/stm32f3xx_hal_tim.c ****   * @param  htim TIM handle
 296:Drivers/STM32F3xx_HAL_Driver/Src/stm32f3xx_hal_tim.c ****   * @retval HAL status
 297:Drivers/STM32F3xx_HAL_Driver/Src/stm32f3xx_hal_tim.c **** */
 298:Drivers/STM32F3xx_HAL_Driver/Src/stm32f3xx_hal_tim.c **** HAL_StatusTypeDef HAL_TIM_Base_Start(TIM_HandleTypeDef *htim)
 299:Drivers/STM32F3xx_HAL_Driver/Src/stm32f3xx_hal_tim.c **** {
ARM GAS  /tmp/ccuQngBj.s 			page 8


 300:Drivers/STM32F3xx_HAL_Driver/Src/stm32f3xx_hal_tim.c ****   /* Check the parameters */
 301:Drivers/STM32F3xx_HAL_Driver/Src/stm32f3xx_hal_tim.c ****   assert_param(IS_TIM_INSTANCE(htim->Instance));
 302:Drivers/STM32F3xx_HAL_Driver/Src/stm32f3xx_hal_tim.c ****   
 303:Drivers/STM32F3xx_HAL_Driver/Src/stm32f3xx_hal_tim.c ****   /* Set the TIM state */
 304:Drivers/STM32F3xx_HAL_Driver/Src/stm32f3xx_hal_tim.c ****   htim->State= HAL_TIM_STATE_BUSY;
 305:Drivers/STM32F3xx_HAL_Driver/Src/stm32f3xx_hal_tim.c ****   
 306:Drivers/STM32F3xx_HAL_Driver/Src/stm32f3xx_hal_tim.c ****   /* Enable the Peripheral */
 307:Drivers/STM32F3xx_HAL_Driver/Src/stm32f3xx_hal_tim.c ****   __HAL_TIM_ENABLE(htim);
 308:Drivers/STM32F3xx_HAL_Driver/Src/stm32f3xx_hal_tim.c ****   
 309:Drivers/STM32F3xx_HAL_Driver/Src/stm32f3xx_hal_tim.c ****   /* Change the TIM state*/
 310:Drivers/STM32F3xx_HAL_Driver/Src/stm32f3xx_hal_tim.c ****   htim->State= HAL_TIM_STATE_READY;
 311:Drivers/STM32F3xx_HAL_Driver/Src/stm32f3xx_hal_tim.c ****   
 312:Drivers/STM32F3xx_HAL_Driver/Src/stm32f3xx_hal_tim.c ****   /* Return function status */
 313:Drivers/STM32F3xx_HAL_Driver/Src/stm32f3xx_hal_tim.c ****   return HAL_OK;
 314:Drivers/STM32F3xx_HAL_Driver/Src/stm32f3xx_hal_tim.c **** }
 315:Drivers/STM32F3xx_HAL_Driver/Src/stm32f3xx_hal_tim.c **** 
 316:Drivers/STM32F3xx_HAL_Driver/Src/stm32f3xx_hal_tim.c **** /**
 317:Drivers/STM32F3xx_HAL_Driver/Src/stm32f3xx_hal_tim.c ****   * @brief  Stops the TIM Base generation.
 318:Drivers/STM32F3xx_HAL_Driver/Src/stm32f3xx_hal_tim.c ****   * @param  htim TIM handle
 319:Drivers/STM32F3xx_HAL_Driver/Src/stm32f3xx_hal_tim.c ****   * @retval HAL status
 320:Drivers/STM32F3xx_HAL_Driver/Src/stm32f3xx_hal_tim.c **** */
 321:Drivers/STM32F3xx_HAL_Driver/Src/stm32f3xx_hal_tim.c **** HAL_StatusTypeDef HAL_TIM_Base_Stop(TIM_HandleTypeDef *htim)
 322:Drivers/STM32F3xx_HAL_Driver/Src/stm32f3xx_hal_tim.c **** {
 323:Drivers/STM32F3xx_HAL_Driver/Src/stm32f3xx_hal_tim.c ****   /* Check the parameters */
 324:Drivers/STM32F3xx_HAL_Driver/Src/stm32f3xx_hal_tim.c ****   assert_param(IS_TIM_INSTANCE(htim->Instance));
 325:Drivers/STM32F3xx_HAL_Driver/Src/stm32f3xx_hal_tim.c ****   
 326:Drivers/STM32F3xx_HAL_Driver/Src/stm32f3xx_hal_tim.c ****   /* Set the TIM state */
 327:Drivers/STM32F3xx_HAL_Driver/Src/stm32f3xx_hal_tim.c ****   htim->State= HAL_TIM_STATE_BUSY;
 328:Drivers/STM32F3xx_HAL_Driver/Src/stm32f3xx_hal_tim.c ****   
 329:Drivers/STM32F3xx_HAL_Driver/Src/stm32f3xx_hal_tim.c ****   /* Disable the Peripheral */
 330:Drivers/STM32F3xx_HAL_Driver/Src/stm32f3xx_hal_tim.c ****   __HAL_TIM_DISABLE(htim);
 331:Drivers/STM32F3xx_HAL_Driver/Src/stm32f3xx_hal_tim.c ****   
 332:Drivers/STM32F3xx_HAL_Driver/Src/stm32f3xx_hal_tim.c ****   /* Change the TIM state*/
 333:Drivers/STM32F3xx_HAL_Driver/Src/stm32f3xx_hal_tim.c ****   htim->State= HAL_TIM_STATE_READY;
 334:Drivers/STM32F3xx_HAL_Driver/Src/stm32f3xx_hal_tim.c ****   
 335:Drivers/STM32F3xx_HAL_Driver/Src/stm32f3xx_hal_tim.c ****   /* Return function status */
 336:Drivers/STM32F3xx_HAL_Driver/Src/stm32f3xx_hal_tim.c ****   return HAL_OK;
 337:Drivers/STM32F3xx_HAL_Driver/Src/stm32f3xx_hal_tim.c **** }
 338:Drivers/STM32F3xx_HAL_Driver/Src/stm32f3xx_hal_tim.c **** 
 339:Drivers/STM32F3xx_HAL_Driver/Src/stm32f3xx_hal_tim.c **** /**
 340:Drivers/STM32F3xx_HAL_Driver/Src/stm32f3xx_hal_tim.c ****   * @brief  Starts the TIM Base generation in interrupt mode.
 341:Drivers/STM32F3xx_HAL_Driver/Src/stm32f3xx_hal_tim.c ****   * @param  htim TIM handle
 342:Drivers/STM32F3xx_HAL_Driver/Src/stm32f3xx_hal_tim.c ****   * @retval HAL status
 343:Drivers/STM32F3xx_HAL_Driver/Src/stm32f3xx_hal_tim.c **** */
 344:Drivers/STM32F3xx_HAL_Driver/Src/stm32f3xx_hal_tim.c **** HAL_StatusTypeDef HAL_TIM_Base_Start_IT(TIM_HandleTypeDef *htim)
 345:Drivers/STM32F3xx_HAL_Driver/Src/stm32f3xx_hal_tim.c **** {
 346:Drivers/STM32F3xx_HAL_Driver/Src/stm32f3xx_hal_tim.c ****   /* Check the parameters */
 347:Drivers/STM32F3xx_HAL_Driver/Src/stm32f3xx_hal_tim.c ****   assert_param(IS_TIM_INSTANCE(htim->Instance));
 348:Drivers/STM32F3xx_HAL_Driver/Src/stm32f3xx_hal_tim.c ****   
 349:Drivers/STM32F3xx_HAL_Driver/Src/stm32f3xx_hal_tim.c ****    /* Enable the TIM Update interrupt */
 350:Drivers/STM32F3xx_HAL_Driver/Src/stm32f3xx_hal_tim.c ****    __HAL_TIM_ENABLE_IT(htim, TIM_IT_UPDATE);
 351:Drivers/STM32F3xx_HAL_Driver/Src/stm32f3xx_hal_tim.c ****       
 352:Drivers/STM32F3xx_HAL_Driver/Src/stm32f3xx_hal_tim.c ****    /* Enable the Peripheral */
 353:Drivers/STM32F3xx_HAL_Driver/Src/stm32f3xx_hal_tim.c ****   __HAL_TIM_ENABLE(htim);
 354:Drivers/STM32F3xx_HAL_Driver/Src/stm32f3xx_hal_tim.c ****       
 355:Drivers/STM32F3xx_HAL_Driver/Src/stm32f3xx_hal_tim.c ****   /* Return function status */
 356:Drivers/STM32F3xx_HAL_Driver/Src/stm32f3xx_hal_tim.c ****   return HAL_OK;
ARM GAS  /tmp/ccuQngBj.s 			page 9


 357:Drivers/STM32F3xx_HAL_Driver/Src/stm32f3xx_hal_tim.c **** }
 358:Drivers/STM32F3xx_HAL_Driver/Src/stm32f3xx_hal_tim.c **** 
 359:Drivers/STM32F3xx_HAL_Driver/Src/stm32f3xx_hal_tim.c **** /**
 360:Drivers/STM32F3xx_HAL_Driver/Src/stm32f3xx_hal_tim.c ****   * @brief  Stops the TIM Base generation in interrupt mode.
 361:Drivers/STM32F3xx_HAL_Driver/Src/stm32f3xx_hal_tim.c ****   * @param  htim TIM handle
 362:Drivers/STM32F3xx_HAL_Driver/Src/stm32f3xx_hal_tim.c ****   * @retval HAL status
 363:Drivers/STM32F3xx_HAL_Driver/Src/stm32f3xx_hal_tim.c **** */
 364:Drivers/STM32F3xx_HAL_Driver/Src/stm32f3xx_hal_tim.c **** HAL_StatusTypeDef HAL_TIM_Base_Stop_IT(TIM_HandleTypeDef *htim)
 365:Drivers/STM32F3xx_HAL_Driver/Src/stm32f3xx_hal_tim.c **** {
 366:Drivers/STM32F3xx_HAL_Driver/Src/stm32f3xx_hal_tim.c ****   /* Check the parameters */
 367:Drivers/STM32F3xx_HAL_Driver/Src/stm32f3xx_hal_tim.c ****   assert_param(IS_TIM_INSTANCE(htim->Instance));
 368:Drivers/STM32F3xx_HAL_Driver/Src/stm32f3xx_hal_tim.c ****   /* Disable the TIM Update interrupt */
 369:Drivers/STM32F3xx_HAL_Driver/Src/stm32f3xx_hal_tim.c ****   __HAL_TIM_DISABLE_IT(htim, TIM_IT_UPDATE);
 370:Drivers/STM32F3xx_HAL_Driver/Src/stm32f3xx_hal_tim.c ****       
 371:Drivers/STM32F3xx_HAL_Driver/Src/stm32f3xx_hal_tim.c ****   /* Disable the Peripheral */
 372:Drivers/STM32F3xx_HAL_Driver/Src/stm32f3xx_hal_tim.c ****   __HAL_TIM_DISABLE(htim);
 373:Drivers/STM32F3xx_HAL_Driver/Src/stm32f3xx_hal_tim.c ****     
 374:Drivers/STM32F3xx_HAL_Driver/Src/stm32f3xx_hal_tim.c ****   /* Return function status */
 375:Drivers/STM32F3xx_HAL_Driver/Src/stm32f3xx_hal_tim.c ****   return HAL_OK;
 376:Drivers/STM32F3xx_HAL_Driver/Src/stm32f3xx_hal_tim.c **** }
 377:Drivers/STM32F3xx_HAL_Driver/Src/stm32f3xx_hal_tim.c **** 
 378:Drivers/STM32F3xx_HAL_Driver/Src/stm32f3xx_hal_tim.c **** /**
 379:Drivers/STM32F3xx_HAL_Driver/Src/stm32f3xx_hal_tim.c ****   * @brief  Starts the TIM Base generation in DMA mode.
 380:Drivers/STM32F3xx_HAL_Driver/Src/stm32f3xx_hal_tim.c ****   * @param  htim TIM handle
 381:Drivers/STM32F3xx_HAL_Driver/Src/stm32f3xx_hal_tim.c ****   * @param  pData The source Buffer address.
 382:Drivers/STM32F3xx_HAL_Driver/Src/stm32f3xx_hal_tim.c ****   * @param  Length The length of data to be transferred from memory to peripheral.
 383:Drivers/STM32F3xx_HAL_Driver/Src/stm32f3xx_hal_tim.c ****   * @retval HAL status
 384:Drivers/STM32F3xx_HAL_Driver/Src/stm32f3xx_hal_tim.c **** */
 385:Drivers/STM32F3xx_HAL_Driver/Src/stm32f3xx_hal_tim.c **** HAL_StatusTypeDef HAL_TIM_Base_Start_DMA(TIM_HandleTypeDef *htim, uint32_t *pData, uint16_t Length)
 386:Drivers/STM32F3xx_HAL_Driver/Src/stm32f3xx_hal_tim.c **** { 
 387:Drivers/STM32F3xx_HAL_Driver/Src/stm32f3xx_hal_tim.c ****   /* Check the parameters */
 388:Drivers/STM32F3xx_HAL_Driver/Src/stm32f3xx_hal_tim.c ****   assert_param(IS_TIM_DMA_INSTANCE(htim->Instance)); 
 389:Drivers/STM32F3xx_HAL_Driver/Src/stm32f3xx_hal_tim.c ****   
 390:Drivers/STM32F3xx_HAL_Driver/Src/stm32f3xx_hal_tim.c ****   if((htim->State == HAL_TIM_STATE_BUSY))
 391:Drivers/STM32F3xx_HAL_Driver/Src/stm32f3xx_hal_tim.c ****   {
 392:Drivers/STM32F3xx_HAL_Driver/Src/stm32f3xx_hal_tim.c ****      return HAL_BUSY;
 393:Drivers/STM32F3xx_HAL_Driver/Src/stm32f3xx_hal_tim.c ****   }
 394:Drivers/STM32F3xx_HAL_Driver/Src/stm32f3xx_hal_tim.c ****   else if((htim->State == HAL_TIM_STATE_READY))
 395:Drivers/STM32F3xx_HAL_Driver/Src/stm32f3xx_hal_tim.c ****   {
 396:Drivers/STM32F3xx_HAL_Driver/Src/stm32f3xx_hal_tim.c ****     if((pData == 0U ) && (Length > 0U)) 
 397:Drivers/STM32F3xx_HAL_Driver/Src/stm32f3xx_hal_tim.c ****     {
 398:Drivers/STM32F3xx_HAL_Driver/Src/stm32f3xx_hal_tim.c ****       return HAL_ERROR;                                    
 399:Drivers/STM32F3xx_HAL_Driver/Src/stm32f3xx_hal_tim.c ****     }
 400:Drivers/STM32F3xx_HAL_Driver/Src/stm32f3xx_hal_tim.c ****     else
 401:Drivers/STM32F3xx_HAL_Driver/Src/stm32f3xx_hal_tim.c ****     {
 402:Drivers/STM32F3xx_HAL_Driver/Src/stm32f3xx_hal_tim.c ****       htim->State = HAL_TIM_STATE_BUSY;
 403:Drivers/STM32F3xx_HAL_Driver/Src/stm32f3xx_hal_tim.c ****     }
 404:Drivers/STM32F3xx_HAL_Driver/Src/stm32f3xx_hal_tim.c ****   }  
 405:Drivers/STM32F3xx_HAL_Driver/Src/stm32f3xx_hal_tim.c ****   /* Set the DMA Period elapsed callback */
 406:Drivers/STM32F3xx_HAL_Driver/Src/stm32f3xx_hal_tim.c ****   htim->hdma[TIM_DMA_ID_UPDATE]->XferCpltCallback = TIM_DMAPeriodElapsedCplt;
 407:Drivers/STM32F3xx_HAL_Driver/Src/stm32f3xx_hal_tim.c ****      
 408:Drivers/STM32F3xx_HAL_Driver/Src/stm32f3xx_hal_tim.c ****   /* Set the DMA error callback */
 409:Drivers/STM32F3xx_HAL_Driver/Src/stm32f3xx_hal_tim.c ****   htim->hdma[TIM_DMA_ID_UPDATE]->XferErrorCallback = TIM_DMAError ;
 410:Drivers/STM32F3xx_HAL_Driver/Src/stm32f3xx_hal_tim.c ****   
 411:Drivers/STM32F3xx_HAL_Driver/Src/stm32f3xx_hal_tim.c ****   /* Enable the DMA channel */
 412:Drivers/STM32F3xx_HAL_Driver/Src/stm32f3xx_hal_tim.c ****   HAL_DMA_Start_IT(htim->hdma[TIM_DMA_ID_UPDATE], (uint32_t)pData, (uint32_t)&htim->Instance->ARR, 
 413:Drivers/STM32F3xx_HAL_Driver/Src/stm32f3xx_hal_tim.c ****   
ARM GAS  /tmp/ccuQngBj.s 			page 10


 414:Drivers/STM32F3xx_HAL_Driver/Src/stm32f3xx_hal_tim.c ****   /* Enable the TIM Update DMA request */
 415:Drivers/STM32F3xx_HAL_Driver/Src/stm32f3xx_hal_tim.c ****   __HAL_TIM_ENABLE_DMA(htim, TIM_DMA_UPDATE);
 416:Drivers/STM32F3xx_HAL_Driver/Src/stm32f3xx_hal_tim.c **** 
 417:Drivers/STM32F3xx_HAL_Driver/Src/stm32f3xx_hal_tim.c ****   /* Enable the Peripheral */
 418:Drivers/STM32F3xx_HAL_Driver/Src/stm32f3xx_hal_tim.c ****   __HAL_TIM_ENABLE(htim);  
 419:Drivers/STM32F3xx_HAL_Driver/Src/stm32f3xx_hal_tim.c ****   
 420:Drivers/STM32F3xx_HAL_Driver/Src/stm32f3xx_hal_tim.c ****   /* Return function status */
 421:Drivers/STM32F3xx_HAL_Driver/Src/stm32f3xx_hal_tim.c ****   return HAL_OK;
 422:Drivers/STM32F3xx_HAL_Driver/Src/stm32f3xx_hal_tim.c **** }
 423:Drivers/STM32F3xx_HAL_Driver/Src/stm32f3xx_hal_tim.c **** 
 424:Drivers/STM32F3xx_HAL_Driver/Src/stm32f3xx_hal_tim.c **** /**
 425:Drivers/STM32F3xx_HAL_Driver/Src/stm32f3xx_hal_tim.c ****   * @brief  Stops the TIM Base generation in DMA mode.
 426:Drivers/STM32F3xx_HAL_Driver/Src/stm32f3xx_hal_tim.c ****   * @param  htim TIM handle
 427:Drivers/STM32F3xx_HAL_Driver/Src/stm32f3xx_hal_tim.c ****   * @retval HAL status
 428:Drivers/STM32F3xx_HAL_Driver/Src/stm32f3xx_hal_tim.c **** */
 429:Drivers/STM32F3xx_HAL_Driver/Src/stm32f3xx_hal_tim.c **** HAL_StatusTypeDef HAL_TIM_Base_Stop_DMA(TIM_HandleTypeDef *htim)
 430:Drivers/STM32F3xx_HAL_Driver/Src/stm32f3xx_hal_tim.c **** {
 431:Drivers/STM32F3xx_HAL_Driver/Src/stm32f3xx_hal_tim.c ****   /* Check the parameters */
 432:Drivers/STM32F3xx_HAL_Driver/Src/stm32f3xx_hal_tim.c ****   assert_param(IS_TIM_DMA_INSTANCE(htim->Instance));
 433:Drivers/STM32F3xx_HAL_Driver/Src/stm32f3xx_hal_tim.c ****   
 434:Drivers/STM32F3xx_HAL_Driver/Src/stm32f3xx_hal_tim.c ****   /* Disable the TIM Update DMA request */
 435:Drivers/STM32F3xx_HAL_Driver/Src/stm32f3xx_hal_tim.c ****   __HAL_TIM_DISABLE_DMA(htim, TIM_DMA_UPDATE);
 436:Drivers/STM32F3xx_HAL_Driver/Src/stm32f3xx_hal_tim.c ****       
 437:Drivers/STM32F3xx_HAL_Driver/Src/stm32f3xx_hal_tim.c ****   /* Disable the Peripheral */
 438:Drivers/STM32F3xx_HAL_Driver/Src/stm32f3xx_hal_tim.c ****   __HAL_TIM_DISABLE(htim);
 439:Drivers/STM32F3xx_HAL_Driver/Src/stm32f3xx_hal_tim.c ****     
 440:Drivers/STM32F3xx_HAL_Driver/Src/stm32f3xx_hal_tim.c ****   /* Change the htim state */
 441:Drivers/STM32F3xx_HAL_Driver/Src/stm32f3xx_hal_tim.c ****   htim->State = HAL_TIM_STATE_READY;
 442:Drivers/STM32F3xx_HAL_Driver/Src/stm32f3xx_hal_tim.c ****       
 443:Drivers/STM32F3xx_HAL_Driver/Src/stm32f3xx_hal_tim.c ****   /* Return function status */
 444:Drivers/STM32F3xx_HAL_Driver/Src/stm32f3xx_hal_tim.c ****   return HAL_OK;
 445:Drivers/STM32F3xx_HAL_Driver/Src/stm32f3xx_hal_tim.c **** }
 446:Drivers/STM32F3xx_HAL_Driver/Src/stm32f3xx_hal_tim.c **** 
 447:Drivers/STM32F3xx_HAL_Driver/Src/stm32f3xx_hal_tim.c **** /**
 448:Drivers/STM32F3xx_HAL_Driver/Src/stm32f3xx_hal_tim.c ****   * @}
 449:Drivers/STM32F3xx_HAL_Driver/Src/stm32f3xx_hal_tim.c ****   */
 450:Drivers/STM32F3xx_HAL_Driver/Src/stm32f3xx_hal_tim.c ****   
 451:Drivers/STM32F3xx_HAL_Driver/Src/stm32f3xx_hal_tim.c **** /** @defgroup TIM_Exported_Functions_Group2 Time Output Compare functions 
 452:Drivers/STM32F3xx_HAL_Driver/Src/stm32f3xx_hal_tim.c ****  *  @brief    Time Output Compare functions 
 453:Drivers/STM32F3xx_HAL_Driver/Src/stm32f3xx_hal_tim.c ****  *
 454:Drivers/STM32F3xx_HAL_Driver/Src/stm32f3xx_hal_tim.c **** @verbatim    
 455:Drivers/STM32F3xx_HAL_Driver/Src/stm32f3xx_hal_tim.c ****   ==============================================================================
 456:Drivers/STM32F3xx_HAL_Driver/Src/stm32f3xx_hal_tim.c ****                   ##### Time Output Compare functions #####
 457:Drivers/STM32F3xx_HAL_Driver/Src/stm32f3xx_hal_tim.c ****   ==============================================================================
 458:Drivers/STM32F3xx_HAL_Driver/Src/stm32f3xx_hal_tim.c ****   [..]
 459:Drivers/STM32F3xx_HAL_Driver/Src/stm32f3xx_hal_tim.c ****     This section provides functions allowing to:
 460:Drivers/STM32F3xx_HAL_Driver/Src/stm32f3xx_hal_tim.c ****     (+) Initialize and configure the TIM Output Compare. 
 461:Drivers/STM32F3xx_HAL_Driver/Src/stm32f3xx_hal_tim.c ****     (+) De-initialize the TIM Output Compare.
 462:Drivers/STM32F3xx_HAL_Driver/Src/stm32f3xx_hal_tim.c ****     (+) Start the Time Output Compare.
 463:Drivers/STM32F3xx_HAL_Driver/Src/stm32f3xx_hal_tim.c ****     (+) Stop the Time Output Compare.
 464:Drivers/STM32F3xx_HAL_Driver/Src/stm32f3xx_hal_tim.c ****     (+) Start the Time Output Compare and enable interrupt.
 465:Drivers/STM32F3xx_HAL_Driver/Src/stm32f3xx_hal_tim.c ****     (+) Stop the Time Output Compare and disable interrupt.
 466:Drivers/STM32F3xx_HAL_Driver/Src/stm32f3xx_hal_tim.c ****     (+) Start the Time Output Compare and enable DMA transfer.
 467:Drivers/STM32F3xx_HAL_Driver/Src/stm32f3xx_hal_tim.c ****     (+) Stop the Time Output Compare and disable DMA transfer.
 468:Drivers/STM32F3xx_HAL_Driver/Src/stm32f3xx_hal_tim.c ****  
 469:Drivers/STM32F3xx_HAL_Driver/Src/stm32f3xx_hal_tim.c **** @endverbatim
 470:Drivers/STM32F3xx_HAL_Driver/Src/stm32f3xx_hal_tim.c ****   * @{
ARM GAS  /tmp/ccuQngBj.s 			page 11


 471:Drivers/STM32F3xx_HAL_Driver/Src/stm32f3xx_hal_tim.c ****   */
 472:Drivers/STM32F3xx_HAL_Driver/Src/stm32f3xx_hal_tim.c **** /**
 473:Drivers/STM32F3xx_HAL_Driver/Src/stm32f3xx_hal_tim.c ****   * @brief  Initializes the TIM Output Compare according to the specified
 474:Drivers/STM32F3xx_HAL_Driver/Src/stm32f3xx_hal_tim.c ****   *         parameters in the TIM_HandleTypeDef and create the associated handle.
 475:Drivers/STM32F3xx_HAL_Driver/Src/stm32f3xx_hal_tim.c ****   * @param  htim TIM Output Compare handle
 476:Drivers/STM32F3xx_HAL_Driver/Src/stm32f3xx_hal_tim.c ****   * @retval HAL status
 477:Drivers/STM32F3xx_HAL_Driver/Src/stm32f3xx_hal_tim.c ****   */
 478:Drivers/STM32F3xx_HAL_Driver/Src/stm32f3xx_hal_tim.c **** HAL_StatusTypeDef HAL_TIM_OC_Init(TIM_HandleTypeDef* htim)
 479:Drivers/STM32F3xx_HAL_Driver/Src/stm32f3xx_hal_tim.c **** {
 480:Drivers/STM32F3xx_HAL_Driver/Src/stm32f3xx_hal_tim.c ****   /* Check the TIM handle allocation */
 481:Drivers/STM32F3xx_HAL_Driver/Src/stm32f3xx_hal_tim.c ****   if(htim == NULL)
 482:Drivers/STM32F3xx_HAL_Driver/Src/stm32f3xx_hal_tim.c ****   {
 483:Drivers/STM32F3xx_HAL_Driver/Src/stm32f3xx_hal_tim.c ****     return HAL_ERROR;
 484:Drivers/STM32F3xx_HAL_Driver/Src/stm32f3xx_hal_tim.c ****   }
 485:Drivers/STM32F3xx_HAL_Driver/Src/stm32f3xx_hal_tim.c **** 
 486:Drivers/STM32F3xx_HAL_Driver/Src/stm32f3xx_hal_tim.c ****   /* Check the parameters */
 487:Drivers/STM32F3xx_HAL_Driver/Src/stm32f3xx_hal_tim.c ****   assert_param(IS_TIM_INSTANCE(htim->Instance));
 488:Drivers/STM32F3xx_HAL_Driver/Src/stm32f3xx_hal_tim.c ****   assert_param(IS_TIM_COUNTER_MODE(htim->Init.CounterMode));
 489:Drivers/STM32F3xx_HAL_Driver/Src/stm32f3xx_hal_tim.c ****   assert_param(IS_TIM_CLOCKDIVISION_DIV(htim->Init.ClockDivision));
 490:Drivers/STM32F3xx_HAL_Driver/Src/stm32f3xx_hal_tim.c ****   assert_param(IS_TIM_AUTORELOAD_PRELOAD(htim->Init.AutoReloadPreload));
 491:Drivers/STM32F3xx_HAL_Driver/Src/stm32f3xx_hal_tim.c **** 
 492:Drivers/STM32F3xx_HAL_Driver/Src/stm32f3xx_hal_tim.c ****   if(htim->State == HAL_TIM_STATE_RESET)
 493:Drivers/STM32F3xx_HAL_Driver/Src/stm32f3xx_hal_tim.c ****   {   
 494:Drivers/STM32F3xx_HAL_Driver/Src/stm32f3xx_hal_tim.c ****     /* Allocate lock resource and initialize it */
 495:Drivers/STM32F3xx_HAL_Driver/Src/stm32f3xx_hal_tim.c ****     htim->Lock = HAL_UNLOCKED;
 496:Drivers/STM32F3xx_HAL_Driver/Src/stm32f3xx_hal_tim.c **** 
 497:Drivers/STM32F3xx_HAL_Driver/Src/stm32f3xx_hal_tim.c ****     /* Init the low level hardware : GPIO, CLOCK, NVIC and DMA */
 498:Drivers/STM32F3xx_HAL_Driver/Src/stm32f3xx_hal_tim.c ****     HAL_TIM_OC_MspInit(htim);
 499:Drivers/STM32F3xx_HAL_Driver/Src/stm32f3xx_hal_tim.c ****   }
 500:Drivers/STM32F3xx_HAL_Driver/Src/stm32f3xx_hal_tim.c ****   
 501:Drivers/STM32F3xx_HAL_Driver/Src/stm32f3xx_hal_tim.c ****   /* Set the TIM state */
 502:Drivers/STM32F3xx_HAL_Driver/Src/stm32f3xx_hal_tim.c ****   htim->State= HAL_TIM_STATE_BUSY;
 503:Drivers/STM32F3xx_HAL_Driver/Src/stm32f3xx_hal_tim.c **** 
 504:Drivers/STM32F3xx_HAL_Driver/Src/stm32f3xx_hal_tim.c ****   /* Init the base time for the Output Compare */  
 505:Drivers/STM32F3xx_HAL_Driver/Src/stm32f3xx_hal_tim.c ****   TIM_Base_SetConfig(htim->Instance,  &htim->Init); 
 506:Drivers/STM32F3xx_HAL_Driver/Src/stm32f3xx_hal_tim.c ****   
 507:Drivers/STM32F3xx_HAL_Driver/Src/stm32f3xx_hal_tim.c ****   /* Initialize the TIM state*/
 508:Drivers/STM32F3xx_HAL_Driver/Src/stm32f3xx_hal_tim.c ****   htim->State= HAL_TIM_STATE_READY;
 509:Drivers/STM32F3xx_HAL_Driver/Src/stm32f3xx_hal_tim.c ****   
 510:Drivers/STM32F3xx_HAL_Driver/Src/stm32f3xx_hal_tim.c ****   return HAL_OK;
 511:Drivers/STM32F3xx_HAL_Driver/Src/stm32f3xx_hal_tim.c **** }
 512:Drivers/STM32F3xx_HAL_Driver/Src/stm32f3xx_hal_tim.c **** 
 513:Drivers/STM32F3xx_HAL_Driver/Src/stm32f3xx_hal_tim.c **** /**
 514:Drivers/STM32F3xx_HAL_Driver/Src/stm32f3xx_hal_tim.c ****   * @brief  DeInitializes the TIM peripheral 
 515:Drivers/STM32F3xx_HAL_Driver/Src/stm32f3xx_hal_tim.c ****   * @param  htim TIM Output Compare handle
 516:Drivers/STM32F3xx_HAL_Driver/Src/stm32f3xx_hal_tim.c ****   * @retval HAL status
 517:Drivers/STM32F3xx_HAL_Driver/Src/stm32f3xx_hal_tim.c ****   */
 518:Drivers/STM32F3xx_HAL_Driver/Src/stm32f3xx_hal_tim.c **** HAL_StatusTypeDef HAL_TIM_OC_DeInit(TIM_HandleTypeDef *htim)
 519:Drivers/STM32F3xx_HAL_Driver/Src/stm32f3xx_hal_tim.c **** {
 520:Drivers/STM32F3xx_HAL_Driver/Src/stm32f3xx_hal_tim.c ****   /* Check the parameters */
 521:Drivers/STM32F3xx_HAL_Driver/Src/stm32f3xx_hal_tim.c ****   assert_param(IS_TIM_INSTANCE(htim->Instance));
 522:Drivers/STM32F3xx_HAL_Driver/Src/stm32f3xx_hal_tim.c ****   
 523:Drivers/STM32F3xx_HAL_Driver/Src/stm32f3xx_hal_tim.c ****    htim->State = HAL_TIM_STATE_BUSY;
 524:Drivers/STM32F3xx_HAL_Driver/Src/stm32f3xx_hal_tim.c ****    
 525:Drivers/STM32F3xx_HAL_Driver/Src/stm32f3xx_hal_tim.c ****   /* Disable the TIM Peripheral Clock */
 526:Drivers/STM32F3xx_HAL_Driver/Src/stm32f3xx_hal_tim.c ****   __HAL_TIM_DISABLE(htim);
 527:Drivers/STM32F3xx_HAL_Driver/Src/stm32f3xx_hal_tim.c ****   
ARM GAS  /tmp/ccuQngBj.s 			page 12


 528:Drivers/STM32F3xx_HAL_Driver/Src/stm32f3xx_hal_tim.c ****   /* DeInit the low level hardware: GPIO, CLOCK, NVIC and DMA */
 529:Drivers/STM32F3xx_HAL_Driver/Src/stm32f3xx_hal_tim.c ****   HAL_TIM_OC_MspDeInit(htim);
 530:Drivers/STM32F3xx_HAL_Driver/Src/stm32f3xx_hal_tim.c ****     
 531:Drivers/STM32F3xx_HAL_Driver/Src/stm32f3xx_hal_tim.c ****   /* Change TIM state */  
 532:Drivers/STM32F3xx_HAL_Driver/Src/stm32f3xx_hal_tim.c ****   htim->State = HAL_TIM_STATE_RESET; 
 533:Drivers/STM32F3xx_HAL_Driver/Src/stm32f3xx_hal_tim.c ****   
 534:Drivers/STM32F3xx_HAL_Driver/Src/stm32f3xx_hal_tim.c ****   /* Release Lock */
 535:Drivers/STM32F3xx_HAL_Driver/Src/stm32f3xx_hal_tim.c ****   __HAL_UNLOCK(htim);
 536:Drivers/STM32F3xx_HAL_Driver/Src/stm32f3xx_hal_tim.c **** 
 537:Drivers/STM32F3xx_HAL_Driver/Src/stm32f3xx_hal_tim.c ****   return HAL_OK;
 538:Drivers/STM32F3xx_HAL_Driver/Src/stm32f3xx_hal_tim.c **** }
 539:Drivers/STM32F3xx_HAL_Driver/Src/stm32f3xx_hal_tim.c **** 
 540:Drivers/STM32F3xx_HAL_Driver/Src/stm32f3xx_hal_tim.c **** /**
 541:Drivers/STM32F3xx_HAL_Driver/Src/stm32f3xx_hal_tim.c ****   * @brief  Initializes the TIM Output Compare MSP.
 542:Drivers/STM32F3xx_HAL_Driver/Src/stm32f3xx_hal_tim.c ****   * @param  htim TIM handle
 543:Drivers/STM32F3xx_HAL_Driver/Src/stm32f3xx_hal_tim.c ****   * @retval None
 544:Drivers/STM32F3xx_HAL_Driver/Src/stm32f3xx_hal_tim.c ****   */
 545:Drivers/STM32F3xx_HAL_Driver/Src/stm32f3xx_hal_tim.c **** __weak void HAL_TIM_OC_MspInit(TIM_HandleTypeDef *htim)
 546:Drivers/STM32F3xx_HAL_Driver/Src/stm32f3xx_hal_tim.c **** {
 547:Drivers/STM32F3xx_HAL_Driver/Src/stm32f3xx_hal_tim.c ****   /* Prevent unused argument(s) compilation warning */
 548:Drivers/STM32F3xx_HAL_Driver/Src/stm32f3xx_hal_tim.c ****   UNUSED(htim);
 549:Drivers/STM32F3xx_HAL_Driver/Src/stm32f3xx_hal_tim.c **** 
 550:Drivers/STM32F3xx_HAL_Driver/Src/stm32f3xx_hal_tim.c ****   /* NOTE : This function Should not be modified, when the callback is needed,
 551:Drivers/STM32F3xx_HAL_Driver/Src/stm32f3xx_hal_tim.c ****             the HAL_TIM_OC_MspInit could be implemented in the user file
 552:Drivers/STM32F3xx_HAL_Driver/Src/stm32f3xx_hal_tim.c ****    */
 553:Drivers/STM32F3xx_HAL_Driver/Src/stm32f3xx_hal_tim.c **** }
 554:Drivers/STM32F3xx_HAL_Driver/Src/stm32f3xx_hal_tim.c **** 
 555:Drivers/STM32F3xx_HAL_Driver/Src/stm32f3xx_hal_tim.c **** /**
 556:Drivers/STM32F3xx_HAL_Driver/Src/stm32f3xx_hal_tim.c ****   * @brief  DeInitializes TIM Output Compare MSP.
 557:Drivers/STM32F3xx_HAL_Driver/Src/stm32f3xx_hal_tim.c ****   * @param  htim TIM handle
 558:Drivers/STM32F3xx_HAL_Driver/Src/stm32f3xx_hal_tim.c ****   * @retval None
 559:Drivers/STM32F3xx_HAL_Driver/Src/stm32f3xx_hal_tim.c ****   */
 560:Drivers/STM32F3xx_HAL_Driver/Src/stm32f3xx_hal_tim.c **** __weak void HAL_TIM_OC_MspDeInit(TIM_HandleTypeDef *htim)
 561:Drivers/STM32F3xx_HAL_Driver/Src/stm32f3xx_hal_tim.c **** {
 562:Drivers/STM32F3xx_HAL_Driver/Src/stm32f3xx_hal_tim.c ****   /* Prevent unused argument(s) compilation warning */
 563:Drivers/STM32F3xx_HAL_Driver/Src/stm32f3xx_hal_tim.c ****   UNUSED(htim);
 564:Drivers/STM32F3xx_HAL_Driver/Src/stm32f3xx_hal_tim.c **** 
 565:Drivers/STM32F3xx_HAL_Driver/Src/stm32f3xx_hal_tim.c ****   /* NOTE : This function Should not be modified, when the callback is needed,
 566:Drivers/STM32F3xx_HAL_Driver/Src/stm32f3xx_hal_tim.c ****             the HAL_TIM_OC_MspDeInit could be implemented in the user file
 567:Drivers/STM32F3xx_HAL_Driver/Src/stm32f3xx_hal_tim.c ****    */
 568:Drivers/STM32F3xx_HAL_Driver/Src/stm32f3xx_hal_tim.c **** }
 569:Drivers/STM32F3xx_HAL_Driver/Src/stm32f3xx_hal_tim.c **** 
 570:Drivers/STM32F3xx_HAL_Driver/Src/stm32f3xx_hal_tim.c **** /**
 571:Drivers/STM32F3xx_HAL_Driver/Src/stm32f3xx_hal_tim.c ****   * @brief  Starts the TIM Output Compare signal generation.
 572:Drivers/STM32F3xx_HAL_Driver/Src/stm32f3xx_hal_tim.c ****   * @param  htim TIM Output Compare handle  
 573:Drivers/STM32F3xx_HAL_Driver/Src/stm32f3xx_hal_tim.c ****   * @param  Channel TIM Channel to be enabled
 574:Drivers/STM32F3xx_HAL_Driver/Src/stm32f3xx_hal_tim.c ****   *          This parameter can be one of the following values:
 575:Drivers/STM32F3xx_HAL_Driver/Src/stm32f3xx_hal_tim.c ****   *            @arg TIM_CHANNEL_1: TIM Channel 1 selected
 576:Drivers/STM32F3xx_HAL_Driver/Src/stm32f3xx_hal_tim.c ****   *            @arg TIM_CHANNEL_2: TIM Channel 2 selected
 577:Drivers/STM32F3xx_HAL_Driver/Src/stm32f3xx_hal_tim.c ****   *            @arg TIM_CHANNEL_3: TIM Channel 3 selected
 578:Drivers/STM32F3xx_HAL_Driver/Src/stm32f3xx_hal_tim.c ****   *            @arg TIM_CHANNEL_4: TIM Channel 4 selected   
 579:Drivers/STM32F3xx_HAL_Driver/Src/stm32f3xx_hal_tim.c ****   * @retval HAL status
 580:Drivers/STM32F3xx_HAL_Driver/Src/stm32f3xx_hal_tim.c **** */
 581:Drivers/STM32F3xx_HAL_Driver/Src/stm32f3xx_hal_tim.c **** HAL_StatusTypeDef HAL_TIM_OC_Start(TIM_HandleTypeDef *htim, uint32_t Channel)
 582:Drivers/STM32F3xx_HAL_Driver/Src/stm32f3xx_hal_tim.c **** {
 583:Drivers/STM32F3xx_HAL_Driver/Src/stm32f3xx_hal_tim.c ****   /* Check the parameters */
 584:Drivers/STM32F3xx_HAL_Driver/Src/stm32f3xx_hal_tim.c ****   assert_param(IS_TIM_CCX_INSTANCE(htim->Instance, Channel));
ARM GAS  /tmp/ccuQngBj.s 			page 13


 585:Drivers/STM32F3xx_HAL_Driver/Src/stm32f3xx_hal_tim.c ****   
 586:Drivers/STM32F3xx_HAL_Driver/Src/stm32f3xx_hal_tim.c ****   /* Enable the Output compare channel */
 587:Drivers/STM32F3xx_HAL_Driver/Src/stm32f3xx_hal_tim.c ****   TIM_CCxChannelCmd(htim->Instance, Channel, TIM_CCx_ENABLE);
 588:Drivers/STM32F3xx_HAL_Driver/Src/stm32f3xx_hal_tim.c ****   
 589:Drivers/STM32F3xx_HAL_Driver/Src/stm32f3xx_hal_tim.c ****   if(IS_TIM_BREAK_INSTANCE(htim->Instance) != RESET)  
 590:Drivers/STM32F3xx_HAL_Driver/Src/stm32f3xx_hal_tim.c ****   {
 591:Drivers/STM32F3xx_HAL_Driver/Src/stm32f3xx_hal_tim.c ****     /* Enable the main output */
 592:Drivers/STM32F3xx_HAL_Driver/Src/stm32f3xx_hal_tim.c ****     __HAL_TIM_MOE_ENABLE(htim);
 593:Drivers/STM32F3xx_HAL_Driver/Src/stm32f3xx_hal_tim.c ****   }
 594:Drivers/STM32F3xx_HAL_Driver/Src/stm32f3xx_hal_tim.c ****   
 595:Drivers/STM32F3xx_HAL_Driver/Src/stm32f3xx_hal_tim.c ****   /* Enable the Peripheral */
 596:Drivers/STM32F3xx_HAL_Driver/Src/stm32f3xx_hal_tim.c ****   __HAL_TIM_ENABLE(htim); 
 597:Drivers/STM32F3xx_HAL_Driver/Src/stm32f3xx_hal_tim.c ****   
 598:Drivers/STM32F3xx_HAL_Driver/Src/stm32f3xx_hal_tim.c ****   /* Return function status */
 599:Drivers/STM32F3xx_HAL_Driver/Src/stm32f3xx_hal_tim.c ****   return HAL_OK;
 600:Drivers/STM32F3xx_HAL_Driver/Src/stm32f3xx_hal_tim.c **** }
 601:Drivers/STM32F3xx_HAL_Driver/Src/stm32f3xx_hal_tim.c **** 
 602:Drivers/STM32F3xx_HAL_Driver/Src/stm32f3xx_hal_tim.c **** /**
 603:Drivers/STM32F3xx_HAL_Driver/Src/stm32f3xx_hal_tim.c ****   * @brief  Stops the TIM Output Compare signal generation.
 604:Drivers/STM32F3xx_HAL_Driver/Src/stm32f3xx_hal_tim.c ****   * @param  htim TIM handle
 605:Drivers/STM32F3xx_HAL_Driver/Src/stm32f3xx_hal_tim.c ****   * @param  Channel TIM Channel to be disabled
 606:Drivers/STM32F3xx_HAL_Driver/Src/stm32f3xx_hal_tim.c ****   *          This parameter can be one of the following values:
 607:Drivers/STM32F3xx_HAL_Driver/Src/stm32f3xx_hal_tim.c ****   *            @arg TIM_CHANNEL_1: TIM Channel 1 selected
 608:Drivers/STM32F3xx_HAL_Driver/Src/stm32f3xx_hal_tim.c ****   *            @arg TIM_CHANNEL_2: TIM Channel 2 selected
 609:Drivers/STM32F3xx_HAL_Driver/Src/stm32f3xx_hal_tim.c ****   *            @arg TIM_CHANNEL_3: TIM Channel 3 selected
 610:Drivers/STM32F3xx_HAL_Driver/Src/stm32f3xx_hal_tim.c ****   *            @arg TIM_CHANNEL_4: TIM Channel 4 selected
 611:Drivers/STM32F3xx_HAL_Driver/Src/stm32f3xx_hal_tim.c ****   * @retval HAL status
 612:Drivers/STM32F3xx_HAL_Driver/Src/stm32f3xx_hal_tim.c **** */
 613:Drivers/STM32F3xx_HAL_Driver/Src/stm32f3xx_hal_tim.c **** HAL_StatusTypeDef HAL_TIM_OC_Stop(TIM_HandleTypeDef *htim, uint32_t Channel)
 614:Drivers/STM32F3xx_HAL_Driver/Src/stm32f3xx_hal_tim.c **** {
 615:Drivers/STM32F3xx_HAL_Driver/Src/stm32f3xx_hal_tim.c ****   /* Check the parameters */
 616:Drivers/STM32F3xx_HAL_Driver/Src/stm32f3xx_hal_tim.c ****   assert_param(IS_TIM_CCX_INSTANCE(htim->Instance, Channel));
 617:Drivers/STM32F3xx_HAL_Driver/Src/stm32f3xx_hal_tim.c ****   
 618:Drivers/STM32F3xx_HAL_Driver/Src/stm32f3xx_hal_tim.c ****   /* Disable the Output compare channel */
 619:Drivers/STM32F3xx_HAL_Driver/Src/stm32f3xx_hal_tim.c ****   TIM_CCxChannelCmd(htim->Instance, Channel, TIM_CCx_DISABLE);
 620:Drivers/STM32F3xx_HAL_Driver/Src/stm32f3xx_hal_tim.c ****   
 621:Drivers/STM32F3xx_HAL_Driver/Src/stm32f3xx_hal_tim.c ****   if(IS_TIM_BREAK_INSTANCE(htim->Instance) != RESET)  
 622:Drivers/STM32F3xx_HAL_Driver/Src/stm32f3xx_hal_tim.c ****   {
 623:Drivers/STM32F3xx_HAL_Driver/Src/stm32f3xx_hal_tim.c ****     /* Disable the Main Ouput */
 624:Drivers/STM32F3xx_HAL_Driver/Src/stm32f3xx_hal_tim.c ****     __HAL_TIM_MOE_DISABLE(htim);
 625:Drivers/STM32F3xx_HAL_Driver/Src/stm32f3xx_hal_tim.c ****   }  
 626:Drivers/STM32F3xx_HAL_Driver/Src/stm32f3xx_hal_tim.c ****   
 627:Drivers/STM32F3xx_HAL_Driver/Src/stm32f3xx_hal_tim.c ****   /* Disable the Peripheral */
 628:Drivers/STM32F3xx_HAL_Driver/Src/stm32f3xx_hal_tim.c ****   __HAL_TIM_DISABLE(htim);  
 629:Drivers/STM32F3xx_HAL_Driver/Src/stm32f3xx_hal_tim.c ****   
 630:Drivers/STM32F3xx_HAL_Driver/Src/stm32f3xx_hal_tim.c ****   /* Return function status */
 631:Drivers/STM32F3xx_HAL_Driver/Src/stm32f3xx_hal_tim.c ****   return HAL_OK;
 632:Drivers/STM32F3xx_HAL_Driver/Src/stm32f3xx_hal_tim.c **** }  
 633:Drivers/STM32F3xx_HAL_Driver/Src/stm32f3xx_hal_tim.c **** 
 634:Drivers/STM32F3xx_HAL_Driver/Src/stm32f3xx_hal_tim.c **** /**
 635:Drivers/STM32F3xx_HAL_Driver/Src/stm32f3xx_hal_tim.c ****   * @brief  Starts the TIM Output Compare signal generation in interrupt mode.
 636:Drivers/STM32F3xx_HAL_Driver/Src/stm32f3xx_hal_tim.c ****   * @param  htim TIM OC handle
 637:Drivers/STM32F3xx_HAL_Driver/Src/stm32f3xx_hal_tim.c ****   * @param  Channel TIM Channel to be enabled
 638:Drivers/STM32F3xx_HAL_Driver/Src/stm32f3xx_hal_tim.c ****   *          This parameter can be one of the following values:
 639:Drivers/STM32F3xx_HAL_Driver/Src/stm32f3xx_hal_tim.c ****   *            @arg TIM_CHANNEL_1: TIM Channel 1 selected
 640:Drivers/STM32F3xx_HAL_Driver/Src/stm32f3xx_hal_tim.c ****   *            @arg TIM_CHANNEL_2: TIM Channel 2 selected
 641:Drivers/STM32F3xx_HAL_Driver/Src/stm32f3xx_hal_tim.c ****   *            @arg TIM_CHANNEL_3: TIM Channel 3 selected
ARM GAS  /tmp/ccuQngBj.s 			page 14


 642:Drivers/STM32F3xx_HAL_Driver/Src/stm32f3xx_hal_tim.c ****   *            @arg TIM_CHANNEL_4: TIM Channel 4 selected
 643:Drivers/STM32F3xx_HAL_Driver/Src/stm32f3xx_hal_tim.c ****   * @retval HAL status
 644:Drivers/STM32F3xx_HAL_Driver/Src/stm32f3xx_hal_tim.c **** */
 645:Drivers/STM32F3xx_HAL_Driver/Src/stm32f3xx_hal_tim.c **** HAL_StatusTypeDef HAL_TIM_OC_Start_IT(TIM_HandleTypeDef *htim, uint32_t Channel)
 646:Drivers/STM32F3xx_HAL_Driver/Src/stm32f3xx_hal_tim.c **** {
 647:Drivers/STM32F3xx_HAL_Driver/Src/stm32f3xx_hal_tim.c ****   /* Check the parameters */
 648:Drivers/STM32F3xx_HAL_Driver/Src/stm32f3xx_hal_tim.c ****   assert_param(IS_TIM_CCX_INSTANCE(htim->Instance, Channel));
 649:Drivers/STM32F3xx_HAL_Driver/Src/stm32f3xx_hal_tim.c ****   
 650:Drivers/STM32F3xx_HAL_Driver/Src/stm32f3xx_hal_tim.c ****   switch (Channel)
 651:Drivers/STM32F3xx_HAL_Driver/Src/stm32f3xx_hal_tim.c ****   {
 652:Drivers/STM32F3xx_HAL_Driver/Src/stm32f3xx_hal_tim.c ****     case TIM_CHANNEL_1:
 653:Drivers/STM32F3xx_HAL_Driver/Src/stm32f3xx_hal_tim.c ****     {       
 654:Drivers/STM32F3xx_HAL_Driver/Src/stm32f3xx_hal_tim.c ****       /* Enable the TIM Capture/Compare 1 interrupt */
 655:Drivers/STM32F3xx_HAL_Driver/Src/stm32f3xx_hal_tim.c ****       __HAL_TIM_ENABLE_IT(htim, TIM_IT_CC1);
 656:Drivers/STM32F3xx_HAL_Driver/Src/stm32f3xx_hal_tim.c ****     }
 657:Drivers/STM32F3xx_HAL_Driver/Src/stm32f3xx_hal_tim.c ****     break;
 658:Drivers/STM32F3xx_HAL_Driver/Src/stm32f3xx_hal_tim.c ****     
 659:Drivers/STM32F3xx_HAL_Driver/Src/stm32f3xx_hal_tim.c ****     case TIM_CHANNEL_2:
 660:Drivers/STM32F3xx_HAL_Driver/Src/stm32f3xx_hal_tim.c ****     {
 661:Drivers/STM32F3xx_HAL_Driver/Src/stm32f3xx_hal_tim.c ****       /* Enable the TIM Capture/Compare 2 interrupt */
 662:Drivers/STM32F3xx_HAL_Driver/Src/stm32f3xx_hal_tim.c ****       __HAL_TIM_ENABLE_IT(htim, TIM_IT_CC2);
 663:Drivers/STM32F3xx_HAL_Driver/Src/stm32f3xx_hal_tim.c ****     }
 664:Drivers/STM32F3xx_HAL_Driver/Src/stm32f3xx_hal_tim.c ****     break;
 665:Drivers/STM32F3xx_HAL_Driver/Src/stm32f3xx_hal_tim.c ****     
 666:Drivers/STM32F3xx_HAL_Driver/Src/stm32f3xx_hal_tim.c ****     case TIM_CHANNEL_3:
 667:Drivers/STM32F3xx_HAL_Driver/Src/stm32f3xx_hal_tim.c ****     {
 668:Drivers/STM32F3xx_HAL_Driver/Src/stm32f3xx_hal_tim.c ****       /* Enable the TIM Capture/Compare 3 interrupt */
 669:Drivers/STM32F3xx_HAL_Driver/Src/stm32f3xx_hal_tim.c ****       __HAL_TIM_ENABLE_IT(htim, TIM_IT_CC3);
 670:Drivers/STM32F3xx_HAL_Driver/Src/stm32f3xx_hal_tim.c ****     }
 671:Drivers/STM32F3xx_HAL_Driver/Src/stm32f3xx_hal_tim.c ****     break;
 672:Drivers/STM32F3xx_HAL_Driver/Src/stm32f3xx_hal_tim.c ****     
 673:Drivers/STM32F3xx_HAL_Driver/Src/stm32f3xx_hal_tim.c ****     case TIM_CHANNEL_4:
 674:Drivers/STM32F3xx_HAL_Driver/Src/stm32f3xx_hal_tim.c ****     {
 675:Drivers/STM32F3xx_HAL_Driver/Src/stm32f3xx_hal_tim.c ****       /* Enable the TIM Capture/Compare 4 interrupt */
 676:Drivers/STM32F3xx_HAL_Driver/Src/stm32f3xx_hal_tim.c ****       __HAL_TIM_ENABLE_IT(htim, TIM_IT_CC4);
 677:Drivers/STM32F3xx_HAL_Driver/Src/stm32f3xx_hal_tim.c ****     }
 678:Drivers/STM32F3xx_HAL_Driver/Src/stm32f3xx_hal_tim.c ****     break;
 679:Drivers/STM32F3xx_HAL_Driver/Src/stm32f3xx_hal_tim.c ****     
 680:Drivers/STM32F3xx_HAL_Driver/Src/stm32f3xx_hal_tim.c ****     default:
 681:Drivers/STM32F3xx_HAL_Driver/Src/stm32f3xx_hal_tim.c ****     break;
 682:Drivers/STM32F3xx_HAL_Driver/Src/stm32f3xx_hal_tim.c ****   } 
 683:Drivers/STM32F3xx_HAL_Driver/Src/stm32f3xx_hal_tim.c **** 
 684:Drivers/STM32F3xx_HAL_Driver/Src/stm32f3xx_hal_tim.c ****   /* Enable the Output compare channel */
 685:Drivers/STM32F3xx_HAL_Driver/Src/stm32f3xx_hal_tim.c ****   TIM_CCxChannelCmd(htim->Instance, Channel, TIM_CCx_ENABLE);
 686:Drivers/STM32F3xx_HAL_Driver/Src/stm32f3xx_hal_tim.c ****   
 687:Drivers/STM32F3xx_HAL_Driver/Src/stm32f3xx_hal_tim.c ****   if(IS_TIM_BREAK_INSTANCE(htim->Instance) != RESET)  
 688:Drivers/STM32F3xx_HAL_Driver/Src/stm32f3xx_hal_tim.c ****   {
 689:Drivers/STM32F3xx_HAL_Driver/Src/stm32f3xx_hal_tim.c ****     /* Enable the main output */
 690:Drivers/STM32F3xx_HAL_Driver/Src/stm32f3xx_hal_tim.c ****     __HAL_TIM_MOE_ENABLE(htim);
 691:Drivers/STM32F3xx_HAL_Driver/Src/stm32f3xx_hal_tim.c ****   }
 692:Drivers/STM32F3xx_HAL_Driver/Src/stm32f3xx_hal_tim.c **** 
 693:Drivers/STM32F3xx_HAL_Driver/Src/stm32f3xx_hal_tim.c ****   /* Enable the Peripheral */
 694:Drivers/STM32F3xx_HAL_Driver/Src/stm32f3xx_hal_tim.c ****   __HAL_TIM_ENABLE(htim);
 695:Drivers/STM32F3xx_HAL_Driver/Src/stm32f3xx_hal_tim.c ****   
 696:Drivers/STM32F3xx_HAL_Driver/Src/stm32f3xx_hal_tim.c ****   /* Return function status */
 697:Drivers/STM32F3xx_HAL_Driver/Src/stm32f3xx_hal_tim.c ****   return HAL_OK;
 698:Drivers/STM32F3xx_HAL_Driver/Src/stm32f3xx_hal_tim.c **** }
ARM GAS  /tmp/ccuQngBj.s 			page 15


 699:Drivers/STM32F3xx_HAL_Driver/Src/stm32f3xx_hal_tim.c **** 
 700:Drivers/STM32F3xx_HAL_Driver/Src/stm32f3xx_hal_tim.c **** /**
 701:Drivers/STM32F3xx_HAL_Driver/Src/stm32f3xx_hal_tim.c ****   * @brief  Stops the TIM Output Compare signal generation in interrupt mode.
 702:Drivers/STM32F3xx_HAL_Driver/Src/stm32f3xx_hal_tim.c ****   * @param  htim TIM Output Compare handle
 703:Drivers/STM32F3xx_HAL_Driver/Src/stm32f3xx_hal_tim.c ****   * @param  Channel TIM Channel to be disabled
 704:Drivers/STM32F3xx_HAL_Driver/Src/stm32f3xx_hal_tim.c ****   *          This parameter can be one of the following values:
 705:Drivers/STM32F3xx_HAL_Driver/Src/stm32f3xx_hal_tim.c ****   *            @arg TIM_CHANNEL_1: TIM Channel 1 selected
 706:Drivers/STM32F3xx_HAL_Driver/Src/stm32f3xx_hal_tim.c ****   *            @arg TIM_CHANNEL_2: TIM Channel 2 selected
 707:Drivers/STM32F3xx_HAL_Driver/Src/stm32f3xx_hal_tim.c ****   *            @arg TIM_CHANNEL_3: TIM Channel 3 selected
 708:Drivers/STM32F3xx_HAL_Driver/Src/stm32f3xx_hal_tim.c ****   *            @arg TIM_CHANNEL_4: TIM Channel 4 selected
 709:Drivers/STM32F3xx_HAL_Driver/Src/stm32f3xx_hal_tim.c ****   * @retval HAL status
 710:Drivers/STM32F3xx_HAL_Driver/Src/stm32f3xx_hal_tim.c **** */
 711:Drivers/STM32F3xx_HAL_Driver/Src/stm32f3xx_hal_tim.c **** HAL_StatusTypeDef HAL_TIM_OC_Stop_IT(TIM_HandleTypeDef *htim, uint32_t Channel)
 712:Drivers/STM32F3xx_HAL_Driver/Src/stm32f3xx_hal_tim.c **** {
 713:Drivers/STM32F3xx_HAL_Driver/Src/stm32f3xx_hal_tim.c ****   /* Check the parameters */
 714:Drivers/STM32F3xx_HAL_Driver/Src/stm32f3xx_hal_tim.c ****   assert_param(IS_TIM_CCX_INSTANCE(htim->Instance, Channel));
 715:Drivers/STM32F3xx_HAL_Driver/Src/stm32f3xx_hal_tim.c ****   
 716:Drivers/STM32F3xx_HAL_Driver/Src/stm32f3xx_hal_tim.c ****   switch (Channel)
 717:Drivers/STM32F3xx_HAL_Driver/Src/stm32f3xx_hal_tim.c ****   {
 718:Drivers/STM32F3xx_HAL_Driver/Src/stm32f3xx_hal_tim.c ****     case TIM_CHANNEL_1:
 719:Drivers/STM32F3xx_HAL_Driver/Src/stm32f3xx_hal_tim.c ****     {       
 720:Drivers/STM32F3xx_HAL_Driver/Src/stm32f3xx_hal_tim.c ****       /* Disable the TIM Capture/Compare 1 interrupt */
 721:Drivers/STM32F3xx_HAL_Driver/Src/stm32f3xx_hal_tim.c ****       __HAL_TIM_DISABLE_IT(htim, TIM_IT_CC1);
 722:Drivers/STM32F3xx_HAL_Driver/Src/stm32f3xx_hal_tim.c ****     }
 723:Drivers/STM32F3xx_HAL_Driver/Src/stm32f3xx_hal_tim.c ****     break;
 724:Drivers/STM32F3xx_HAL_Driver/Src/stm32f3xx_hal_tim.c ****     
 725:Drivers/STM32F3xx_HAL_Driver/Src/stm32f3xx_hal_tim.c ****     case TIM_CHANNEL_2:
 726:Drivers/STM32F3xx_HAL_Driver/Src/stm32f3xx_hal_tim.c ****     {
 727:Drivers/STM32F3xx_HAL_Driver/Src/stm32f3xx_hal_tim.c ****       /* Disable the TIM Capture/Compare 2 interrupt */
 728:Drivers/STM32F3xx_HAL_Driver/Src/stm32f3xx_hal_tim.c ****       __HAL_TIM_DISABLE_IT(htim, TIM_IT_CC2);
 729:Drivers/STM32F3xx_HAL_Driver/Src/stm32f3xx_hal_tim.c ****     }
 730:Drivers/STM32F3xx_HAL_Driver/Src/stm32f3xx_hal_tim.c ****     break;
 731:Drivers/STM32F3xx_HAL_Driver/Src/stm32f3xx_hal_tim.c ****     
 732:Drivers/STM32F3xx_HAL_Driver/Src/stm32f3xx_hal_tim.c ****     case TIM_CHANNEL_3:
 733:Drivers/STM32F3xx_HAL_Driver/Src/stm32f3xx_hal_tim.c ****     {
 734:Drivers/STM32F3xx_HAL_Driver/Src/stm32f3xx_hal_tim.c ****       /* Disable the TIM Capture/Compare 3 interrupt */
 735:Drivers/STM32F3xx_HAL_Driver/Src/stm32f3xx_hal_tim.c ****       __HAL_TIM_DISABLE_IT(htim, TIM_IT_CC3);
 736:Drivers/STM32F3xx_HAL_Driver/Src/stm32f3xx_hal_tim.c ****     }
 737:Drivers/STM32F3xx_HAL_Driver/Src/stm32f3xx_hal_tim.c ****     break;
 738:Drivers/STM32F3xx_HAL_Driver/Src/stm32f3xx_hal_tim.c ****     
 739:Drivers/STM32F3xx_HAL_Driver/Src/stm32f3xx_hal_tim.c ****     case TIM_CHANNEL_4:
 740:Drivers/STM32F3xx_HAL_Driver/Src/stm32f3xx_hal_tim.c ****     {
 741:Drivers/STM32F3xx_HAL_Driver/Src/stm32f3xx_hal_tim.c ****       /* Disable the TIM Capture/Compare 4 interrupt */
 742:Drivers/STM32F3xx_HAL_Driver/Src/stm32f3xx_hal_tim.c ****       __HAL_TIM_DISABLE_IT(htim, TIM_IT_CC4);
 743:Drivers/STM32F3xx_HAL_Driver/Src/stm32f3xx_hal_tim.c ****     }
 744:Drivers/STM32F3xx_HAL_Driver/Src/stm32f3xx_hal_tim.c ****     break;
 745:Drivers/STM32F3xx_HAL_Driver/Src/stm32f3xx_hal_tim.c ****     
 746:Drivers/STM32F3xx_HAL_Driver/Src/stm32f3xx_hal_tim.c ****     default:
 747:Drivers/STM32F3xx_HAL_Driver/Src/stm32f3xx_hal_tim.c ****     break; 
 748:Drivers/STM32F3xx_HAL_Driver/Src/stm32f3xx_hal_tim.c ****   } 
 749:Drivers/STM32F3xx_HAL_Driver/Src/stm32f3xx_hal_tim.c ****   
 750:Drivers/STM32F3xx_HAL_Driver/Src/stm32f3xx_hal_tim.c ****   /* Disable the Output compare channel */
 751:Drivers/STM32F3xx_HAL_Driver/Src/stm32f3xx_hal_tim.c ****   TIM_CCxChannelCmd(htim->Instance, Channel, TIM_CCx_DISABLE); 
 752:Drivers/STM32F3xx_HAL_Driver/Src/stm32f3xx_hal_tim.c ****   
 753:Drivers/STM32F3xx_HAL_Driver/Src/stm32f3xx_hal_tim.c ****   if(IS_TIM_BREAK_INSTANCE(htim->Instance) != RESET)  
 754:Drivers/STM32F3xx_HAL_Driver/Src/stm32f3xx_hal_tim.c ****   {
 755:Drivers/STM32F3xx_HAL_Driver/Src/stm32f3xx_hal_tim.c ****     /* Disable the Main Ouput */
ARM GAS  /tmp/ccuQngBj.s 			page 16


 756:Drivers/STM32F3xx_HAL_Driver/Src/stm32f3xx_hal_tim.c ****     __HAL_TIM_MOE_DISABLE(htim);
 757:Drivers/STM32F3xx_HAL_Driver/Src/stm32f3xx_hal_tim.c ****   }
 758:Drivers/STM32F3xx_HAL_Driver/Src/stm32f3xx_hal_tim.c ****   
 759:Drivers/STM32F3xx_HAL_Driver/Src/stm32f3xx_hal_tim.c ****   /* Disable the Peripheral */
 760:Drivers/STM32F3xx_HAL_Driver/Src/stm32f3xx_hal_tim.c ****   __HAL_TIM_DISABLE(htim);  
 761:Drivers/STM32F3xx_HAL_Driver/Src/stm32f3xx_hal_tim.c ****   
 762:Drivers/STM32F3xx_HAL_Driver/Src/stm32f3xx_hal_tim.c ****   /* Return function status */
 763:Drivers/STM32F3xx_HAL_Driver/Src/stm32f3xx_hal_tim.c ****   return HAL_OK;
 764:Drivers/STM32F3xx_HAL_Driver/Src/stm32f3xx_hal_tim.c **** }
 765:Drivers/STM32F3xx_HAL_Driver/Src/stm32f3xx_hal_tim.c **** 
 766:Drivers/STM32F3xx_HAL_Driver/Src/stm32f3xx_hal_tim.c **** /**
 767:Drivers/STM32F3xx_HAL_Driver/Src/stm32f3xx_hal_tim.c ****   * @brief  Starts the TIM Output Compare signal generation in DMA mode.
 768:Drivers/STM32F3xx_HAL_Driver/Src/stm32f3xx_hal_tim.c ****   * @param  htim TIM Output Compare handle
 769:Drivers/STM32F3xx_HAL_Driver/Src/stm32f3xx_hal_tim.c ****   * @param  Channel TIM Channel to be enabled
 770:Drivers/STM32F3xx_HAL_Driver/Src/stm32f3xx_hal_tim.c ****   *          This parameter can be one of the following values:
 771:Drivers/STM32F3xx_HAL_Driver/Src/stm32f3xx_hal_tim.c ****   *            @arg TIM_CHANNEL_1: TIM Channel 1 selected
 772:Drivers/STM32F3xx_HAL_Driver/Src/stm32f3xx_hal_tim.c ****   *            @arg TIM_CHANNEL_2: TIM Channel 2 selected
 773:Drivers/STM32F3xx_HAL_Driver/Src/stm32f3xx_hal_tim.c ****   *            @arg TIM_CHANNEL_3: TIM Channel 3 selected
 774:Drivers/STM32F3xx_HAL_Driver/Src/stm32f3xx_hal_tim.c ****   *            @arg TIM_CHANNEL_4: TIM Channel 4 selected
 775:Drivers/STM32F3xx_HAL_Driver/Src/stm32f3xx_hal_tim.c ****   * @param  pData The source Buffer address.
 776:Drivers/STM32F3xx_HAL_Driver/Src/stm32f3xx_hal_tim.c ****   * @param  Length The length of data to be transferred from memory to TIM peripheral
 777:Drivers/STM32F3xx_HAL_Driver/Src/stm32f3xx_hal_tim.c ****   * @retval HAL status
 778:Drivers/STM32F3xx_HAL_Driver/Src/stm32f3xx_hal_tim.c **** */
 779:Drivers/STM32F3xx_HAL_Driver/Src/stm32f3xx_hal_tim.c **** HAL_StatusTypeDef HAL_TIM_OC_Start_DMA(TIM_HandleTypeDef *htim, uint32_t Channel, uint32_t *pData, 
 780:Drivers/STM32F3xx_HAL_Driver/Src/stm32f3xx_hal_tim.c **** {
 781:Drivers/STM32F3xx_HAL_Driver/Src/stm32f3xx_hal_tim.c ****   /* Check the parameters */
 782:Drivers/STM32F3xx_HAL_Driver/Src/stm32f3xx_hal_tim.c ****   assert_param(IS_TIM_CCX_INSTANCE(htim->Instance, Channel));
 783:Drivers/STM32F3xx_HAL_Driver/Src/stm32f3xx_hal_tim.c ****   
 784:Drivers/STM32F3xx_HAL_Driver/Src/stm32f3xx_hal_tim.c ****   if((htim->State == HAL_TIM_STATE_BUSY))
 785:Drivers/STM32F3xx_HAL_Driver/Src/stm32f3xx_hal_tim.c ****   {
 786:Drivers/STM32F3xx_HAL_Driver/Src/stm32f3xx_hal_tim.c ****      return HAL_BUSY;
 787:Drivers/STM32F3xx_HAL_Driver/Src/stm32f3xx_hal_tim.c ****   }
 788:Drivers/STM32F3xx_HAL_Driver/Src/stm32f3xx_hal_tim.c ****   else if((htim->State == HAL_TIM_STATE_READY))
 789:Drivers/STM32F3xx_HAL_Driver/Src/stm32f3xx_hal_tim.c ****   {
 790:Drivers/STM32F3xx_HAL_Driver/Src/stm32f3xx_hal_tim.c ****     if(((uint32_t)pData == 0U ) && (Length > 0U)) 
 791:Drivers/STM32F3xx_HAL_Driver/Src/stm32f3xx_hal_tim.c ****     {
 792:Drivers/STM32F3xx_HAL_Driver/Src/stm32f3xx_hal_tim.c ****       return HAL_ERROR;                                    
 793:Drivers/STM32F3xx_HAL_Driver/Src/stm32f3xx_hal_tim.c ****     }
 794:Drivers/STM32F3xx_HAL_Driver/Src/stm32f3xx_hal_tim.c ****     else
 795:Drivers/STM32F3xx_HAL_Driver/Src/stm32f3xx_hal_tim.c ****     {
 796:Drivers/STM32F3xx_HAL_Driver/Src/stm32f3xx_hal_tim.c ****       htim->State = HAL_TIM_STATE_BUSY;
 797:Drivers/STM32F3xx_HAL_Driver/Src/stm32f3xx_hal_tim.c ****     }
 798:Drivers/STM32F3xx_HAL_Driver/Src/stm32f3xx_hal_tim.c ****   }    
 799:Drivers/STM32F3xx_HAL_Driver/Src/stm32f3xx_hal_tim.c ****   switch (Channel)
 800:Drivers/STM32F3xx_HAL_Driver/Src/stm32f3xx_hal_tim.c ****   {
 801:Drivers/STM32F3xx_HAL_Driver/Src/stm32f3xx_hal_tim.c ****     case TIM_CHANNEL_1:
 802:Drivers/STM32F3xx_HAL_Driver/Src/stm32f3xx_hal_tim.c ****     {
 803:Drivers/STM32F3xx_HAL_Driver/Src/stm32f3xx_hal_tim.c ****       /* Set the DMA Period elapsed callback */
 804:Drivers/STM32F3xx_HAL_Driver/Src/stm32f3xx_hal_tim.c ****       htim->hdma[TIM_DMA_ID_CC1]->XferCpltCallback = TIM_DMADelayPulseCplt;
 805:Drivers/STM32F3xx_HAL_Driver/Src/stm32f3xx_hal_tim.c ****      
 806:Drivers/STM32F3xx_HAL_Driver/Src/stm32f3xx_hal_tim.c ****       /* Set the DMA error callback */
 807:Drivers/STM32F3xx_HAL_Driver/Src/stm32f3xx_hal_tim.c ****       htim->hdma[TIM_DMA_ID_CC1]->XferErrorCallback = TIM_DMAError ;
 808:Drivers/STM32F3xx_HAL_Driver/Src/stm32f3xx_hal_tim.c ****       
 809:Drivers/STM32F3xx_HAL_Driver/Src/stm32f3xx_hal_tim.c ****       /* Enable the DMA channel */
 810:Drivers/STM32F3xx_HAL_Driver/Src/stm32f3xx_hal_tim.c ****       HAL_DMA_Start_IT(htim->hdma[TIM_DMA_ID_CC1], (uint32_t)pData, (uint32_t)&htim->Instance->CCR1
 811:Drivers/STM32F3xx_HAL_Driver/Src/stm32f3xx_hal_tim.c ****       
 812:Drivers/STM32F3xx_HAL_Driver/Src/stm32f3xx_hal_tim.c ****       /* Enable the TIM Capture/Compare 1 DMA request */
ARM GAS  /tmp/ccuQngBj.s 			page 17


 813:Drivers/STM32F3xx_HAL_Driver/Src/stm32f3xx_hal_tim.c ****       __HAL_TIM_ENABLE_DMA(htim, TIM_DMA_CC1);
 814:Drivers/STM32F3xx_HAL_Driver/Src/stm32f3xx_hal_tim.c ****     }
 815:Drivers/STM32F3xx_HAL_Driver/Src/stm32f3xx_hal_tim.c ****     break;
 816:Drivers/STM32F3xx_HAL_Driver/Src/stm32f3xx_hal_tim.c ****     
 817:Drivers/STM32F3xx_HAL_Driver/Src/stm32f3xx_hal_tim.c ****     case TIM_CHANNEL_2:
 818:Drivers/STM32F3xx_HAL_Driver/Src/stm32f3xx_hal_tim.c ****     {
 819:Drivers/STM32F3xx_HAL_Driver/Src/stm32f3xx_hal_tim.c ****       /* Set the DMA Period elapsed callback */
 820:Drivers/STM32F3xx_HAL_Driver/Src/stm32f3xx_hal_tim.c ****       htim->hdma[TIM_DMA_ID_CC2]->XferCpltCallback = TIM_DMADelayPulseCplt;
 821:Drivers/STM32F3xx_HAL_Driver/Src/stm32f3xx_hal_tim.c ****      
 822:Drivers/STM32F3xx_HAL_Driver/Src/stm32f3xx_hal_tim.c ****       /* Set the DMA error callback */
 823:Drivers/STM32F3xx_HAL_Driver/Src/stm32f3xx_hal_tim.c ****       htim->hdma[TIM_DMA_ID_CC2]->XferErrorCallback = TIM_DMAError ;
 824:Drivers/STM32F3xx_HAL_Driver/Src/stm32f3xx_hal_tim.c ****       
 825:Drivers/STM32F3xx_HAL_Driver/Src/stm32f3xx_hal_tim.c ****       /* Enable the DMA channel */
 826:Drivers/STM32F3xx_HAL_Driver/Src/stm32f3xx_hal_tim.c ****       HAL_DMA_Start_IT(htim->hdma[TIM_DMA_ID_CC2], (uint32_t)pData, (uint32_t)&htim->Instance->CCR2
 827:Drivers/STM32F3xx_HAL_Driver/Src/stm32f3xx_hal_tim.c ****       
 828:Drivers/STM32F3xx_HAL_Driver/Src/stm32f3xx_hal_tim.c ****       /* Enable the TIM Capture/Compare 2 DMA request */
 829:Drivers/STM32F3xx_HAL_Driver/Src/stm32f3xx_hal_tim.c ****       __HAL_TIM_ENABLE_DMA(htim, TIM_DMA_CC2);
 830:Drivers/STM32F3xx_HAL_Driver/Src/stm32f3xx_hal_tim.c ****     }
 831:Drivers/STM32F3xx_HAL_Driver/Src/stm32f3xx_hal_tim.c ****     break;
 832:Drivers/STM32F3xx_HAL_Driver/Src/stm32f3xx_hal_tim.c ****     
 833:Drivers/STM32F3xx_HAL_Driver/Src/stm32f3xx_hal_tim.c ****     case TIM_CHANNEL_3:
 834:Drivers/STM32F3xx_HAL_Driver/Src/stm32f3xx_hal_tim.c ****     {
 835:Drivers/STM32F3xx_HAL_Driver/Src/stm32f3xx_hal_tim.c ****       /* Set the DMA Period elapsed callback */
 836:Drivers/STM32F3xx_HAL_Driver/Src/stm32f3xx_hal_tim.c ****       htim->hdma[TIM_DMA_ID_CC3]->XferCpltCallback = TIM_DMADelayPulseCplt;
 837:Drivers/STM32F3xx_HAL_Driver/Src/stm32f3xx_hal_tim.c ****      
 838:Drivers/STM32F3xx_HAL_Driver/Src/stm32f3xx_hal_tim.c ****       /* Set the DMA error callback */
 839:Drivers/STM32F3xx_HAL_Driver/Src/stm32f3xx_hal_tim.c ****       htim->hdma[TIM_DMA_ID_CC3]->XferErrorCallback = TIM_DMAError ;
 840:Drivers/STM32F3xx_HAL_Driver/Src/stm32f3xx_hal_tim.c ****       
 841:Drivers/STM32F3xx_HAL_Driver/Src/stm32f3xx_hal_tim.c ****       /* Enable the DMA channel */
 842:Drivers/STM32F3xx_HAL_Driver/Src/stm32f3xx_hal_tim.c ****       HAL_DMA_Start_IT(htim->hdma[TIM_DMA_ID_CC3], (uint32_t)pData, (uint32_t)&htim->Instance->CCR3
 843:Drivers/STM32F3xx_HAL_Driver/Src/stm32f3xx_hal_tim.c ****       
 844:Drivers/STM32F3xx_HAL_Driver/Src/stm32f3xx_hal_tim.c ****       /* Enable the TIM Capture/Compare 3 DMA request */
 845:Drivers/STM32F3xx_HAL_Driver/Src/stm32f3xx_hal_tim.c ****       __HAL_TIM_ENABLE_DMA(htim, TIM_DMA_CC3);
 846:Drivers/STM32F3xx_HAL_Driver/Src/stm32f3xx_hal_tim.c ****     }
 847:Drivers/STM32F3xx_HAL_Driver/Src/stm32f3xx_hal_tim.c ****     break;
 848:Drivers/STM32F3xx_HAL_Driver/Src/stm32f3xx_hal_tim.c ****     
 849:Drivers/STM32F3xx_HAL_Driver/Src/stm32f3xx_hal_tim.c ****     case TIM_CHANNEL_4:
 850:Drivers/STM32F3xx_HAL_Driver/Src/stm32f3xx_hal_tim.c ****     {
 851:Drivers/STM32F3xx_HAL_Driver/Src/stm32f3xx_hal_tim.c ****      /* Set the DMA Period elapsed callback */
 852:Drivers/STM32F3xx_HAL_Driver/Src/stm32f3xx_hal_tim.c ****       htim->hdma[TIM_DMA_ID_CC4]->XferCpltCallback = TIM_DMADelayPulseCplt;
 853:Drivers/STM32F3xx_HAL_Driver/Src/stm32f3xx_hal_tim.c ****      
 854:Drivers/STM32F3xx_HAL_Driver/Src/stm32f3xx_hal_tim.c ****       /* Set the DMA error callback */
 855:Drivers/STM32F3xx_HAL_Driver/Src/stm32f3xx_hal_tim.c ****       htim->hdma[TIM_DMA_ID_CC4]->XferErrorCallback = TIM_DMAError ;
 856:Drivers/STM32F3xx_HAL_Driver/Src/stm32f3xx_hal_tim.c ****       
 857:Drivers/STM32F3xx_HAL_Driver/Src/stm32f3xx_hal_tim.c ****       /* Enable the DMA channel */
 858:Drivers/STM32F3xx_HAL_Driver/Src/stm32f3xx_hal_tim.c ****       HAL_DMA_Start_IT(htim->hdma[TIM_DMA_ID_CC4], (uint32_t)pData, (uint32_t)&htim->Instance->CCR4
 859:Drivers/STM32F3xx_HAL_Driver/Src/stm32f3xx_hal_tim.c ****       
 860:Drivers/STM32F3xx_HAL_Driver/Src/stm32f3xx_hal_tim.c ****       /* Enable the TIM Capture/Compare 4 DMA request */
 861:Drivers/STM32F3xx_HAL_Driver/Src/stm32f3xx_hal_tim.c ****       __HAL_TIM_ENABLE_DMA(htim, TIM_DMA_CC4);
 862:Drivers/STM32F3xx_HAL_Driver/Src/stm32f3xx_hal_tim.c ****     }
 863:Drivers/STM32F3xx_HAL_Driver/Src/stm32f3xx_hal_tim.c ****     break;
 864:Drivers/STM32F3xx_HAL_Driver/Src/stm32f3xx_hal_tim.c ****     
 865:Drivers/STM32F3xx_HAL_Driver/Src/stm32f3xx_hal_tim.c ****     default:
 866:Drivers/STM32F3xx_HAL_Driver/Src/stm32f3xx_hal_tim.c ****     break;
 867:Drivers/STM32F3xx_HAL_Driver/Src/stm32f3xx_hal_tim.c ****   }
 868:Drivers/STM32F3xx_HAL_Driver/Src/stm32f3xx_hal_tim.c **** 
 869:Drivers/STM32F3xx_HAL_Driver/Src/stm32f3xx_hal_tim.c ****   /* Enable the Output compare channel */
ARM GAS  /tmp/ccuQngBj.s 			page 18


 870:Drivers/STM32F3xx_HAL_Driver/Src/stm32f3xx_hal_tim.c ****   TIM_CCxChannelCmd(htim->Instance, Channel, TIM_CCx_ENABLE);
 871:Drivers/STM32F3xx_HAL_Driver/Src/stm32f3xx_hal_tim.c ****   
 872:Drivers/STM32F3xx_HAL_Driver/Src/stm32f3xx_hal_tim.c ****   if(IS_TIM_BREAK_INSTANCE(htim->Instance) != RESET)  
 873:Drivers/STM32F3xx_HAL_Driver/Src/stm32f3xx_hal_tim.c ****   {
 874:Drivers/STM32F3xx_HAL_Driver/Src/stm32f3xx_hal_tim.c ****     /* Enable the main output */
 875:Drivers/STM32F3xx_HAL_Driver/Src/stm32f3xx_hal_tim.c ****     __HAL_TIM_MOE_ENABLE(htim);
 876:Drivers/STM32F3xx_HAL_Driver/Src/stm32f3xx_hal_tim.c ****   }  
 877:Drivers/STM32F3xx_HAL_Driver/Src/stm32f3xx_hal_tim.c ****   
 878:Drivers/STM32F3xx_HAL_Driver/Src/stm32f3xx_hal_tim.c ****   /* Enable the Peripheral */
 879:Drivers/STM32F3xx_HAL_Driver/Src/stm32f3xx_hal_tim.c ****   __HAL_TIM_ENABLE(htim); 
 880:Drivers/STM32F3xx_HAL_Driver/Src/stm32f3xx_hal_tim.c ****   
 881:Drivers/STM32F3xx_HAL_Driver/Src/stm32f3xx_hal_tim.c ****   /* Return function status */
 882:Drivers/STM32F3xx_HAL_Driver/Src/stm32f3xx_hal_tim.c ****   return HAL_OK;
 883:Drivers/STM32F3xx_HAL_Driver/Src/stm32f3xx_hal_tim.c **** }
 884:Drivers/STM32F3xx_HAL_Driver/Src/stm32f3xx_hal_tim.c **** 
 885:Drivers/STM32F3xx_HAL_Driver/Src/stm32f3xx_hal_tim.c **** /**
 886:Drivers/STM32F3xx_HAL_Driver/Src/stm32f3xx_hal_tim.c ****   * @brief  Stops the TIM Output Compare signal generation in DMA mode.
 887:Drivers/STM32F3xx_HAL_Driver/Src/stm32f3xx_hal_tim.c ****   * @param  htim TIM Output Compare handle
 888:Drivers/STM32F3xx_HAL_Driver/Src/stm32f3xx_hal_tim.c ****   * @param  Channel TIM Channel to be disabled
 889:Drivers/STM32F3xx_HAL_Driver/Src/stm32f3xx_hal_tim.c ****   *          This parameter can be one of the following values:
 890:Drivers/STM32F3xx_HAL_Driver/Src/stm32f3xx_hal_tim.c ****   *            @arg TIM_CHANNEL_1: TIM Channel 1 selected
 891:Drivers/STM32F3xx_HAL_Driver/Src/stm32f3xx_hal_tim.c ****   *            @arg TIM_CHANNEL_2: TIM Channel 2 selected
 892:Drivers/STM32F3xx_HAL_Driver/Src/stm32f3xx_hal_tim.c ****   *            @arg TIM_CHANNEL_3: TIM Channel 3 selected
 893:Drivers/STM32F3xx_HAL_Driver/Src/stm32f3xx_hal_tim.c ****   *            @arg TIM_CHANNEL_4: TIM Channel 4 selected
 894:Drivers/STM32F3xx_HAL_Driver/Src/stm32f3xx_hal_tim.c ****   * @retval HAL status
 895:Drivers/STM32F3xx_HAL_Driver/Src/stm32f3xx_hal_tim.c **** */
 896:Drivers/STM32F3xx_HAL_Driver/Src/stm32f3xx_hal_tim.c **** HAL_StatusTypeDef HAL_TIM_OC_Stop_DMA(TIM_HandleTypeDef *htim, uint32_t Channel)
 897:Drivers/STM32F3xx_HAL_Driver/Src/stm32f3xx_hal_tim.c **** {
 898:Drivers/STM32F3xx_HAL_Driver/Src/stm32f3xx_hal_tim.c ****   /* Check the parameters */
 899:Drivers/STM32F3xx_HAL_Driver/Src/stm32f3xx_hal_tim.c ****   assert_param(IS_TIM_CCX_INSTANCE(htim->Instance, Channel));
 900:Drivers/STM32F3xx_HAL_Driver/Src/stm32f3xx_hal_tim.c ****   
 901:Drivers/STM32F3xx_HAL_Driver/Src/stm32f3xx_hal_tim.c ****   switch (Channel)
 902:Drivers/STM32F3xx_HAL_Driver/Src/stm32f3xx_hal_tim.c ****   {
 903:Drivers/STM32F3xx_HAL_Driver/Src/stm32f3xx_hal_tim.c ****     case TIM_CHANNEL_1:
 904:Drivers/STM32F3xx_HAL_Driver/Src/stm32f3xx_hal_tim.c ****     {       
 905:Drivers/STM32F3xx_HAL_Driver/Src/stm32f3xx_hal_tim.c ****       /* Disable the TIM Capture/Compare 1 DMA request */
 906:Drivers/STM32F3xx_HAL_Driver/Src/stm32f3xx_hal_tim.c ****       __HAL_TIM_DISABLE_DMA(htim, TIM_DMA_CC1);
 907:Drivers/STM32F3xx_HAL_Driver/Src/stm32f3xx_hal_tim.c ****     }
 908:Drivers/STM32F3xx_HAL_Driver/Src/stm32f3xx_hal_tim.c ****     break;
 909:Drivers/STM32F3xx_HAL_Driver/Src/stm32f3xx_hal_tim.c ****     
 910:Drivers/STM32F3xx_HAL_Driver/Src/stm32f3xx_hal_tim.c ****     case TIM_CHANNEL_2:
 911:Drivers/STM32F3xx_HAL_Driver/Src/stm32f3xx_hal_tim.c ****     {
 912:Drivers/STM32F3xx_HAL_Driver/Src/stm32f3xx_hal_tim.c ****       /* Disable the TIM Capture/Compare 2 DMA request */
 913:Drivers/STM32F3xx_HAL_Driver/Src/stm32f3xx_hal_tim.c ****       __HAL_TIM_DISABLE_DMA(htim, TIM_DMA_CC2);
 914:Drivers/STM32F3xx_HAL_Driver/Src/stm32f3xx_hal_tim.c ****     }
 915:Drivers/STM32F3xx_HAL_Driver/Src/stm32f3xx_hal_tim.c ****     break;
 916:Drivers/STM32F3xx_HAL_Driver/Src/stm32f3xx_hal_tim.c ****     
 917:Drivers/STM32F3xx_HAL_Driver/Src/stm32f3xx_hal_tim.c ****     case TIM_CHANNEL_3:
 918:Drivers/STM32F3xx_HAL_Driver/Src/stm32f3xx_hal_tim.c ****     {
 919:Drivers/STM32F3xx_HAL_Driver/Src/stm32f3xx_hal_tim.c ****       /* Disable the TIM Capture/Compare 3 DMA request */
 920:Drivers/STM32F3xx_HAL_Driver/Src/stm32f3xx_hal_tim.c ****       __HAL_TIM_DISABLE_DMA(htim, TIM_DMA_CC3);
 921:Drivers/STM32F3xx_HAL_Driver/Src/stm32f3xx_hal_tim.c ****     }
 922:Drivers/STM32F3xx_HAL_Driver/Src/stm32f3xx_hal_tim.c ****     break;
 923:Drivers/STM32F3xx_HAL_Driver/Src/stm32f3xx_hal_tim.c ****     
 924:Drivers/STM32F3xx_HAL_Driver/Src/stm32f3xx_hal_tim.c ****     case TIM_CHANNEL_4:
 925:Drivers/STM32F3xx_HAL_Driver/Src/stm32f3xx_hal_tim.c ****     {
 926:Drivers/STM32F3xx_HAL_Driver/Src/stm32f3xx_hal_tim.c ****       /* Disable the TIM Capture/Compare 4 interrupt */
ARM GAS  /tmp/ccuQngBj.s 			page 19


 927:Drivers/STM32F3xx_HAL_Driver/Src/stm32f3xx_hal_tim.c ****       __HAL_TIM_DISABLE_DMA(htim, TIM_DMA_CC4);
 928:Drivers/STM32F3xx_HAL_Driver/Src/stm32f3xx_hal_tim.c ****     }
 929:Drivers/STM32F3xx_HAL_Driver/Src/stm32f3xx_hal_tim.c ****     break;
 930:Drivers/STM32F3xx_HAL_Driver/Src/stm32f3xx_hal_tim.c ****     
 931:Drivers/STM32F3xx_HAL_Driver/Src/stm32f3xx_hal_tim.c ****     default:
 932:Drivers/STM32F3xx_HAL_Driver/Src/stm32f3xx_hal_tim.c ****     break;
 933:Drivers/STM32F3xx_HAL_Driver/Src/stm32f3xx_hal_tim.c ****   } 
 934:Drivers/STM32F3xx_HAL_Driver/Src/stm32f3xx_hal_tim.c ****   
 935:Drivers/STM32F3xx_HAL_Driver/Src/stm32f3xx_hal_tim.c ****   /* Disable the Output compare channel */
 936:Drivers/STM32F3xx_HAL_Driver/Src/stm32f3xx_hal_tim.c ****   TIM_CCxChannelCmd(htim->Instance, Channel, TIM_CCx_DISABLE);
 937:Drivers/STM32F3xx_HAL_Driver/Src/stm32f3xx_hal_tim.c ****   
 938:Drivers/STM32F3xx_HAL_Driver/Src/stm32f3xx_hal_tim.c ****   if(IS_TIM_BREAK_INSTANCE(htim->Instance) != RESET)  
 939:Drivers/STM32F3xx_HAL_Driver/Src/stm32f3xx_hal_tim.c ****   {
 940:Drivers/STM32F3xx_HAL_Driver/Src/stm32f3xx_hal_tim.c ****     /* Disable the Main Ouput */
 941:Drivers/STM32F3xx_HAL_Driver/Src/stm32f3xx_hal_tim.c ****     __HAL_TIM_MOE_DISABLE(htim);
 942:Drivers/STM32F3xx_HAL_Driver/Src/stm32f3xx_hal_tim.c ****   }
 943:Drivers/STM32F3xx_HAL_Driver/Src/stm32f3xx_hal_tim.c ****   
 944:Drivers/STM32F3xx_HAL_Driver/Src/stm32f3xx_hal_tim.c ****   /* Disable the Peripheral */
 945:Drivers/STM32F3xx_HAL_Driver/Src/stm32f3xx_hal_tim.c ****   __HAL_TIM_DISABLE(htim);
 946:Drivers/STM32F3xx_HAL_Driver/Src/stm32f3xx_hal_tim.c ****   
 947:Drivers/STM32F3xx_HAL_Driver/Src/stm32f3xx_hal_tim.c ****   /* Change the htim state */
 948:Drivers/STM32F3xx_HAL_Driver/Src/stm32f3xx_hal_tim.c ****   htim->State = HAL_TIM_STATE_READY;
 949:Drivers/STM32F3xx_HAL_Driver/Src/stm32f3xx_hal_tim.c ****   
 950:Drivers/STM32F3xx_HAL_Driver/Src/stm32f3xx_hal_tim.c ****   /* Return function status */
 951:Drivers/STM32F3xx_HAL_Driver/Src/stm32f3xx_hal_tim.c ****   return HAL_OK;
 952:Drivers/STM32F3xx_HAL_Driver/Src/stm32f3xx_hal_tim.c **** }
 953:Drivers/STM32F3xx_HAL_Driver/Src/stm32f3xx_hal_tim.c **** 
 954:Drivers/STM32F3xx_HAL_Driver/Src/stm32f3xx_hal_tim.c **** /**
 955:Drivers/STM32F3xx_HAL_Driver/Src/stm32f3xx_hal_tim.c ****   * @}
 956:Drivers/STM32F3xx_HAL_Driver/Src/stm32f3xx_hal_tim.c ****   */
 957:Drivers/STM32F3xx_HAL_Driver/Src/stm32f3xx_hal_tim.c **** 
 958:Drivers/STM32F3xx_HAL_Driver/Src/stm32f3xx_hal_tim.c **** /** @defgroup TIM_Exported_Functions_Group3 Time PWM functions 
 959:Drivers/STM32F3xx_HAL_Driver/Src/stm32f3xx_hal_tim.c ****  *  @brief    Time PWM functions 
 960:Drivers/STM32F3xx_HAL_Driver/Src/stm32f3xx_hal_tim.c ****  *
 961:Drivers/STM32F3xx_HAL_Driver/Src/stm32f3xx_hal_tim.c **** @verbatim    
 962:Drivers/STM32F3xx_HAL_Driver/Src/stm32f3xx_hal_tim.c ****   ==============================================================================
 963:Drivers/STM32F3xx_HAL_Driver/Src/stm32f3xx_hal_tim.c ****                           ##### Time PWM functions #####
 964:Drivers/STM32F3xx_HAL_Driver/Src/stm32f3xx_hal_tim.c ****   ==============================================================================
 965:Drivers/STM32F3xx_HAL_Driver/Src/stm32f3xx_hal_tim.c ****   [..]  
 966:Drivers/STM32F3xx_HAL_Driver/Src/stm32f3xx_hal_tim.c ****     This section provides functions allowing to:
 967:Drivers/STM32F3xx_HAL_Driver/Src/stm32f3xx_hal_tim.c ****     (+) Initialize and configure the TIM OPWM. 
 968:Drivers/STM32F3xx_HAL_Driver/Src/stm32f3xx_hal_tim.c ****     (+) De-initialize the TIM PWM.
 969:Drivers/STM32F3xx_HAL_Driver/Src/stm32f3xx_hal_tim.c ****     (+) Start the Time PWM.
 970:Drivers/STM32F3xx_HAL_Driver/Src/stm32f3xx_hal_tim.c ****     (+) Stop the Time PWM.
 971:Drivers/STM32F3xx_HAL_Driver/Src/stm32f3xx_hal_tim.c ****     (+) Start the Time PWM and enable interrupt.
 972:Drivers/STM32F3xx_HAL_Driver/Src/stm32f3xx_hal_tim.c ****     (+) Stop the Time PWM and disable interrupt.
 973:Drivers/STM32F3xx_HAL_Driver/Src/stm32f3xx_hal_tim.c ****     (+) Start the Time PWM and enable DMA transfer.
 974:Drivers/STM32F3xx_HAL_Driver/Src/stm32f3xx_hal_tim.c ****     (+) Stop the Time PWM and disable DMA transfer.
 975:Drivers/STM32F3xx_HAL_Driver/Src/stm32f3xx_hal_tim.c ****  
 976:Drivers/STM32F3xx_HAL_Driver/Src/stm32f3xx_hal_tim.c **** @endverbatim
 977:Drivers/STM32F3xx_HAL_Driver/Src/stm32f3xx_hal_tim.c ****   * @{
 978:Drivers/STM32F3xx_HAL_Driver/Src/stm32f3xx_hal_tim.c ****   */
 979:Drivers/STM32F3xx_HAL_Driver/Src/stm32f3xx_hal_tim.c **** /**
 980:Drivers/STM32F3xx_HAL_Driver/Src/stm32f3xx_hal_tim.c ****   * @brief  Initializes the TIM PWM Time Base according to the specified
 981:Drivers/STM32F3xx_HAL_Driver/Src/stm32f3xx_hal_tim.c ****   *         parameters in the TIM_HandleTypeDef and create the associated handle.
 982:Drivers/STM32F3xx_HAL_Driver/Src/stm32f3xx_hal_tim.c ****   * @param  htim TIM handle
 983:Drivers/STM32F3xx_HAL_Driver/Src/stm32f3xx_hal_tim.c ****   * @retval HAL status
ARM GAS  /tmp/ccuQngBj.s 			page 20


 984:Drivers/STM32F3xx_HAL_Driver/Src/stm32f3xx_hal_tim.c ****   */
 985:Drivers/STM32F3xx_HAL_Driver/Src/stm32f3xx_hal_tim.c **** HAL_StatusTypeDef HAL_TIM_PWM_Init(TIM_HandleTypeDef *htim)
 986:Drivers/STM32F3xx_HAL_Driver/Src/stm32f3xx_hal_tim.c **** {
 987:Drivers/STM32F3xx_HAL_Driver/Src/stm32f3xx_hal_tim.c ****   /* Check the TIM handle allocation */
 988:Drivers/STM32F3xx_HAL_Driver/Src/stm32f3xx_hal_tim.c ****   if(htim == NULL)
 989:Drivers/STM32F3xx_HAL_Driver/Src/stm32f3xx_hal_tim.c ****   {
 990:Drivers/STM32F3xx_HAL_Driver/Src/stm32f3xx_hal_tim.c ****     return HAL_ERROR;
 991:Drivers/STM32F3xx_HAL_Driver/Src/stm32f3xx_hal_tim.c ****   }
 992:Drivers/STM32F3xx_HAL_Driver/Src/stm32f3xx_hal_tim.c **** 
 993:Drivers/STM32F3xx_HAL_Driver/Src/stm32f3xx_hal_tim.c ****   /* Check the parameters */
 994:Drivers/STM32F3xx_HAL_Driver/Src/stm32f3xx_hal_tim.c ****   assert_param(IS_TIM_INSTANCE(htim->Instance));
 995:Drivers/STM32F3xx_HAL_Driver/Src/stm32f3xx_hal_tim.c ****   assert_param(IS_TIM_COUNTER_MODE(htim->Init.CounterMode));
 996:Drivers/STM32F3xx_HAL_Driver/Src/stm32f3xx_hal_tim.c ****   assert_param(IS_TIM_CLOCKDIVISION_DIV(htim->Init.ClockDivision));
 997:Drivers/STM32F3xx_HAL_Driver/Src/stm32f3xx_hal_tim.c ****   assert_param(IS_TIM_AUTORELOAD_PRELOAD(htim->Init.AutoReloadPreload));
 998:Drivers/STM32F3xx_HAL_Driver/Src/stm32f3xx_hal_tim.c **** 
 999:Drivers/STM32F3xx_HAL_Driver/Src/stm32f3xx_hal_tim.c ****   if(htim->State == HAL_TIM_STATE_RESET)
1000:Drivers/STM32F3xx_HAL_Driver/Src/stm32f3xx_hal_tim.c ****   {
1001:Drivers/STM32F3xx_HAL_Driver/Src/stm32f3xx_hal_tim.c ****     /* Allocate lock resource and initialize it */
1002:Drivers/STM32F3xx_HAL_Driver/Src/stm32f3xx_hal_tim.c ****     htim->Lock = HAL_UNLOCKED;
1003:Drivers/STM32F3xx_HAL_Driver/Src/stm32f3xx_hal_tim.c **** 
1004:Drivers/STM32F3xx_HAL_Driver/Src/stm32f3xx_hal_tim.c ****     /* Init the low level hardware : GPIO, CLOCK, NVIC and DMA */
1005:Drivers/STM32F3xx_HAL_Driver/Src/stm32f3xx_hal_tim.c ****     HAL_TIM_PWM_MspInit(htim);
1006:Drivers/STM32F3xx_HAL_Driver/Src/stm32f3xx_hal_tim.c ****   }
1007:Drivers/STM32F3xx_HAL_Driver/Src/stm32f3xx_hal_tim.c **** 
1008:Drivers/STM32F3xx_HAL_Driver/Src/stm32f3xx_hal_tim.c ****   /* Set the TIM state */
1009:Drivers/STM32F3xx_HAL_Driver/Src/stm32f3xx_hal_tim.c ****   htim->State= HAL_TIM_STATE_BUSY;
1010:Drivers/STM32F3xx_HAL_Driver/Src/stm32f3xx_hal_tim.c ****  
1011:Drivers/STM32F3xx_HAL_Driver/Src/stm32f3xx_hal_tim.c ****   /* Init the base time for the PWM */  
1012:Drivers/STM32F3xx_HAL_Driver/Src/stm32f3xx_hal_tim.c ****   TIM_Base_SetConfig(htim->Instance, &htim->Init); 
1013:Drivers/STM32F3xx_HAL_Driver/Src/stm32f3xx_hal_tim.c ****    
1014:Drivers/STM32F3xx_HAL_Driver/Src/stm32f3xx_hal_tim.c ****   /* Initialize the TIM state*/
1015:Drivers/STM32F3xx_HAL_Driver/Src/stm32f3xx_hal_tim.c ****   htim->State= HAL_TIM_STATE_READY;
1016:Drivers/STM32F3xx_HAL_Driver/Src/stm32f3xx_hal_tim.c ****   
1017:Drivers/STM32F3xx_HAL_Driver/Src/stm32f3xx_hal_tim.c ****   return HAL_OK;
1018:Drivers/STM32F3xx_HAL_Driver/Src/stm32f3xx_hal_tim.c **** }
1019:Drivers/STM32F3xx_HAL_Driver/Src/stm32f3xx_hal_tim.c **** 
1020:Drivers/STM32F3xx_HAL_Driver/Src/stm32f3xx_hal_tim.c **** /**
1021:Drivers/STM32F3xx_HAL_Driver/Src/stm32f3xx_hal_tim.c ****   * @brief  DeInitializes the TIM peripheral 
1022:Drivers/STM32F3xx_HAL_Driver/Src/stm32f3xx_hal_tim.c ****   * @param  htim TIM handle
1023:Drivers/STM32F3xx_HAL_Driver/Src/stm32f3xx_hal_tim.c ****   * @retval HAL status
1024:Drivers/STM32F3xx_HAL_Driver/Src/stm32f3xx_hal_tim.c ****   */
1025:Drivers/STM32F3xx_HAL_Driver/Src/stm32f3xx_hal_tim.c **** HAL_StatusTypeDef HAL_TIM_PWM_DeInit(TIM_HandleTypeDef *htim)
1026:Drivers/STM32F3xx_HAL_Driver/Src/stm32f3xx_hal_tim.c **** {
1027:Drivers/STM32F3xx_HAL_Driver/Src/stm32f3xx_hal_tim.c ****   /* Check the parameters */
1028:Drivers/STM32F3xx_HAL_Driver/Src/stm32f3xx_hal_tim.c ****   assert_param(IS_TIM_INSTANCE(htim->Instance));
1029:Drivers/STM32F3xx_HAL_Driver/Src/stm32f3xx_hal_tim.c ****   
1030:Drivers/STM32F3xx_HAL_Driver/Src/stm32f3xx_hal_tim.c ****   htim->State = HAL_TIM_STATE_BUSY;
1031:Drivers/STM32F3xx_HAL_Driver/Src/stm32f3xx_hal_tim.c ****   
1032:Drivers/STM32F3xx_HAL_Driver/Src/stm32f3xx_hal_tim.c ****   /* Disable the TIM Peripheral Clock */
1033:Drivers/STM32F3xx_HAL_Driver/Src/stm32f3xx_hal_tim.c ****   __HAL_TIM_DISABLE(htim);
1034:Drivers/STM32F3xx_HAL_Driver/Src/stm32f3xx_hal_tim.c ****     
1035:Drivers/STM32F3xx_HAL_Driver/Src/stm32f3xx_hal_tim.c ****   /* DeInit the low level hardware: GPIO, CLOCK, NVIC and DMA */
1036:Drivers/STM32F3xx_HAL_Driver/Src/stm32f3xx_hal_tim.c ****   HAL_TIM_PWM_MspDeInit(htim);
1037:Drivers/STM32F3xx_HAL_Driver/Src/stm32f3xx_hal_tim.c ****     
1038:Drivers/STM32F3xx_HAL_Driver/Src/stm32f3xx_hal_tim.c ****   /* Change TIM state */  
1039:Drivers/STM32F3xx_HAL_Driver/Src/stm32f3xx_hal_tim.c ****   htim->State = HAL_TIM_STATE_RESET; 
1040:Drivers/STM32F3xx_HAL_Driver/Src/stm32f3xx_hal_tim.c ****   
ARM GAS  /tmp/ccuQngBj.s 			page 21


1041:Drivers/STM32F3xx_HAL_Driver/Src/stm32f3xx_hal_tim.c ****   /* Release Lock */
1042:Drivers/STM32F3xx_HAL_Driver/Src/stm32f3xx_hal_tim.c ****   __HAL_UNLOCK(htim);
1043:Drivers/STM32F3xx_HAL_Driver/Src/stm32f3xx_hal_tim.c **** 
1044:Drivers/STM32F3xx_HAL_Driver/Src/stm32f3xx_hal_tim.c ****   return HAL_OK;
1045:Drivers/STM32F3xx_HAL_Driver/Src/stm32f3xx_hal_tim.c **** }
1046:Drivers/STM32F3xx_HAL_Driver/Src/stm32f3xx_hal_tim.c **** 
1047:Drivers/STM32F3xx_HAL_Driver/Src/stm32f3xx_hal_tim.c **** /**
1048:Drivers/STM32F3xx_HAL_Driver/Src/stm32f3xx_hal_tim.c ****   * @brief  Initializes the TIM PWM MSP.
1049:Drivers/STM32F3xx_HAL_Driver/Src/stm32f3xx_hal_tim.c ****   * @param  htim TIM handle
1050:Drivers/STM32F3xx_HAL_Driver/Src/stm32f3xx_hal_tim.c ****   * @retval None
1051:Drivers/STM32F3xx_HAL_Driver/Src/stm32f3xx_hal_tim.c ****   */
1052:Drivers/STM32F3xx_HAL_Driver/Src/stm32f3xx_hal_tim.c **** __weak void HAL_TIM_PWM_MspInit(TIM_HandleTypeDef *htim)
1053:Drivers/STM32F3xx_HAL_Driver/Src/stm32f3xx_hal_tim.c **** {
1054:Drivers/STM32F3xx_HAL_Driver/Src/stm32f3xx_hal_tim.c ****   /* Prevent unused argument(s) compilation warning */
1055:Drivers/STM32F3xx_HAL_Driver/Src/stm32f3xx_hal_tim.c ****   UNUSED(htim);
1056:Drivers/STM32F3xx_HAL_Driver/Src/stm32f3xx_hal_tim.c **** 
1057:Drivers/STM32F3xx_HAL_Driver/Src/stm32f3xx_hal_tim.c ****   /* NOTE : This function Should not be modified, when the callback is needed,
1058:Drivers/STM32F3xx_HAL_Driver/Src/stm32f3xx_hal_tim.c ****             the HAL_TIM_PWM_MspInit could be implemented in the user file
1059:Drivers/STM32F3xx_HAL_Driver/Src/stm32f3xx_hal_tim.c ****    */
1060:Drivers/STM32F3xx_HAL_Driver/Src/stm32f3xx_hal_tim.c **** }
1061:Drivers/STM32F3xx_HAL_Driver/Src/stm32f3xx_hal_tim.c **** 
1062:Drivers/STM32F3xx_HAL_Driver/Src/stm32f3xx_hal_tim.c **** /**
1063:Drivers/STM32F3xx_HAL_Driver/Src/stm32f3xx_hal_tim.c ****   * @brief  DeInitializes TIM PWM MSP.
1064:Drivers/STM32F3xx_HAL_Driver/Src/stm32f3xx_hal_tim.c ****   * @param  htim TIM handle
1065:Drivers/STM32F3xx_HAL_Driver/Src/stm32f3xx_hal_tim.c ****   * @retval None
1066:Drivers/STM32F3xx_HAL_Driver/Src/stm32f3xx_hal_tim.c ****   */
1067:Drivers/STM32F3xx_HAL_Driver/Src/stm32f3xx_hal_tim.c **** __weak void HAL_TIM_PWM_MspDeInit(TIM_HandleTypeDef *htim)
1068:Drivers/STM32F3xx_HAL_Driver/Src/stm32f3xx_hal_tim.c **** {
1069:Drivers/STM32F3xx_HAL_Driver/Src/stm32f3xx_hal_tim.c ****   /* Prevent unused argument(s) compilation warning */
1070:Drivers/STM32F3xx_HAL_Driver/Src/stm32f3xx_hal_tim.c ****   UNUSED(htim);
1071:Drivers/STM32F3xx_HAL_Driver/Src/stm32f3xx_hal_tim.c **** 
1072:Drivers/STM32F3xx_HAL_Driver/Src/stm32f3xx_hal_tim.c ****   /* NOTE : This function Should not be modified, when the callback is needed,
1073:Drivers/STM32F3xx_HAL_Driver/Src/stm32f3xx_hal_tim.c ****             the HAL_TIM_PWM_MspDeInit could be implemented in the user file
1074:Drivers/STM32F3xx_HAL_Driver/Src/stm32f3xx_hal_tim.c ****    */
1075:Drivers/STM32F3xx_HAL_Driver/Src/stm32f3xx_hal_tim.c **** }
1076:Drivers/STM32F3xx_HAL_Driver/Src/stm32f3xx_hal_tim.c **** 
1077:Drivers/STM32F3xx_HAL_Driver/Src/stm32f3xx_hal_tim.c **** /**
1078:Drivers/STM32F3xx_HAL_Driver/Src/stm32f3xx_hal_tim.c ****   * @brief  Starts the PWM signal generation.
1079:Drivers/STM32F3xx_HAL_Driver/Src/stm32f3xx_hal_tim.c ****   * @param  htim TIM handle
1080:Drivers/STM32F3xx_HAL_Driver/Src/stm32f3xx_hal_tim.c ****   * @param  Channel TIM Channels to be enabled
1081:Drivers/STM32F3xx_HAL_Driver/Src/stm32f3xx_hal_tim.c ****   *          This parameter can be one of the following values:
1082:Drivers/STM32F3xx_HAL_Driver/Src/stm32f3xx_hal_tim.c ****   *            @arg TIM_CHANNEL_1: TIM Channel 1 selected
1083:Drivers/STM32F3xx_HAL_Driver/Src/stm32f3xx_hal_tim.c ****   *            @arg TIM_CHANNEL_2: TIM Channel 2 selected
1084:Drivers/STM32F3xx_HAL_Driver/Src/stm32f3xx_hal_tim.c ****   *            @arg TIM_CHANNEL_3: TIM Channel 3 selected
1085:Drivers/STM32F3xx_HAL_Driver/Src/stm32f3xx_hal_tim.c ****   *            @arg TIM_CHANNEL_4: TIM Channel 4 selected
1086:Drivers/STM32F3xx_HAL_Driver/Src/stm32f3xx_hal_tim.c ****   * @retval HAL status
1087:Drivers/STM32F3xx_HAL_Driver/Src/stm32f3xx_hal_tim.c **** */
1088:Drivers/STM32F3xx_HAL_Driver/Src/stm32f3xx_hal_tim.c **** HAL_StatusTypeDef HAL_TIM_PWM_Start(TIM_HandleTypeDef *htim, uint32_t Channel)
1089:Drivers/STM32F3xx_HAL_Driver/Src/stm32f3xx_hal_tim.c **** {
1090:Drivers/STM32F3xx_HAL_Driver/Src/stm32f3xx_hal_tim.c ****   /* Check the parameters */
1091:Drivers/STM32F3xx_HAL_Driver/Src/stm32f3xx_hal_tim.c ****   assert_param(IS_TIM_CCX_INSTANCE(htim->Instance, Channel));
1092:Drivers/STM32F3xx_HAL_Driver/Src/stm32f3xx_hal_tim.c ****   
1093:Drivers/STM32F3xx_HAL_Driver/Src/stm32f3xx_hal_tim.c ****   /* Enable the Capture compare channel */
1094:Drivers/STM32F3xx_HAL_Driver/Src/stm32f3xx_hal_tim.c ****   TIM_CCxChannelCmd(htim->Instance, Channel, TIM_CCx_ENABLE);
1095:Drivers/STM32F3xx_HAL_Driver/Src/stm32f3xx_hal_tim.c ****   
1096:Drivers/STM32F3xx_HAL_Driver/Src/stm32f3xx_hal_tim.c ****   if(IS_TIM_BREAK_INSTANCE(htim->Instance) != RESET)  
1097:Drivers/STM32F3xx_HAL_Driver/Src/stm32f3xx_hal_tim.c ****   {
ARM GAS  /tmp/ccuQngBj.s 			page 22


1098:Drivers/STM32F3xx_HAL_Driver/Src/stm32f3xx_hal_tim.c ****     /* Enable the main output */
1099:Drivers/STM32F3xx_HAL_Driver/Src/stm32f3xx_hal_tim.c ****     __HAL_TIM_MOE_ENABLE(htim);
1100:Drivers/STM32F3xx_HAL_Driver/Src/stm32f3xx_hal_tim.c ****   }
1101:Drivers/STM32F3xx_HAL_Driver/Src/stm32f3xx_hal_tim.c ****     
1102:Drivers/STM32F3xx_HAL_Driver/Src/stm32f3xx_hal_tim.c ****   /* Enable the Peripheral */
1103:Drivers/STM32F3xx_HAL_Driver/Src/stm32f3xx_hal_tim.c ****   __HAL_TIM_ENABLE(htim);
1104:Drivers/STM32F3xx_HAL_Driver/Src/stm32f3xx_hal_tim.c ****   
1105:Drivers/STM32F3xx_HAL_Driver/Src/stm32f3xx_hal_tim.c ****   /* Return function status */
1106:Drivers/STM32F3xx_HAL_Driver/Src/stm32f3xx_hal_tim.c ****   return HAL_OK;
1107:Drivers/STM32F3xx_HAL_Driver/Src/stm32f3xx_hal_tim.c **** } 
1108:Drivers/STM32F3xx_HAL_Driver/Src/stm32f3xx_hal_tim.c **** 
1109:Drivers/STM32F3xx_HAL_Driver/Src/stm32f3xx_hal_tim.c **** /**
1110:Drivers/STM32F3xx_HAL_Driver/Src/stm32f3xx_hal_tim.c ****   * @brief  Stops the PWM signal generation.
1111:Drivers/STM32F3xx_HAL_Driver/Src/stm32f3xx_hal_tim.c ****   * @param  htim TIM handle
1112:Drivers/STM32F3xx_HAL_Driver/Src/stm32f3xx_hal_tim.c ****   * @param  Channel TIM Channels to be disabled
1113:Drivers/STM32F3xx_HAL_Driver/Src/stm32f3xx_hal_tim.c ****   *          This parameter can be one of the following values:
1114:Drivers/STM32F3xx_HAL_Driver/Src/stm32f3xx_hal_tim.c ****   *            @arg TIM_CHANNEL_1: TIM Channel 1 selected
1115:Drivers/STM32F3xx_HAL_Driver/Src/stm32f3xx_hal_tim.c ****   *            @arg TIM_CHANNEL_2: TIM Channel 2 selected
1116:Drivers/STM32F3xx_HAL_Driver/Src/stm32f3xx_hal_tim.c ****   *            @arg TIM_CHANNEL_3: TIM Channel 3 selected
1117:Drivers/STM32F3xx_HAL_Driver/Src/stm32f3xx_hal_tim.c ****   *            @arg TIM_CHANNEL_4: TIM Channel 4 selected
1118:Drivers/STM32F3xx_HAL_Driver/Src/stm32f3xx_hal_tim.c ****   * @retval HAL status
1119:Drivers/STM32F3xx_HAL_Driver/Src/stm32f3xx_hal_tim.c **** */
1120:Drivers/STM32F3xx_HAL_Driver/Src/stm32f3xx_hal_tim.c **** HAL_StatusTypeDef HAL_TIM_PWM_Stop(TIM_HandleTypeDef *htim, uint32_t Channel)
1121:Drivers/STM32F3xx_HAL_Driver/Src/stm32f3xx_hal_tim.c **** {   
1122:Drivers/STM32F3xx_HAL_Driver/Src/stm32f3xx_hal_tim.c ****   /* Check the parameters */
1123:Drivers/STM32F3xx_HAL_Driver/Src/stm32f3xx_hal_tim.c ****   assert_param(IS_TIM_CCX_INSTANCE(htim->Instance, Channel));
1124:Drivers/STM32F3xx_HAL_Driver/Src/stm32f3xx_hal_tim.c ****     
1125:Drivers/STM32F3xx_HAL_Driver/Src/stm32f3xx_hal_tim.c ****   /* Disable the Capture compare channel */
1126:Drivers/STM32F3xx_HAL_Driver/Src/stm32f3xx_hal_tim.c ****   TIM_CCxChannelCmd(htim->Instance, Channel, TIM_CCx_DISABLE);
1127:Drivers/STM32F3xx_HAL_Driver/Src/stm32f3xx_hal_tim.c ****   
1128:Drivers/STM32F3xx_HAL_Driver/Src/stm32f3xx_hal_tim.c ****   if(IS_TIM_BREAK_INSTANCE(htim->Instance) != RESET)  
1129:Drivers/STM32F3xx_HAL_Driver/Src/stm32f3xx_hal_tim.c ****   {
1130:Drivers/STM32F3xx_HAL_Driver/Src/stm32f3xx_hal_tim.c ****     /* Disable the Main Ouput */
1131:Drivers/STM32F3xx_HAL_Driver/Src/stm32f3xx_hal_tim.c ****     __HAL_TIM_MOE_DISABLE(htim);
1132:Drivers/STM32F3xx_HAL_Driver/Src/stm32f3xx_hal_tim.c ****   }
1133:Drivers/STM32F3xx_HAL_Driver/Src/stm32f3xx_hal_tim.c ****   
1134:Drivers/STM32F3xx_HAL_Driver/Src/stm32f3xx_hal_tim.c ****   /* Disable the Peripheral */
1135:Drivers/STM32F3xx_HAL_Driver/Src/stm32f3xx_hal_tim.c ****   __HAL_TIM_DISABLE(htim);
1136:Drivers/STM32F3xx_HAL_Driver/Src/stm32f3xx_hal_tim.c ****   
1137:Drivers/STM32F3xx_HAL_Driver/Src/stm32f3xx_hal_tim.c ****   /* Change the htim state */
1138:Drivers/STM32F3xx_HAL_Driver/Src/stm32f3xx_hal_tim.c ****   htim->State = HAL_TIM_STATE_READY;
1139:Drivers/STM32F3xx_HAL_Driver/Src/stm32f3xx_hal_tim.c ****   
1140:Drivers/STM32F3xx_HAL_Driver/Src/stm32f3xx_hal_tim.c ****   /* Return function status */
1141:Drivers/STM32F3xx_HAL_Driver/Src/stm32f3xx_hal_tim.c ****   return HAL_OK;
1142:Drivers/STM32F3xx_HAL_Driver/Src/stm32f3xx_hal_tim.c **** } 
1143:Drivers/STM32F3xx_HAL_Driver/Src/stm32f3xx_hal_tim.c **** 
1144:Drivers/STM32F3xx_HAL_Driver/Src/stm32f3xx_hal_tim.c **** /**
1145:Drivers/STM32F3xx_HAL_Driver/Src/stm32f3xx_hal_tim.c ****   * @brief  Starts the PWM signal generation in interrupt mode.
1146:Drivers/STM32F3xx_HAL_Driver/Src/stm32f3xx_hal_tim.c ****   * @param  htim TIM handle
1147:Drivers/STM32F3xx_HAL_Driver/Src/stm32f3xx_hal_tim.c ****   * @param  Channel TIM Channels to be enabled
1148:Drivers/STM32F3xx_HAL_Driver/Src/stm32f3xx_hal_tim.c ****   *          This parameter can be one of the following values:
1149:Drivers/STM32F3xx_HAL_Driver/Src/stm32f3xx_hal_tim.c ****   *            @arg TIM_CHANNEL_1: TIM Channel 1 selected
1150:Drivers/STM32F3xx_HAL_Driver/Src/stm32f3xx_hal_tim.c ****   *            @arg TIM_CHANNEL_2: TIM Channel 2 selected
1151:Drivers/STM32F3xx_HAL_Driver/Src/stm32f3xx_hal_tim.c ****   *            @arg TIM_CHANNEL_3: TIM Channel 3 selected
1152:Drivers/STM32F3xx_HAL_Driver/Src/stm32f3xx_hal_tim.c ****   *            @arg TIM_CHANNEL_4: TIM Channel 4 selected
1153:Drivers/STM32F3xx_HAL_Driver/Src/stm32f3xx_hal_tim.c ****   * @retval HAL status
1154:Drivers/STM32F3xx_HAL_Driver/Src/stm32f3xx_hal_tim.c **** */
ARM GAS  /tmp/ccuQngBj.s 			page 23


1155:Drivers/STM32F3xx_HAL_Driver/Src/stm32f3xx_hal_tim.c **** HAL_StatusTypeDef HAL_TIM_PWM_Start_IT(TIM_HandleTypeDef *htim, uint32_t Channel)
1156:Drivers/STM32F3xx_HAL_Driver/Src/stm32f3xx_hal_tim.c **** {
1157:Drivers/STM32F3xx_HAL_Driver/Src/stm32f3xx_hal_tim.c ****   /* Check the parameters */
1158:Drivers/STM32F3xx_HAL_Driver/Src/stm32f3xx_hal_tim.c ****   assert_param(IS_TIM_CCX_INSTANCE(htim->Instance, Channel));
1159:Drivers/STM32F3xx_HAL_Driver/Src/stm32f3xx_hal_tim.c ****   
1160:Drivers/STM32F3xx_HAL_Driver/Src/stm32f3xx_hal_tim.c ****   switch (Channel)
1161:Drivers/STM32F3xx_HAL_Driver/Src/stm32f3xx_hal_tim.c ****   {
1162:Drivers/STM32F3xx_HAL_Driver/Src/stm32f3xx_hal_tim.c ****     case TIM_CHANNEL_1:
1163:Drivers/STM32F3xx_HAL_Driver/Src/stm32f3xx_hal_tim.c ****     {       
1164:Drivers/STM32F3xx_HAL_Driver/Src/stm32f3xx_hal_tim.c ****       /* Enable the TIM Capture/Compare 1 interrupt */
1165:Drivers/STM32F3xx_HAL_Driver/Src/stm32f3xx_hal_tim.c ****       __HAL_TIM_ENABLE_IT(htim, TIM_IT_CC1);
1166:Drivers/STM32F3xx_HAL_Driver/Src/stm32f3xx_hal_tim.c ****     }
1167:Drivers/STM32F3xx_HAL_Driver/Src/stm32f3xx_hal_tim.c ****     break;
1168:Drivers/STM32F3xx_HAL_Driver/Src/stm32f3xx_hal_tim.c ****     
1169:Drivers/STM32F3xx_HAL_Driver/Src/stm32f3xx_hal_tim.c ****     case TIM_CHANNEL_2:
1170:Drivers/STM32F3xx_HAL_Driver/Src/stm32f3xx_hal_tim.c ****     {
1171:Drivers/STM32F3xx_HAL_Driver/Src/stm32f3xx_hal_tim.c ****       /* Enable the TIM Capture/Compare 2 interrupt */
1172:Drivers/STM32F3xx_HAL_Driver/Src/stm32f3xx_hal_tim.c ****       __HAL_TIM_ENABLE_IT(htim, TIM_IT_CC2);
1173:Drivers/STM32F3xx_HAL_Driver/Src/stm32f3xx_hal_tim.c ****     }
1174:Drivers/STM32F3xx_HAL_Driver/Src/stm32f3xx_hal_tim.c ****     break;
1175:Drivers/STM32F3xx_HAL_Driver/Src/stm32f3xx_hal_tim.c ****     
1176:Drivers/STM32F3xx_HAL_Driver/Src/stm32f3xx_hal_tim.c ****     case TIM_CHANNEL_3:
1177:Drivers/STM32F3xx_HAL_Driver/Src/stm32f3xx_hal_tim.c ****     {
1178:Drivers/STM32F3xx_HAL_Driver/Src/stm32f3xx_hal_tim.c ****       /* Enable the TIM Capture/Compare 3 interrupt */
1179:Drivers/STM32F3xx_HAL_Driver/Src/stm32f3xx_hal_tim.c ****       __HAL_TIM_ENABLE_IT(htim, TIM_IT_CC3);
1180:Drivers/STM32F3xx_HAL_Driver/Src/stm32f3xx_hal_tim.c ****     }
1181:Drivers/STM32F3xx_HAL_Driver/Src/stm32f3xx_hal_tim.c ****     break;
1182:Drivers/STM32F3xx_HAL_Driver/Src/stm32f3xx_hal_tim.c ****     
1183:Drivers/STM32F3xx_HAL_Driver/Src/stm32f3xx_hal_tim.c ****     case TIM_CHANNEL_4:
1184:Drivers/STM32F3xx_HAL_Driver/Src/stm32f3xx_hal_tim.c ****     {
1185:Drivers/STM32F3xx_HAL_Driver/Src/stm32f3xx_hal_tim.c ****       /* Enable the TIM Capture/Compare 4 interrupt */
1186:Drivers/STM32F3xx_HAL_Driver/Src/stm32f3xx_hal_tim.c ****       __HAL_TIM_ENABLE_IT(htim, TIM_IT_CC4);
1187:Drivers/STM32F3xx_HAL_Driver/Src/stm32f3xx_hal_tim.c ****     }
1188:Drivers/STM32F3xx_HAL_Driver/Src/stm32f3xx_hal_tim.c ****     break;
1189:Drivers/STM32F3xx_HAL_Driver/Src/stm32f3xx_hal_tim.c ****     
1190:Drivers/STM32F3xx_HAL_Driver/Src/stm32f3xx_hal_tim.c ****     default:
1191:Drivers/STM32F3xx_HAL_Driver/Src/stm32f3xx_hal_tim.c ****     break;
1192:Drivers/STM32F3xx_HAL_Driver/Src/stm32f3xx_hal_tim.c ****   } 
1193:Drivers/STM32F3xx_HAL_Driver/Src/stm32f3xx_hal_tim.c ****   
1194:Drivers/STM32F3xx_HAL_Driver/Src/stm32f3xx_hal_tim.c ****   /* Enable the Capture compare channel */
1195:Drivers/STM32F3xx_HAL_Driver/Src/stm32f3xx_hal_tim.c ****   TIM_CCxChannelCmd(htim->Instance, Channel, TIM_CCx_ENABLE);
1196:Drivers/STM32F3xx_HAL_Driver/Src/stm32f3xx_hal_tim.c ****   
1197:Drivers/STM32F3xx_HAL_Driver/Src/stm32f3xx_hal_tim.c ****   if(IS_TIM_BREAK_INSTANCE(htim->Instance) != RESET)  
1198:Drivers/STM32F3xx_HAL_Driver/Src/stm32f3xx_hal_tim.c ****   {
1199:Drivers/STM32F3xx_HAL_Driver/Src/stm32f3xx_hal_tim.c ****     /* Enable the main output */
1200:Drivers/STM32F3xx_HAL_Driver/Src/stm32f3xx_hal_tim.c ****     __HAL_TIM_MOE_ENABLE(htim);
1201:Drivers/STM32F3xx_HAL_Driver/Src/stm32f3xx_hal_tim.c ****   }
1202:Drivers/STM32F3xx_HAL_Driver/Src/stm32f3xx_hal_tim.c **** 
1203:Drivers/STM32F3xx_HAL_Driver/Src/stm32f3xx_hal_tim.c ****   /* Enable the Peripheral */
1204:Drivers/STM32F3xx_HAL_Driver/Src/stm32f3xx_hal_tim.c ****   __HAL_TIM_ENABLE(htim);
1205:Drivers/STM32F3xx_HAL_Driver/Src/stm32f3xx_hal_tim.c ****   
1206:Drivers/STM32F3xx_HAL_Driver/Src/stm32f3xx_hal_tim.c ****   /* Return function status */
1207:Drivers/STM32F3xx_HAL_Driver/Src/stm32f3xx_hal_tim.c ****   return HAL_OK;
1208:Drivers/STM32F3xx_HAL_Driver/Src/stm32f3xx_hal_tim.c **** } 
1209:Drivers/STM32F3xx_HAL_Driver/Src/stm32f3xx_hal_tim.c **** 
1210:Drivers/STM32F3xx_HAL_Driver/Src/stm32f3xx_hal_tim.c **** /**
1211:Drivers/STM32F3xx_HAL_Driver/Src/stm32f3xx_hal_tim.c ****   * @brief  Stops the PWM signal generation in interrupt mode.
ARM GAS  /tmp/ccuQngBj.s 			page 24


1212:Drivers/STM32F3xx_HAL_Driver/Src/stm32f3xx_hal_tim.c ****   * @param  htim TIM handle
1213:Drivers/STM32F3xx_HAL_Driver/Src/stm32f3xx_hal_tim.c ****   * @param  Channel TIM Channels to be disabled
1214:Drivers/STM32F3xx_HAL_Driver/Src/stm32f3xx_hal_tim.c ****   *          This parameter can be one of the following values:
1215:Drivers/STM32F3xx_HAL_Driver/Src/stm32f3xx_hal_tim.c ****   *            @arg TIM_CHANNEL_1: TIM Channel 1 selected
1216:Drivers/STM32F3xx_HAL_Driver/Src/stm32f3xx_hal_tim.c ****   *            @arg TIM_CHANNEL_2: TIM Channel 2 selected
1217:Drivers/STM32F3xx_HAL_Driver/Src/stm32f3xx_hal_tim.c ****   *            @arg TIM_CHANNEL_3: TIM Channel 3 selected
1218:Drivers/STM32F3xx_HAL_Driver/Src/stm32f3xx_hal_tim.c ****   *            @arg TIM_CHANNEL_4: TIM Channel 4 selected
1219:Drivers/STM32F3xx_HAL_Driver/Src/stm32f3xx_hal_tim.c ****   * @retval HAL status
1220:Drivers/STM32F3xx_HAL_Driver/Src/stm32f3xx_hal_tim.c **** */
1221:Drivers/STM32F3xx_HAL_Driver/Src/stm32f3xx_hal_tim.c **** HAL_StatusTypeDef HAL_TIM_PWM_Stop_IT (TIM_HandleTypeDef *htim, uint32_t Channel)
1222:Drivers/STM32F3xx_HAL_Driver/Src/stm32f3xx_hal_tim.c **** {
1223:Drivers/STM32F3xx_HAL_Driver/Src/stm32f3xx_hal_tim.c ****   /* Check the parameters */
1224:Drivers/STM32F3xx_HAL_Driver/Src/stm32f3xx_hal_tim.c ****   assert_param(IS_TIM_CCX_INSTANCE(htim->Instance, Channel));
1225:Drivers/STM32F3xx_HAL_Driver/Src/stm32f3xx_hal_tim.c ****   
1226:Drivers/STM32F3xx_HAL_Driver/Src/stm32f3xx_hal_tim.c ****   switch (Channel)
1227:Drivers/STM32F3xx_HAL_Driver/Src/stm32f3xx_hal_tim.c ****   {
1228:Drivers/STM32F3xx_HAL_Driver/Src/stm32f3xx_hal_tim.c ****     case TIM_CHANNEL_1:
1229:Drivers/STM32F3xx_HAL_Driver/Src/stm32f3xx_hal_tim.c ****     {       
1230:Drivers/STM32F3xx_HAL_Driver/Src/stm32f3xx_hal_tim.c ****       /* Disable the TIM Capture/Compare 1 interrupt */
1231:Drivers/STM32F3xx_HAL_Driver/Src/stm32f3xx_hal_tim.c ****       __HAL_TIM_DISABLE_IT(htim, TIM_IT_CC1);
1232:Drivers/STM32F3xx_HAL_Driver/Src/stm32f3xx_hal_tim.c ****     }
1233:Drivers/STM32F3xx_HAL_Driver/Src/stm32f3xx_hal_tim.c ****     break;
1234:Drivers/STM32F3xx_HAL_Driver/Src/stm32f3xx_hal_tim.c ****     
1235:Drivers/STM32F3xx_HAL_Driver/Src/stm32f3xx_hal_tim.c ****     case TIM_CHANNEL_2:
1236:Drivers/STM32F3xx_HAL_Driver/Src/stm32f3xx_hal_tim.c ****     {
1237:Drivers/STM32F3xx_HAL_Driver/Src/stm32f3xx_hal_tim.c ****       /* Disable the TIM Capture/Compare 2 interrupt */
1238:Drivers/STM32F3xx_HAL_Driver/Src/stm32f3xx_hal_tim.c ****       __HAL_TIM_DISABLE_IT(htim, TIM_IT_CC2);
1239:Drivers/STM32F3xx_HAL_Driver/Src/stm32f3xx_hal_tim.c ****     }
1240:Drivers/STM32F3xx_HAL_Driver/Src/stm32f3xx_hal_tim.c ****     break;
1241:Drivers/STM32F3xx_HAL_Driver/Src/stm32f3xx_hal_tim.c ****     
1242:Drivers/STM32F3xx_HAL_Driver/Src/stm32f3xx_hal_tim.c ****     case TIM_CHANNEL_3:
1243:Drivers/STM32F3xx_HAL_Driver/Src/stm32f3xx_hal_tim.c ****     {
1244:Drivers/STM32F3xx_HAL_Driver/Src/stm32f3xx_hal_tim.c ****       /* Disable the TIM Capture/Compare 3 interrupt */
1245:Drivers/STM32F3xx_HAL_Driver/Src/stm32f3xx_hal_tim.c ****       __HAL_TIM_DISABLE_IT(htim, TIM_IT_CC3);
1246:Drivers/STM32F3xx_HAL_Driver/Src/stm32f3xx_hal_tim.c ****     }
1247:Drivers/STM32F3xx_HAL_Driver/Src/stm32f3xx_hal_tim.c ****     break;
1248:Drivers/STM32F3xx_HAL_Driver/Src/stm32f3xx_hal_tim.c ****     
1249:Drivers/STM32F3xx_HAL_Driver/Src/stm32f3xx_hal_tim.c ****     case TIM_CHANNEL_4:
1250:Drivers/STM32F3xx_HAL_Driver/Src/stm32f3xx_hal_tim.c ****     {
1251:Drivers/STM32F3xx_HAL_Driver/Src/stm32f3xx_hal_tim.c ****       /* Disable the TIM Capture/Compare 4 interrupt */
1252:Drivers/STM32F3xx_HAL_Driver/Src/stm32f3xx_hal_tim.c ****       __HAL_TIM_DISABLE_IT(htim, TIM_IT_CC4);
1253:Drivers/STM32F3xx_HAL_Driver/Src/stm32f3xx_hal_tim.c ****     }
1254:Drivers/STM32F3xx_HAL_Driver/Src/stm32f3xx_hal_tim.c ****     break;
1255:Drivers/STM32F3xx_HAL_Driver/Src/stm32f3xx_hal_tim.c ****     
1256:Drivers/STM32F3xx_HAL_Driver/Src/stm32f3xx_hal_tim.c ****     default:
1257:Drivers/STM32F3xx_HAL_Driver/Src/stm32f3xx_hal_tim.c ****     break; 
1258:Drivers/STM32F3xx_HAL_Driver/Src/stm32f3xx_hal_tim.c ****   }
1259:Drivers/STM32F3xx_HAL_Driver/Src/stm32f3xx_hal_tim.c ****   
1260:Drivers/STM32F3xx_HAL_Driver/Src/stm32f3xx_hal_tim.c ****   /* Disable the Capture compare channel */
1261:Drivers/STM32F3xx_HAL_Driver/Src/stm32f3xx_hal_tim.c ****   TIM_CCxChannelCmd(htim->Instance, Channel, TIM_CCx_DISABLE);
1262:Drivers/STM32F3xx_HAL_Driver/Src/stm32f3xx_hal_tim.c ****   
1263:Drivers/STM32F3xx_HAL_Driver/Src/stm32f3xx_hal_tim.c ****   if(IS_TIM_BREAK_INSTANCE(htim->Instance) != RESET)  
1264:Drivers/STM32F3xx_HAL_Driver/Src/stm32f3xx_hal_tim.c ****   {
1265:Drivers/STM32F3xx_HAL_Driver/Src/stm32f3xx_hal_tim.c ****     /* Disable the Main Ouput */
1266:Drivers/STM32F3xx_HAL_Driver/Src/stm32f3xx_hal_tim.c ****     __HAL_TIM_MOE_DISABLE(htim);
1267:Drivers/STM32F3xx_HAL_Driver/Src/stm32f3xx_hal_tim.c ****   }
1268:Drivers/STM32F3xx_HAL_Driver/Src/stm32f3xx_hal_tim.c ****   
ARM GAS  /tmp/ccuQngBj.s 			page 25


1269:Drivers/STM32F3xx_HAL_Driver/Src/stm32f3xx_hal_tim.c ****   /* Disable the Peripheral */
1270:Drivers/STM32F3xx_HAL_Driver/Src/stm32f3xx_hal_tim.c ****   __HAL_TIM_DISABLE(htim);
1271:Drivers/STM32F3xx_HAL_Driver/Src/stm32f3xx_hal_tim.c ****   
1272:Drivers/STM32F3xx_HAL_Driver/Src/stm32f3xx_hal_tim.c ****   /* Return function status */
1273:Drivers/STM32F3xx_HAL_Driver/Src/stm32f3xx_hal_tim.c ****   return HAL_OK;
1274:Drivers/STM32F3xx_HAL_Driver/Src/stm32f3xx_hal_tim.c **** } 
1275:Drivers/STM32F3xx_HAL_Driver/Src/stm32f3xx_hal_tim.c **** 
1276:Drivers/STM32F3xx_HAL_Driver/Src/stm32f3xx_hal_tim.c **** /**
1277:Drivers/STM32F3xx_HAL_Driver/Src/stm32f3xx_hal_tim.c ****   * @brief  Starts the TIM PWM signal generation in DMA mode.
1278:Drivers/STM32F3xx_HAL_Driver/Src/stm32f3xx_hal_tim.c ****   * @param  htim TIM handle
1279:Drivers/STM32F3xx_HAL_Driver/Src/stm32f3xx_hal_tim.c ****   * @param  Channel TIM Channels to be enabled
1280:Drivers/STM32F3xx_HAL_Driver/Src/stm32f3xx_hal_tim.c ****   *          This parameter can be one of the following values:
1281:Drivers/STM32F3xx_HAL_Driver/Src/stm32f3xx_hal_tim.c ****   *            @arg TIM_CHANNEL_1: TIM Channel 1 selected
1282:Drivers/STM32F3xx_HAL_Driver/Src/stm32f3xx_hal_tim.c ****   *            @arg TIM_CHANNEL_2: TIM Channel 2 selected
1283:Drivers/STM32F3xx_HAL_Driver/Src/stm32f3xx_hal_tim.c ****   *            @arg TIM_CHANNEL_3: TIM Channel 3 selected
1284:Drivers/STM32F3xx_HAL_Driver/Src/stm32f3xx_hal_tim.c ****   *            @arg TIM_CHANNEL_4: TIM Channel 4 selected
1285:Drivers/STM32F3xx_HAL_Driver/Src/stm32f3xx_hal_tim.c ****   * @param  pData The source Buffer address.
1286:Drivers/STM32F3xx_HAL_Driver/Src/stm32f3xx_hal_tim.c ****   * @param  Length The length of data to be transferred from memory to TIM peripheral
1287:Drivers/STM32F3xx_HAL_Driver/Src/stm32f3xx_hal_tim.c ****   * @retval HAL status
1288:Drivers/STM32F3xx_HAL_Driver/Src/stm32f3xx_hal_tim.c **** */
1289:Drivers/STM32F3xx_HAL_Driver/Src/stm32f3xx_hal_tim.c **** HAL_StatusTypeDef HAL_TIM_PWM_Start_DMA(TIM_HandleTypeDef *htim, uint32_t Channel, uint32_t *pData,
1290:Drivers/STM32F3xx_HAL_Driver/Src/stm32f3xx_hal_tim.c **** {
1291:Drivers/STM32F3xx_HAL_Driver/Src/stm32f3xx_hal_tim.c ****   /* Check the parameters */
1292:Drivers/STM32F3xx_HAL_Driver/Src/stm32f3xx_hal_tim.c ****   assert_param(IS_TIM_CCX_INSTANCE(htim->Instance, Channel));
1293:Drivers/STM32F3xx_HAL_Driver/Src/stm32f3xx_hal_tim.c ****   
1294:Drivers/STM32F3xx_HAL_Driver/Src/stm32f3xx_hal_tim.c ****   if((htim->State == HAL_TIM_STATE_BUSY))
1295:Drivers/STM32F3xx_HAL_Driver/Src/stm32f3xx_hal_tim.c ****   {
1296:Drivers/STM32F3xx_HAL_Driver/Src/stm32f3xx_hal_tim.c ****      return HAL_BUSY;
1297:Drivers/STM32F3xx_HAL_Driver/Src/stm32f3xx_hal_tim.c ****   }
1298:Drivers/STM32F3xx_HAL_Driver/Src/stm32f3xx_hal_tim.c ****   else if((htim->State == HAL_TIM_STATE_READY))
1299:Drivers/STM32F3xx_HAL_Driver/Src/stm32f3xx_hal_tim.c ****   {
1300:Drivers/STM32F3xx_HAL_Driver/Src/stm32f3xx_hal_tim.c ****     if(((uint32_t)pData == 0U ) && (Length > 0U)) 
1301:Drivers/STM32F3xx_HAL_Driver/Src/stm32f3xx_hal_tim.c ****     {
1302:Drivers/STM32F3xx_HAL_Driver/Src/stm32f3xx_hal_tim.c ****       return HAL_ERROR;                                    
1303:Drivers/STM32F3xx_HAL_Driver/Src/stm32f3xx_hal_tim.c ****     }
1304:Drivers/STM32F3xx_HAL_Driver/Src/stm32f3xx_hal_tim.c ****     else
1305:Drivers/STM32F3xx_HAL_Driver/Src/stm32f3xx_hal_tim.c ****     {
1306:Drivers/STM32F3xx_HAL_Driver/Src/stm32f3xx_hal_tim.c ****       htim->State = HAL_TIM_STATE_BUSY;
1307:Drivers/STM32F3xx_HAL_Driver/Src/stm32f3xx_hal_tim.c ****     }
1308:Drivers/STM32F3xx_HAL_Driver/Src/stm32f3xx_hal_tim.c ****   }    
1309:Drivers/STM32F3xx_HAL_Driver/Src/stm32f3xx_hal_tim.c ****   switch (Channel)
1310:Drivers/STM32F3xx_HAL_Driver/Src/stm32f3xx_hal_tim.c ****   {
1311:Drivers/STM32F3xx_HAL_Driver/Src/stm32f3xx_hal_tim.c ****     case TIM_CHANNEL_1:
1312:Drivers/STM32F3xx_HAL_Driver/Src/stm32f3xx_hal_tim.c ****     {
1313:Drivers/STM32F3xx_HAL_Driver/Src/stm32f3xx_hal_tim.c ****       /* Set the DMA Period elapsed callback */
1314:Drivers/STM32F3xx_HAL_Driver/Src/stm32f3xx_hal_tim.c ****       htim->hdma[TIM_DMA_ID_CC1]->XferCpltCallback = TIM_DMADelayPulseCplt;
1315:Drivers/STM32F3xx_HAL_Driver/Src/stm32f3xx_hal_tim.c ****      
1316:Drivers/STM32F3xx_HAL_Driver/Src/stm32f3xx_hal_tim.c ****       /* Set the DMA error callback */
1317:Drivers/STM32F3xx_HAL_Driver/Src/stm32f3xx_hal_tim.c ****       htim->hdma[TIM_DMA_ID_CC1]->XferErrorCallback = TIM_DMAError ;
1318:Drivers/STM32F3xx_HAL_Driver/Src/stm32f3xx_hal_tim.c ****       
1319:Drivers/STM32F3xx_HAL_Driver/Src/stm32f3xx_hal_tim.c ****       /* Enable the DMA channel */
1320:Drivers/STM32F3xx_HAL_Driver/Src/stm32f3xx_hal_tim.c ****       HAL_DMA_Start_IT(htim->hdma[TIM_DMA_ID_CC1], (uint32_t)pData, (uint32_t)&htim->Instance->CCR1
1321:Drivers/STM32F3xx_HAL_Driver/Src/stm32f3xx_hal_tim.c ****       
1322:Drivers/STM32F3xx_HAL_Driver/Src/stm32f3xx_hal_tim.c ****       /* Enable the TIM Capture/Compare 1 DMA request */
1323:Drivers/STM32F3xx_HAL_Driver/Src/stm32f3xx_hal_tim.c ****       __HAL_TIM_ENABLE_DMA(htim, TIM_DMA_CC1);
1324:Drivers/STM32F3xx_HAL_Driver/Src/stm32f3xx_hal_tim.c ****     }
1325:Drivers/STM32F3xx_HAL_Driver/Src/stm32f3xx_hal_tim.c ****     break;
ARM GAS  /tmp/ccuQngBj.s 			page 26


1326:Drivers/STM32F3xx_HAL_Driver/Src/stm32f3xx_hal_tim.c ****     
1327:Drivers/STM32F3xx_HAL_Driver/Src/stm32f3xx_hal_tim.c ****     case TIM_CHANNEL_2:
1328:Drivers/STM32F3xx_HAL_Driver/Src/stm32f3xx_hal_tim.c ****     {
1329:Drivers/STM32F3xx_HAL_Driver/Src/stm32f3xx_hal_tim.c ****       /* Set the DMA Period elapsed callback */
1330:Drivers/STM32F3xx_HAL_Driver/Src/stm32f3xx_hal_tim.c ****       htim->hdma[TIM_DMA_ID_CC2]->XferCpltCallback = TIM_DMADelayPulseCplt;
1331:Drivers/STM32F3xx_HAL_Driver/Src/stm32f3xx_hal_tim.c ****      
1332:Drivers/STM32F3xx_HAL_Driver/Src/stm32f3xx_hal_tim.c ****       /* Set the DMA error callback */
1333:Drivers/STM32F3xx_HAL_Driver/Src/stm32f3xx_hal_tim.c ****       htim->hdma[TIM_DMA_ID_CC2]->XferErrorCallback = TIM_DMAError ;
1334:Drivers/STM32F3xx_HAL_Driver/Src/stm32f3xx_hal_tim.c ****       
1335:Drivers/STM32F3xx_HAL_Driver/Src/stm32f3xx_hal_tim.c ****       /* Enable the DMA channel */
1336:Drivers/STM32F3xx_HAL_Driver/Src/stm32f3xx_hal_tim.c ****       HAL_DMA_Start_IT(htim->hdma[TIM_DMA_ID_CC2], (uint32_t)pData, (uint32_t)&htim->Instance->CCR2
1337:Drivers/STM32F3xx_HAL_Driver/Src/stm32f3xx_hal_tim.c ****       
1338:Drivers/STM32F3xx_HAL_Driver/Src/stm32f3xx_hal_tim.c ****       /* Enable the TIM Capture/Compare 2 DMA request */
1339:Drivers/STM32F3xx_HAL_Driver/Src/stm32f3xx_hal_tim.c ****       __HAL_TIM_ENABLE_DMA(htim, TIM_DMA_CC2);
1340:Drivers/STM32F3xx_HAL_Driver/Src/stm32f3xx_hal_tim.c ****     }
1341:Drivers/STM32F3xx_HAL_Driver/Src/stm32f3xx_hal_tim.c ****     break;
1342:Drivers/STM32F3xx_HAL_Driver/Src/stm32f3xx_hal_tim.c ****     
1343:Drivers/STM32F3xx_HAL_Driver/Src/stm32f3xx_hal_tim.c ****     case TIM_CHANNEL_3:
1344:Drivers/STM32F3xx_HAL_Driver/Src/stm32f3xx_hal_tim.c ****     {
1345:Drivers/STM32F3xx_HAL_Driver/Src/stm32f3xx_hal_tim.c ****       /* Set the DMA Period elapsed callback */
1346:Drivers/STM32F3xx_HAL_Driver/Src/stm32f3xx_hal_tim.c ****       htim->hdma[TIM_DMA_ID_CC3]->XferCpltCallback = TIM_DMADelayPulseCplt;
1347:Drivers/STM32F3xx_HAL_Driver/Src/stm32f3xx_hal_tim.c ****      
1348:Drivers/STM32F3xx_HAL_Driver/Src/stm32f3xx_hal_tim.c ****       /* Set the DMA error callback */
1349:Drivers/STM32F3xx_HAL_Driver/Src/stm32f3xx_hal_tim.c ****       htim->hdma[TIM_DMA_ID_CC3]->XferErrorCallback = TIM_DMAError ;
1350:Drivers/STM32F3xx_HAL_Driver/Src/stm32f3xx_hal_tim.c ****       
1351:Drivers/STM32F3xx_HAL_Driver/Src/stm32f3xx_hal_tim.c ****       /* Enable the DMA channel */
1352:Drivers/STM32F3xx_HAL_Driver/Src/stm32f3xx_hal_tim.c ****       HAL_DMA_Start_IT(htim->hdma[TIM_DMA_ID_CC3], (uint32_t)pData, (uint32_t)&htim->Instance->CCR3
1353:Drivers/STM32F3xx_HAL_Driver/Src/stm32f3xx_hal_tim.c ****       
1354:Drivers/STM32F3xx_HAL_Driver/Src/stm32f3xx_hal_tim.c ****       /* Enable the TIM Output Capture/Compare 3 request */
1355:Drivers/STM32F3xx_HAL_Driver/Src/stm32f3xx_hal_tim.c ****       __HAL_TIM_ENABLE_DMA(htim, TIM_DMA_CC3);
1356:Drivers/STM32F3xx_HAL_Driver/Src/stm32f3xx_hal_tim.c ****     }
1357:Drivers/STM32F3xx_HAL_Driver/Src/stm32f3xx_hal_tim.c ****     break;
1358:Drivers/STM32F3xx_HAL_Driver/Src/stm32f3xx_hal_tim.c ****     
1359:Drivers/STM32F3xx_HAL_Driver/Src/stm32f3xx_hal_tim.c ****     case TIM_CHANNEL_4:
1360:Drivers/STM32F3xx_HAL_Driver/Src/stm32f3xx_hal_tim.c ****     {
1361:Drivers/STM32F3xx_HAL_Driver/Src/stm32f3xx_hal_tim.c ****      /* Set the DMA Period elapsed callback */
1362:Drivers/STM32F3xx_HAL_Driver/Src/stm32f3xx_hal_tim.c ****       htim->hdma[TIM_DMA_ID_CC4]->XferCpltCallback = TIM_DMADelayPulseCplt;
1363:Drivers/STM32F3xx_HAL_Driver/Src/stm32f3xx_hal_tim.c ****      
1364:Drivers/STM32F3xx_HAL_Driver/Src/stm32f3xx_hal_tim.c ****       /* Set the DMA error callback */
1365:Drivers/STM32F3xx_HAL_Driver/Src/stm32f3xx_hal_tim.c ****       htim->hdma[TIM_DMA_ID_CC4]->XferErrorCallback = TIM_DMAError ;
1366:Drivers/STM32F3xx_HAL_Driver/Src/stm32f3xx_hal_tim.c ****       
1367:Drivers/STM32F3xx_HAL_Driver/Src/stm32f3xx_hal_tim.c ****       /* Enable the DMA channel */
1368:Drivers/STM32F3xx_HAL_Driver/Src/stm32f3xx_hal_tim.c ****       HAL_DMA_Start_IT(htim->hdma[TIM_DMA_ID_CC4], (uint32_t)pData, (uint32_t)&htim->Instance->CCR4
1369:Drivers/STM32F3xx_HAL_Driver/Src/stm32f3xx_hal_tim.c ****       
1370:Drivers/STM32F3xx_HAL_Driver/Src/stm32f3xx_hal_tim.c ****       /* Enable the TIM Capture/Compare 4 DMA request */
1371:Drivers/STM32F3xx_HAL_Driver/Src/stm32f3xx_hal_tim.c ****       __HAL_TIM_ENABLE_DMA(htim, TIM_DMA_CC4);
1372:Drivers/STM32F3xx_HAL_Driver/Src/stm32f3xx_hal_tim.c ****     }
1373:Drivers/STM32F3xx_HAL_Driver/Src/stm32f3xx_hal_tim.c ****     break;
1374:Drivers/STM32F3xx_HAL_Driver/Src/stm32f3xx_hal_tim.c ****     
1375:Drivers/STM32F3xx_HAL_Driver/Src/stm32f3xx_hal_tim.c ****     default:
1376:Drivers/STM32F3xx_HAL_Driver/Src/stm32f3xx_hal_tim.c ****     break;
1377:Drivers/STM32F3xx_HAL_Driver/Src/stm32f3xx_hal_tim.c ****   }
1378:Drivers/STM32F3xx_HAL_Driver/Src/stm32f3xx_hal_tim.c **** 
1379:Drivers/STM32F3xx_HAL_Driver/Src/stm32f3xx_hal_tim.c ****   /* Enable the Capture compare channel */
1380:Drivers/STM32F3xx_HAL_Driver/Src/stm32f3xx_hal_tim.c ****   TIM_CCxChannelCmd(htim->Instance, Channel, TIM_CCx_ENABLE);
1381:Drivers/STM32F3xx_HAL_Driver/Src/stm32f3xx_hal_tim.c ****   
1382:Drivers/STM32F3xx_HAL_Driver/Src/stm32f3xx_hal_tim.c ****   if(IS_TIM_BREAK_INSTANCE(htim->Instance) != RESET)  
ARM GAS  /tmp/ccuQngBj.s 			page 27


1383:Drivers/STM32F3xx_HAL_Driver/Src/stm32f3xx_hal_tim.c ****   {
1384:Drivers/STM32F3xx_HAL_Driver/Src/stm32f3xx_hal_tim.c ****     /* Enable the main output */
1385:Drivers/STM32F3xx_HAL_Driver/Src/stm32f3xx_hal_tim.c ****     __HAL_TIM_MOE_ENABLE(htim);
1386:Drivers/STM32F3xx_HAL_Driver/Src/stm32f3xx_hal_tim.c ****   }
1387:Drivers/STM32F3xx_HAL_Driver/Src/stm32f3xx_hal_tim.c ****   
1388:Drivers/STM32F3xx_HAL_Driver/Src/stm32f3xx_hal_tim.c ****   /* Enable the Peripheral */
1389:Drivers/STM32F3xx_HAL_Driver/Src/stm32f3xx_hal_tim.c ****   __HAL_TIM_ENABLE(htim); 
1390:Drivers/STM32F3xx_HAL_Driver/Src/stm32f3xx_hal_tim.c ****   
1391:Drivers/STM32F3xx_HAL_Driver/Src/stm32f3xx_hal_tim.c ****   /* Return function status */
1392:Drivers/STM32F3xx_HAL_Driver/Src/stm32f3xx_hal_tim.c ****   return HAL_OK;
1393:Drivers/STM32F3xx_HAL_Driver/Src/stm32f3xx_hal_tim.c **** }
1394:Drivers/STM32F3xx_HAL_Driver/Src/stm32f3xx_hal_tim.c **** 
1395:Drivers/STM32F3xx_HAL_Driver/Src/stm32f3xx_hal_tim.c **** /**
1396:Drivers/STM32F3xx_HAL_Driver/Src/stm32f3xx_hal_tim.c ****   * @brief  Stops the TIM PWM signal generation in DMA mode.
1397:Drivers/STM32F3xx_HAL_Driver/Src/stm32f3xx_hal_tim.c ****   * @param  htim TIM handle
1398:Drivers/STM32F3xx_HAL_Driver/Src/stm32f3xx_hal_tim.c ****   * @param  Channel TIM Channels to be disabled
1399:Drivers/STM32F3xx_HAL_Driver/Src/stm32f3xx_hal_tim.c ****   *          This parameter can be one of the following values:
1400:Drivers/STM32F3xx_HAL_Driver/Src/stm32f3xx_hal_tim.c ****   *            @arg TIM_CHANNEL_1: TIM Channel 1 selected
1401:Drivers/STM32F3xx_HAL_Driver/Src/stm32f3xx_hal_tim.c ****   *            @arg TIM_CHANNEL_2: TIM Channel 2 selected
1402:Drivers/STM32F3xx_HAL_Driver/Src/stm32f3xx_hal_tim.c ****   *            @arg TIM_CHANNEL_3: TIM Channel 3 selected
1403:Drivers/STM32F3xx_HAL_Driver/Src/stm32f3xx_hal_tim.c ****   *            @arg TIM_CHANNEL_4: TIM Channel 4 selected
1404:Drivers/STM32F3xx_HAL_Driver/Src/stm32f3xx_hal_tim.c ****   * @retval HAL status
1405:Drivers/STM32F3xx_HAL_Driver/Src/stm32f3xx_hal_tim.c **** */
1406:Drivers/STM32F3xx_HAL_Driver/Src/stm32f3xx_hal_tim.c **** HAL_StatusTypeDef HAL_TIM_PWM_Stop_DMA(TIM_HandleTypeDef *htim, uint32_t Channel)
1407:Drivers/STM32F3xx_HAL_Driver/Src/stm32f3xx_hal_tim.c **** {
1408:Drivers/STM32F3xx_HAL_Driver/Src/stm32f3xx_hal_tim.c ****   /* Check the parameters */
1409:Drivers/STM32F3xx_HAL_Driver/Src/stm32f3xx_hal_tim.c ****   assert_param(IS_TIM_CCX_INSTANCE(htim->Instance, Channel));
1410:Drivers/STM32F3xx_HAL_Driver/Src/stm32f3xx_hal_tim.c ****   
1411:Drivers/STM32F3xx_HAL_Driver/Src/stm32f3xx_hal_tim.c ****   switch (Channel)
1412:Drivers/STM32F3xx_HAL_Driver/Src/stm32f3xx_hal_tim.c ****   {
1413:Drivers/STM32F3xx_HAL_Driver/Src/stm32f3xx_hal_tim.c ****     case TIM_CHANNEL_1:
1414:Drivers/STM32F3xx_HAL_Driver/Src/stm32f3xx_hal_tim.c ****     {       
1415:Drivers/STM32F3xx_HAL_Driver/Src/stm32f3xx_hal_tim.c ****       /* Disable the TIM Capture/Compare 1 DMA request */
1416:Drivers/STM32F3xx_HAL_Driver/Src/stm32f3xx_hal_tim.c ****       __HAL_TIM_DISABLE_DMA(htim, TIM_DMA_CC1);
1417:Drivers/STM32F3xx_HAL_Driver/Src/stm32f3xx_hal_tim.c ****     }
1418:Drivers/STM32F3xx_HAL_Driver/Src/stm32f3xx_hal_tim.c ****     break;
1419:Drivers/STM32F3xx_HAL_Driver/Src/stm32f3xx_hal_tim.c ****     
1420:Drivers/STM32F3xx_HAL_Driver/Src/stm32f3xx_hal_tim.c ****     case TIM_CHANNEL_2:
1421:Drivers/STM32F3xx_HAL_Driver/Src/stm32f3xx_hal_tim.c ****     {
1422:Drivers/STM32F3xx_HAL_Driver/Src/stm32f3xx_hal_tim.c ****       /* Disable the TIM Capture/Compare 2 DMA request */
1423:Drivers/STM32F3xx_HAL_Driver/Src/stm32f3xx_hal_tim.c ****       __HAL_TIM_DISABLE_DMA(htim, TIM_DMA_CC2);
1424:Drivers/STM32F3xx_HAL_Driver/Src/stm32f3xx_hal_tim.c ****     }
1425:Drivers/STM32F3xx_HAL_Driver/Src/stm32f3xx_hal_tim.c ****     break;
1426:Drivers/STM32F3xx_HAL_Driver/Src/stm32f3xx_hal_tim.c ****     
1427:Drivers/STM32F3xx_HAL_Driver/Src/stm32f3xx_hal_tim.c ****     case TIM_CHANNEL_3:
1428:Drivers/STM32F3xx_HAL_Driver/Src/stm32f3xx_hal_tim.c ****     {
1429:Drivers/STM32F3xx_HAL_Driver/Src/stm32f3xx_hal_tim.c ****       /* Disable the TIM Capture/Compare 3 DMA request */
1430:Drivers/STM32F3xx_HAL_Driver/Src/stm32f3xx_hal_tim.c ****       __HAL_TIM_DISABLE_DMA(htim, TIM_DMA_CC3);
1431:Drivers/STM32F3xx_HAL_Driver/Src/stm32f3xx_hal_tim.c ****     }
1432:Drivers/STM32F3xx_HAL_Driver/Src/stm32f3xx_hal_tim.c ****     break;
1433:Drivers/STM32F3xx_HAL_Driver/Src/stm32f3xx_hal_tim.c ****     
1434:Drivers/STM32F3xx_HAL_Driver/Src/stm32f3xx_hal_tim.c ****     case TIM_CHANNEL_4:
1435:Drivers/STM32F3xx_HAL_Driver/Src/stm32f3xx_hal_tim.c ****     {
1436:Drivers/STM32F3xx_HAL_Driver/Src/stm32f3xx_hal_tim.c ****       /* Disable the TIM Capture/Compare 4 interrupt */
1437:Drivers/STM32F3xx_HAL_Driver/Src/stm32f3xx_hal_tim.c ****       __HAL_TIM_DISABLE_DMA(htim, TIM_DMA_CC4);
1438:Drivers/STM32F3xx_HAL_Driver/Src/stm32f3xx_hal_tim.c ****     }
1439:Drivers/STM32F3xx_HAL_Driver/Src/stm32f3xx_hal_tim.c ****     break;
ARM GAS  /tmp/ccuQngBj.s 			page 28


1440:Drivers/STM32F3xx_HAL_Driver/Src/stm32f3xx_hal_tim.c ****     
1441:Drivers/STM32F3xx_HAL_Driver/Src/stm32f3xx_hal_tim.c ****     default:
1442:Drivers/STM32F3xx_HAL_Driver/Src/stm32f3xx_hal_tim.c ****     break;
1443:Drivers/STM32F3xx_HAL_Driver/Src/stm32f3xx_hal_tim.c ****   } 
1444:Drivers/STM32F3xx_HAL_Driver/Src/stm32f3xx_hal_tim.c ****   
1445:Drivers/STM32F3xx_HAL_Driver/Src/stm32f3xx_hal_tim.c ****   /* Disable the Capture compare channel */
1446:Drivers/STM32F3xx_HAL_Driver/Src/stm32f3xx_hal_tim.c ****   TIM_CCxChannelCmd(htim->Instance, Channel, TIM_CCx_DISABLE);
1447:Drivers/STM32F3xx_HAL_Driver/Src/stm32f3xx_hal_tim.c ****   
1448:Drivers/STM32F3xx_HAL_Driver/Src/stm32f3xx_hal_tim.c ****   if(IS_TIM_BREAK_INSTANCE(htim->Instance) != RESET)  
1449:Drivers/STM32F3xx_HAL_Driver/Src/stm32f3xx_hal_tim.c ****   {
1450:Drivers/STM32F3xx_HAL_Driver/Src/stm32f3xx_hal_tim.c ****     /* Disable the Main Ouput */
1451:Drivers/STM32F3xx_HAL_Driver/Src/stm32f3xx_hal_tim.c ****     __HAL_TIM_MOE_DISABLE(htim);
1452:Drivers/STM32F3xx_HAL_Driver/Src/stm32f3xx_hal_tim.c ****   }
1453:Drivers/STM32F3xx_HAL_Driver/Src/stm32f3xx_hal_tim.c ****   
1454:Drivers/STM32F3xx_HAL_Driver/Src/stm32f3xx_hal_tim.c ****   /* Disable the Peripheral */
1455:Drivers/STM32F3xx_HAL_Driver/Src/stm32f3xx_hal_tim.c ****   __HAL_TIM_DISABLE(htim);
1456:Drivers/STM32F3xx_HAL_Driver/Src/stm32f3xx_hal_tim.c ****   
1457:Drivers/STM32F3xx_HAL_Driver/Src/stm32f3xx_hal_tim.c ****   /* Change the htim state */
1458:Drivers/STM32F3xx_HAL_Driver/Src/stm32f3xx_hal_tim.c ****   htim->State = HAL_TIM_STATE_READY;
1459:Drivers/STM32F3xx_HAL_Driver/Src/stm32f3xx_hal_tim.c ****   
1460:Drivers/STM32F3xx_HAL_Driver/Src/stm32f3xx_hal_tim.c ****   /* Return function status */
1461:Drivers/STM32F3xx_HAL_Driver/Src/stm32f3xx_hal_tim.c ****   return HAL_OK;
1462:Drivers/STM32F3xx_HAL_Driver/Src/stm32f3xx_hal_tim.c **** }
1463:Drivers/STM32F3xx_HAL_Driver/Src/stm32f3xx_hal_tim.c **** 
1464:Drivers/STM32F3xx_HAL_Driver/Src/stm32f3xx_hal_tim.c **** /**
1465:Drivers/STM32F3xx_HAL_Driver/Src/stm32f3xx_hal_tim.c ****   * @}
1466:Drivers/STM32F3xx_HAL_Driver/Src/stm32f3xx_hal_tim.c ****   */
1467:Drivers/STM32F3xx_HAL_Driver/Src/stm32f3xx_hal_tim.c **** 
1468:Drivers/STM32F3xx_HAL_Driver/Src/stm32f3xx_hal_tim.c **** /** @defgroup TIM_Exported_Functions_Group4 Time Input Capture functions 
1469:Drivers/STM32F3xx_HAL_Driver/Src/stm32f3xx_hal_tim.c ****  *  @brief    Time Input Capture functions 
1470:Drivers/STM32F3xx_HAL_Driver/Src/stm32f3xx_hal_tim.c ****  *
1471:Drivers/STM32F3xx_HAL_Driver/Src/stm32f3xx_hal_tim.c **** @verbatim    
1472:Drivers/STM32F3xx_HAL_Driver/Src/stm32f3xx_hal_tim.c ****   ==============================================================================
1473:Drivers/STM32F3xx_HAL_Driver/Src/stm32f3xx_hal_tim.c ****               ##### Time Input Capture functions #####
1474:Drivers/STM32F3xx_HAL_Driver/Src/stm32f3xx_hal_tim.c ****   ==============================================================================
1475:Drivers/STM32F3xx_HAL_Driver/Src/stm32f3xx_hal_tim.c ****  [..]  
1476:Drivers/STM32F3xx_HAL_Driver/Src/stm32f3xx_hal_tim.c ****    This section provides functions allowing to:
1477:Drivers/STM32F3xx_HAL_Driver/Src/stm32f3xx_hal_tim.c ****    (+) Initialize and configure the TIM Input Capture. 
1478:Drivers/STM32F3xx_HAL_Driver/Src/stm32f3xx_hal_tim.c ****    (+) De-initialize the TIM Input Capture.
1479:Drivers/STM32F3xx_HAL_Driver/Src/stm32f3xx_hal_tim.c ****    (+) Start the Time Input Capture.
1480:Drivers/STM32F3xx_HAL_Driver/Src/stm32f3xx_hal_tim.c ****    (+) Stop the Time Input Capture.
1481:Drivers/STM32F3xx_HAL_Driver/Src/stm32f3xx_hal_tim.c ****    (+) Start the Time Input Capture and enable interrupt.
1482:Drivers/STM32F3xx_HAL_Driver/Src/stm32f3xx_hal_tim.c ****    (+) Stop the Time Input Capture and disable interrupt.
1483:Drivers/STM32F3xx_HAL_Driver/Src/stm32f3xx_hal_tim.c ****    (+) Start the Time Input Capture and enable DMA transfer.
1484:Drivers/STM32F3xx_HAL_Driver/Src/stm32f3xx_hal_tim.c ****    (+) Stop the Time Input Capture and disable DMA transfer.
1485:Drivers/STM32F3xx_HAL_Driver/Src/stm32f3xx_hal_tim.c ****  
1486:Drivers/STM32F3xx_HAL_Driver/Src/stm32f3xx_hal_tim.c **** @endverbatim
1487:Drivers/STM32F3xx_HAL_Driver/Src/stm32f3xx_hal_tim.c ****   * @{
1488:Drivers/STM32F3xx_HAL_Driver/Src/stm32f3xx_hal_tim.c ****   */
1489:Drivers/STM32F3xx_HAL_Driver/Src/stm32f3xx_hal_tim.c **** /**
1490:Drivers/STM32F3xx_HAL_Driver/Src/stm32f3xx_hal_tim.c ****   * @brief  Initializes the TIM Input Capture Time base according to the specified
1491:Drivers/STM32F3xx_HAL_Driver/Src/stm32f3xx_hal_tim.c ****   *         parameters in the TIM_HandleTypeDef and create the associated handle.
1492:Drivers/STM32F3xx_HAL_Driver/Src/stm32f3xx_hal_tim.c ****   * @param  htim TIM Input Capture handle
1493:Drivers/STM32F3xx_HAL_Driver/Src/stm32f3xx_hal_tim.c ****   * @retval HAL status
1494:Drivers/STM32F3xx_HAL_Driver/Src/stm32f3xx_hal_tim.c ****   */
1495:Drivers/STM32F3xx_HAL_Driver/Src/stm32f3xx_hal_tim.c **** HAL_StatusTypeDef HAL_TIM_IC_Init(TIM_HandleTypeDef *htim)
1496:Drivers/STM32F3xx_HAL_Driver/Src/stm32f3xx_hal_tim.c **** {
ARM GAS  /tmp/ccuQngBj.s 			page 29


1497:Drivers/STM32F3xx_HAL_Driver/Src/stm32f3xx_hal_tim.c ****   /* Check the TIM handle allocation */
1498:Drivers/STM32F3xx_HAL_Driver/Src/stm32f3xx_hal_tim.c ****   if(htim == NULL)
1499:Drivers/STM32F3xx_HAL_Driver/Src/stm32f3xx_hal_tim.c ****   {
1500:Drivers/STM32F3xx_HAL_Driver/Src/stm32f3xx_hal_tim.c ****     return HAL_ERROR;
1501:Drivers/STM32F3xx_HAL_Driver/Src/stm32f3xx_hal_tim.c ****   }
1502:Drivers/STM32F3xx_HAL_Driver/Src/stm32f3xx_hal_tim.c **** 
1503:Drivers/STM32F3xx_HAL_Driver/Src/stm32f3xx_hal_tim.c ****   /* Check the parameters */
1504:Drivers/STM32F3xx_HAL_Driver/Src/stm32f3xx_hal_tim.c ****   assert_param(IS_TIM_INSTANCE(htim->Instance));
1505:Drivers/STM32F3xx_HAL_Driver/Src/stm32f3xx_hal_tim.c ****   assert_param(IS_TIM_COUNTER_MODE(htim->Init.CounterMode));
1506:Drivers/STM32F3xx_HAL_Driver/Src/stm32f3xx_hal_tim.c ****   assert_param(IS_TIM_CLOCKDIVISION_DIV(htim->Init.ClockDivision)); 
1507:Drivers/STM32F3xx_HAL_Driver/Src/stm32f3xx_hal_tim.c ****   assert_param(IS_TIM_AUTORELOAD_PRELOAD(htim->Init.AutoReloadPreload));
1508:Drivers/STM32F3xx_HAL_Driver/Src/stm32f3xx_hal_tim.c **** 
1509:Drivers/STM32F3xx_HAL_Driver/Src/stm32f3xx_hal_tim.c ****   if(htim->State == HAL_TIM_STATE_RESET)
1510:Drivers/STM32F3xx_HAL_Driver/Src/stm32f3xx_hal_tim.c ****   {  
1511:Drivers/STM32F3xx_HAL_Driver/Src/stm32f3xx_hal_tim.c ****     /* Allocate lock resource and initialize it */
1512:Drivers/STM32F3xx_HAL_Driver/Src/stm32f3xx_hal_tim.c ****     htim->Lock = HAL_UNLOCKED;
1513:Drivers/STM32F3xx_HAL_Driver/Src/stm32f3xx_hal_tim.c **** 
1514:Drivers/STM32F3xx_HAL_Driver/Src/stm32f3xx_hal_tim.c ****     /* Init the low level hardware : GPIO, CLOCK, NVIC and DMA */
1515:Drivers/STM32F3xx_HAL_Driver/Src/stm32f3xx_hal_tim.c ****     HAL_TIM_IC_MspInit(htim);
1516:Drivers/STM32F3xx_HAL_Driver/Src/stm32f3xx_hal_tim.c ****   }
1517:Drivers/STM32F3xx_HAL_Driver/Src/stm32f3xx_hal_tim.c ****   
1518:Drivers/STM32F3xx_HAL_Driver/Src/stm32f3xx_hal_tim.c ****   /* Set the TIM state */
1519:Drivers/STM32F3xx_HAL_Driver/Src/stm32f3xx_hal_tim.c ****   htim->State= HAL_TIM_STATE_BUSY; 
1520:Drivers/STM32F3xx_HAL_Driver/Src/stm32f3xx_hal_tim.c ****   
1521:Drivers/STM32F3xx_HAL_Driver/Src/stm32f3xx_hal_tim.c ****   /* Init the base time for the input capture */  
1522:Drivers/STM32F3xx_HAL_Driver/Src/stm32f3xx_hal_tim.c ****   TIM_Base_SetConfig(htim->Instance, &htim->Init); 
1523:Drivers/STM32F3xx_HAL_Driver/Src/stm32f3xx_hal_tim.c ****    
1524:Drivers/STM32F3xx_HAL_Driver/Src/stm32f3xx_hal_tim.c ****   /* Initialize the TIM state*/
1525:Drivers/STM32F3xx_HAL_Driver/Src/stm32f3xx_hal_tim.c ****   htim->State= HAL_TIM_STATE_READY;
1526:Drivers/STM32F3xx_HAL_Driver/Src/stm32f3xx_hal_tim.c ****   
1527:Drivers/STM32F3xx_HAL_Driver/Src/stm32f3xx_hal_tim.c ****   return HAL_OK;
1528:Drivers/STM32F3xx_HAL_Driver/Src/stm32f3xx_hal_tim.c **** }
1529:Drivers/STM32F3xx_HAL_Driver/Src/stm32f3xx_hal_tim.c **** 
1530:Drivers/STM32F3xx_HAL_Driver/Src/stm32f3xx_hal_tim.c **** /**
1531:Drivers/STM32F3xx_HAL_Driver/Src/stm32f3xx_hal_tim.c ****   * @brief  DeInitializes the TIM peripheral 
1532:Drivers/STM32F3xx_HAL_Driver/Src/stm32f3xx_hal_tim.c ****   * @param  htim TIM Input Capture handle
1533:Drivers/STM32F3xx_HAL_Driver/Src/stm32f3xx_hal_tim.c ****   * @retval HAL status
1534:Drivers/STM32F3xx_HAL_Driver/Src/stm32f3xx_hal_tim.c ****   */
1535:Drivers/STM32F3xx_HAL_Driver/Src/stm32f3xx_hal_tim.c **** HAL_StatusTypeDef HAL_TIM_IC_DeInit(TIM_HandleTypeDef *htim)
1536:Drivers/STM32F3xx_HAL_Driver/Src/stm32f3xx_hal_tim.c **** {
1537:Drivers/STM32F3xx_HAL_Driver/Src/stm32f3xx_hal_tim.c ****   /* Check the parameters */
1538:Drivers/STM32F3xx_HAL_Driver/Src/stm32f3xx_hal_tim.c ****   assert_param(IS_TIM_INSTANCE(htim->Instance));
1539:Drivers/STM32F3xx_HAL_Driver/Src/stm32f3xx_hal_tim.c ****   
1540:Drivers/STM32F3xx_HAL_Driver/Src/stm32f3xx_hal_tim.c ****   htim->State = HAL_TIM_STATE_BUSY;
1541:Drivers/STM32F3xx_HAL_Driver/Src/stm32f3xx_hal_tim.c ****   
1542:Drivers/STM32F3xx_HAL_Driver/Src/stm32f3xx_hal_tim.c ****   /* Disable the TIM Peripheral Clock */
1543:Drivers/STM32F3xx_HAL_Driver/Src/stm32f3xx_hal_tim.c ****   __HAL_TIM_DISABLE(htim);
1544:Drivers/STM32F3xx_HAL_Driver/Src/stm32f3xx_hal_tim.c ****     
1545:Drivers/STM32F3xx_HAL_Driver/Src/stm32f3xx_hal_tim.c ****   /* DeInit the low level hardware: GPIO, CLOCK, NVIC and DMA */
1546:Drivers/STM32F3xx_HAL_Driver/Src/stm32f3xx_hal_tim.c ****   HAL_TIM_IC_MspDeInit(htim);
1547:Drivers/STM32F3xx_HAL_Driver/Src/stm32f3xx_hal_tim.c ****     
1548:Drivers/STM32F3xx_HAL_Driver/Src/stm32f3xx_hal_tim.c ****   /* Change TIM state */  
1549:Drivers/STM32F3xx_HAL_Driver/Src/stm32f3xx_hal_tim.c ****   htim->State = HAL_TIM_STATE_RESET;
1550:Drivers/STM32F3xx_HAL_Driver/Src/stm32f3xx_hal_tim.c ****    
1551:Drivers/STM32F3xx_HAL_Driver/Src/stm32f3xx_hal_tim.c ****   /* Release Lock */
1552:Drivers/STM32F3xx_HAL_Driver/Src/stm32f3xx_hal_tim.c ****   __HAL_UNLOCK(htim);
1553:Drivers/STM32F3xx_HAL_Driver/Src/stm32f3xx_hal_tim.c **** 
ARM GAS  /tmp/ccuQngBj.s 			page 30


1554:Drivers/STM32F3xx_HAL_Driver/Src/stm32f3xx_hal_tim.c ****   return HAL_OK;
1555:Drivers/STM32F3xx_HAL_Driver/Src/stm32f3xx_hal_tim.c **** }
1556:Drivers/STM32F3xx_HAL_Driver/Src/stm32f3xx_hal_tim.c **** 
1557:Drivers/STM32F3xx_HAL_Driver/Src/stm32f3xx_hal_tim.c **** /**
1558:Drivers/STM32F3xx_HAL_Driver/Src/stm32f3xx_hal_tim.c ****   * @brief  Initializes the TIM Input Capture MSP.
1559:Drivers/STM32F3xx_HAL_Driver/Src/stm32f3xx_hal_tim.c ****   * @param  htim TIM handle
1560:Drivers/STM32F3xx_HAL_Driver/Src/stm32f3xx_hal_tim.c ****   * @retval None
1561:Drivers/STM32F3xx_HAL_Driver/Src/stm32f3xx_hal_tim.c ****   */
1562:Drivers/STM32F3xx_HAL_Driver/Src/stm32f3xx_hal_tim.c **** __weak void HAL_TIM_IC_MspInit(TIM_HandleTypeDef *htim)
1563:Drivers/STM32F3xx_HAL_Driver/Src/stm32f3xx_hal_tim.c **** {
1564:Drivers/STM32F3xx_HAL_Driver/Src/stm32f3xx_hal_tim.c ****   /* Prevent unused argument(s) compilation warning */
1565:Drivers/STM32F3xx_HAL_Driver/Src/stm32f3xx_hal_tim.c ****   UNUSED(htim);
1566:Drivers/STM32F3xx_HAL_Driver/Src/stm32f3xx_hal_tim.c **** 
1567:Drivers/STM32F3xx_HAL_Driver/Src/stm32f3xx_hal_tim.c ****   /* NOTE : This function Should not be modified, when the callback is needed,
1568:Drivers/STM32F3xx_HAL_Driver/Src/stm32f3xx_hal_tim.c ****             the HAL_TIM_IC_MspInit could be implemented in the user file
1569:Drivers/STM32F3xx_HAL_Driver/Src/stm32f3xx_hal_tim.c ****    */
1570:Drivers/STM32F3xx_HAL_Driver/Src/stm32f3xx_hal_tim.c **** }
1571:Drivers/STM32F3xx_HAL_Driver/Src/stm32f3xx_hal_tim.c **** 
1572:Drivers/STM32F3xx_HAL_Driver/Src/stm32f3xx_hal_tim.c **** /**
1573:Drivers/STM32F3xx_HAL_Driver/Src/stm32f3xx_hal_tim.c ****   * @brief  DeInitializes TIM Input Capture MSP.
1574:Drivers/STM32F3xx_HAL_Driver/Src/stm32f3xx_hal_tim.c ****   * @param  htim TIM handle
1575:Drivers/STM32F3xx_HAL_Driver/Src/stm32f3xx_hal_tim.c ****   * @retval None
1576:Drivers/STM32F3xx_HAL_Driver/Src/stm32f3xx_hal_tim.c ****   */
1577:Drivers/STM32F3xx_HAL_Driver/Src/stm32f3xx_hal_tim.c **** __weak void HAL_TIM_IC_MspDeInit(TIM_HandleTypeDef *htim)
1578:Drivers/STM32F3xx_HAL_Driver/Src/stm32f3xx_hal_tim.c **** {
1579:Drivers/STM32F3xx_HAL_Driver/Src/stm32f3xx_hal_tim.c ****   /* Prevent unused argument(s) compilation warning */
1580:Drivers/STM32F3xx_HAL_Driver/Src/stm32f3xx_hal_tim.c ****   UNUSED(htim);
1581:Drivers/STM32F3xx_HAL_Driver/Src/stm32f3xx_hal_tim.c **** 
1582:Drivers/STM32F3xx_HAL_Driver/Src/stm32f3xx_hal_tim.c ****   /* NOTE : This function Should not be modified, when the callback is needed,
1583:Drivers/STM32F3xx_HAL_Driver/Src/stm32f3xx_hal_tim.c ****             the HAL_TIM_IC_MspDeInit could be implemented in the user file
1584:Drivers/STM32F3xx_HAL_Driver/Src/stm32f3xx_hal_tim.c ****    */
1585:Drivers/STM32F3xx_HAL_Driver/Src/stm32f3xx_hal_tim.c **** }
1586:Drivers/STM32F3xx_HAL_Driver/Src/stm32f3xx_hal_tim.c **** 
1587:Drivers/STM32F3xx_HAL_Driver/Src/stm32f3xx_hal_tim.c **** /**
1588:Drivers/STM32F3xx_HAL_Driver/Src/stm32f3xx_hal_tim.c ****   * @brief  Starts the TIM Input Capture measurement.
1589:Drivers/STM32F3xx_HAL_Driver/Src/stm32f3xx_hal_tim.c ****   * @param  htim TIM Input Capture handle
1590:Drivers/STM32F3xx_HAL_Driver/Src/stm32f3xx_hal_tim.c ****   * @param  Channel TIM Channels to be enabled
1591:Drivers/STM32F3xx_HAL_Driver/Src/stm32f3xx_hal_tim.c ****   *          This parameter can be one of the following values:
1592:Drivers/STM32F3xx_HAL_Driver/Src/stm32f3xx_hal_tim.c ****   *            @arg TIM_CHANNEL_1: TIM Channel 1 selected
1593:Drivers/STM32F3xx_HAL_Driver/Src/stm32f3xx_hal_tim.c ****   *            @arg TIM_CHANNEL_2: TIM Channel 2 selected
1594:Drivers/STM32F3xx_HAL_Driver/Src/stm32f3xx_hal_tim.c ****   *            @arg TIM_CHANNEL_3: TIM Channel 3 selected
1595:Drivers/STM32F3xx_HAL_Driver/Src/stm32f3xx_hal_tim.c ****   *            @arg TIM_CHANNEL_4: TIM Channel 4 selected
1596:Drivers/STM32F3xx_HAL_Driver/Src/stm32f3xx_hal_tim.c ****   * @retval HAL status
1597:Drivers/STM32F3xx_HAL_Driver/Src/stm32f3xx_hal_tim.c **** */
1598:Drivers/STM32F3xx_HAL_Driver/Src/stm32f3xx_hal_tim.c **** HAL_StatusTypeDef HAL_TIM_IC_Start (TIM_HandleTypeDef *htim, uint32_t Channel)
1599:Drivers/STM32F3xx_HAL_Driver/Src/stm32f3xx_hal_tim.c **** {
1600:Drivers/STM32F3xx_HAL_Driver/Src/stm32f3xx_hal_tim.c ****   /* Check the parameters */
1601:Drivers/STM32F3xx_HAL_Driver/Src/stm32f3xx_hal_tim.c ****   assert_param(IS_TIM_CCX_INSTANCE(htim->Instance, Channel));
1602:Drivers/STM32F3xx_HAL_Driver/Src/stm32f3xx_hal_tim.c ****   
1603:Drivers/STM32F3xx_HAL_Driver/Src/stm32f3xx_hal_tim.c ****   /* Enable the Input Capture channel */
1604:Drivers/STM32F3xx_HAL_Driver/Src/stm32f3xx_hal_tim.c ****   TIM_CCxChannelCmd(htim->Instance, Channel, TIM_CCx_ENABLE);
1605:Drivers/STM32F3xx_HAL_Driver/Src/stm32f3xx_hal_tim.c ****     
1606:Drivers/STM32F3xx_HAL_Driver/Src/stm32f3xx_hal_tim.c ****   /* Enable the Peripheral */
1607:Drivers/STM32F3xx_HAL_Driver/Src/stm32f3xx_hal_tim.c ****   __HAL_TIM_ENABLE(htim);  
1608:Drivers/STM32F3xx_HAL_Driver/Src/stm32f3xx_hal_tim.c **** 
1609:Drivers/STM32F3xx_HAL_Driver/Src/stm32f3xx_hal_tim.c ****   /* Return function status */
1610:Drivers/STM32F3xx_HAL_Driver/Src/stm32f3xx_hal_tim.c ****   return HAL_OK;  
ARM GAS  /tmp/ccuQngBj.s 			page 31


1611:Drivers/STM32F3xx_HAL_Driver/Src/stm32f3xx_hal_tim.c **** } 
1612:Drivers/STM32F3xx_HAL_Driver/Src/stm32f3xx_hal_tim.c **** 
1613:Drivers/STM32F3xx_HAL_Driver/Src/stm32f3xx_hal_tim.c **** /**
1614:Drivers/STM32F3xx_HAL_Driver/Src/stm32f3xx_hal_tim.c ****   * @brief  Stops the TIM Input Capture measurement.
1615:Drivers/STM32F3xx_HAL_Driver/Src/stm32f3xx_hal_tim.c ****   * @param  htim TIM handle
1616:Drivers/STM32F3xx_HAL_Driver/Src/stm32f3xx_hal_tim.c ****   * @param  Channel TIM Channels to be disabled
1617:Drivers/STM32F3xx_HAL_Driver/Src/stm32f3xx_hal_tim.c ****   *          This parameter can be one of the following values:
1618:Drivers/STM32F3xx_HAL_Driver/Src/stm32f3xx_hal_tim.c ****   *            @arg TIM_CHANNEL_1: TIM Channel 1 selected
1619:Drivers/STM32F3xx_HAL_Driver/Src/stm32f3xx_hal_tim.c ****   *            @arg TIM_CHANNEL_2: TIM Channel 2 selected
1620:Drivers/STM32F3xx_HAL_Driver/Src/stm32f3xx_hal_tim.c ****   *            @arg TIM_CHANNEL_3: TIM Channel 3 selected
1621:Drivers/STM32F3xx_HAL_Driver/Src/stm32f3xx_hal_tim.c ****   *            @arg TIM_CHANNEL_4: TIM Channel 4 selected
1622:Drivers/STM32F3xx_HAL_Driver/Src/stm32f3xx_hal_tim.c ****   * @retval HAL status
1623:Drivers/STM32F3xx_HAL_Driver/Src/stm32f3xx_hal_tim.c **** */
1624:Drivers/STM32F3xx_HAL_Driver/Src/stm32f3xx_hal_tim.c **** HAL_StatusTypeDef HAL_TIM_IC_Stop(TIM_HandleTypeDef *htim, uint32_t Channel)
1625:Drivers/STM32F3xx_HAL_Driver/Src/stm32f3xx_hal_tim.c **** { 
1626:Drivers/STM32F3xx_HAL_Driver/Src/stm32f3xx_hal_tim.c ****   /* Check the parameters */
1627:Drivers/STM32F3xx_HAL_Driver/Src/stm32f3xx_hal_tim.c ****   assert_param(IS_TIM_CCX_INSTANCE(htim->Instance, Channel));
1628:Drivers/STM32F3xx_HAL_Driver/Src/stm32f3xx_hal_tim.c ****   
1629:Drivers/STM32F3xx_HAL_Driver/Src/stm32f3xx_hal_tim.c ****   /* Disable the Input Capture channel */
1630:Drivers/STM32F3xx_HAL_Driver/Src/stm32f3xx_hal_tim.c ****   TIM_CCxChannelCmd(htim->Instance, Channel, TIM_CCx_DISABLE);
1631:Drivers/STM32F3xx_HAL_Driver/Src/stm32f3xx_hal_tim.c ****   
1632:Drivers/STM32F3xx_HAL_Driver/Src/stm32f3xx_hal_tim.c ****   /* Disable the Peripheral */
1633:Drivers/STM32F3xx_HAL_Driver/Src/stm32f3xx_hal_tim.c ****   __HAL_TIM_DISABLE(htim); 
1634:Drivers/STM32F3xx_HAL_Driver/Src/stm32f3xx_hal_tim.c ****   
1635:Drivers/STM32F3xx_HAL_Driver/Src/stm32f3xx_hal_tim.c ****   /* Return function status */
1636:Drivers/STM32F3xx_HAL_Driver/Src/stm32f3xx_hal_tim.c ****   return HAL_OK;
1637:Drivers/STM32F3xx_HAL_Driver/Src/stm32f3xx_hal_tim.c **** }
1638:Drivers/STM32F3xx_HAL_Driver/Src/stm32f3xx_hal_tim.c **** 
1639:Drivers/STM32F3xx_HAL_Driver/Src/stm32f3xx_hal_tim.c **** /**
1640:Drivers/STM32F3xx_HAL_Driver/Src/stm32f3xx_hal_tim.c ****   * @brief  Starts the TIM Input Capture measurement in interrupt mode.
1641:Drivers/STM32F3xx_HAL_Driver/Src/stm32f3xx_hal_tim.c ****   * @param  htim TIM Input Capture handle
1642:Drivers/STM32F3xx_HAL_Driver/Src/stm32f3xx_hal_tim.c ****   * @param  Channel TIM Channels to be enabled
1643:Drivers/STM32F3xx_HAL_Driver/Src/stm32f3xx_hal_tim.c ****   *          This parameter can be one of the following values:
1644:Drivers/STM32F3xx_HAL_Driver/Src/stm32f3xx_hal_tim.c ****   *            @arg TIM_CHANNEL_1: TIM Channel 1 selected
1645:Drivers/STM32F3xx_HAL_Driver/Src/stm32f3xx_hal_tim.c ****   *            @arg TIM_CHANNEL_2: TIM Channel 2 selected
1646:Drivers/STM32F3xx_HAL_Driver/Src/stm32f3xx_hal_tim.c ****   *            @arg TIM_CHANNEL_3: TIM Channel 3 selected
1647:Drivers/STM32F3xx_HAL_Driver/Src/stm32f3xx_hal_tim.c ****   *            @arg TIM_CHANNEL_4: TIM Channel 4 selected
1648:Drivers/STM32F3xx_HAL_Driver/Src/stm32f3xx_hal_tim.c ****   * @retval HAL status
1649:Drivers/STM32F3xx_HAL_Driver/Src/stm32f3xx_hal_tim.c **** */
1650:Drivers/STM32F3xx_HAL_Driver/Src/stm32f3xx_hal_tim.c **** HAL_StatusTypeDef HAL_TIM_IC_Start_IT (TIM_HandleTypeDef *htim, uint32_t Channel)
1651:Drivers/STM32F3xx_HAL_Driver/Src/stm32f3xx_hal_tim.c **** {
1652:Drivers/STM32F3xx_HAL_Driver/Src/stm32f3xx_hal_tim.c ****   /* Check the parameters */
1653:Drivers/STM32F3xx_HAL_Driver/Src/stm32f3xx_hal_tim.c ****   assert_param(IS_TIM_CCX_INSTANCE(htim->Instance, Channel));
1654:Drivers/STM32F3xx_HAL_Driver/Src/stm32f3xx_hal_tim.c ****   
1655:Drivers/STM32F3xx_HAL_Driver/Src/stm32f3xx_hal_tim.c ****   switch (Channel)
1656:Drivers/STM32F3xx_HAL_Driver/Src/stm32f3xx_hal_tim.c ****   {
1657:Drivers/STM32F3xx_HAL_Driver/Src/stm32f3xx_hal_tim.c ****     case TIM_CHANNEL_1:
1658:Drivers/STM32F3xx_HAL_Driver/Src/stm32f3xx_hal_tim.c ****     {       
1659:Drivers/STM32F3xx_HAL_Driver/Src/stm32f3xx_hal_tim.c ****       /* Enable the TIM Capture/Compare 1 interrupt */
1660:Drivers/STM32F3xx_HAL_Driver/Src/stm32f3xx_hal_tim.c ****       __HAL_TIM_ENABLE_IT(htim, TIM_IT_CC1);
1661:Drivers/STM32F3xx_HAL_Driver/Src/stm32f3xx_hal_tim.c ****     }
1662:Drivers/STM32F3xx_HAL_Driver/Src/stm32f3xx_hal_tim.c ****     break;
1663:Drivers/STM32F3xx_HAL_Driver/Src/stm32f3xx_hal_tim.c ****     
1664:Drivers/STM32F3xx_HAL_Driver/Src/stm32f3xx_hal_tim.c ****     case TIM_CHANNEL_2:
1665:Drivers/STM32F3xx_HAL_Driver/Src/stm32f3xx_hal_tim.c ****     {
1666:Drivers/STM32F3xx_HAL_Driver/Src/stm32f3xx_hal_tim.c ****       /* Enable the TIM Capture/Compare 2 interrupt */
1667:Drivers/STM32F3xx_HAL_Driver/Src/stm32f3xx_hal_tim.c ****       __HAL_TIM_ENABLE_IT(htim, TIM_IT_CC2);
ARM GAS  /tmp/ccuQngBj.s 			page 32


1668:Drivers/STM32F3xx_HAL_Driver/Src/stm32f3xx_hal_tim.c ****     }
1669:Drivers/STM32F3xx_HAL_Driver/Src/stm32f3xx_hal_tim.c ****     break;
1670:Drivers/STM32F3xx_HAL_Driver/Src/stm32f3xx_hal_tim.c ****     
1671:Drivers/STM32F3xx_HAL_Driver/Src/stm32f3xx_hal_tim.c ****     case TIM_CHANNEL_3:
1672:Drivers/STM32F3xx_HAL_Driver/Src/stm32f3xx_hal_tim.c ****     {
1673:Drivers/STM32F3xx_HAL_Driver/Src/stm32f3xx_hal_tim.c ****       /* Enable the TIM Capture/Compare 3 interrupt */
1674:Drivers/STM32F3xx_HAL_Driver/Src/stm32f3xx_hal_tim.c ****       __HAL_TIM_ENABLE_IT(htim, TIM_IT_CC3);
1675:Drivers/STM32F3xx_HAL_Driver/Src/stm32f3xx_hal_tim.c ****     }
1676:Drivers/STM32F3xx_HAL_Driver/Src/stm32f3xx_hal_tim.c ****     break;
1677:Drivers/STM32F3xx_HAL_Driver/Src/stm32f3xx_hal_tim.c ****     
1678:Drivers/STM32F3xx_HAL_Driver/Src/stm32f3xx_hal_tim.c ****     case TIM_CHANNEL_4:
1679:Drivers/STM32F3xx_HAL_Driver/Src/stm32f3xx_hal_tim.c ****     {
1680:Drivers/STM32F3xx_HAL_Driver/Src/stm32f3xx_hal_tim.c ****       /* Enable the TIM Capture/Compare 4 interrupt */
1681:Drivers/STM32F3xx_HAL_Driver/Src/stm32f3xx_hal_tim.c ****       __HAL_TIM_ENABLE_IT(htim, TIM_IT_CC4);
1682:Drivers/STM32F3xx_HAL_Driver/Src/stm32f3xx_hal_tim.c ****     }
1683:Drivers/STM32F3xx_HAL_Driver/Src/stm32f3xx_hal_tim.c ****     break;
1684:Drivers/STM32F3xx_HAL_Driver/Src/stm32f3xx_hal_tim.c ****     
1685:Drivers/STM32F3xx_HAL_Driver/Src/stm32f3xx_hal_tim.c ****     default:
1686:Drivers/STM32F3xx_HAL_Driver/Src/stm32f3xx_hal_tim.c ****     break;
1687:Drivers/STM32F3xx_HAL_Driver/Src/stm32f3xx_hal_tim.c ****   }  
1688:Drivers/STM32F3xx_HAL_Driver/Src/stm32f3xx_hal_tim.c ****   /* Enable the Input Capture channel */
1689:Drivers/STM32F3xx_HAL_Driver/Src/stm32f3xx_hal_tim.c ****   TIM_CCxChannelCmd(htim->Instance, Channel, TIM_CCx_ENABLE);
1690:Drivers/STM32F3xx_HAL_Driver/Src/stm32f3xx_hal_tim.c ****     
1691:Drivers/STM32F3xx_HAL_Driver/Src/stm32f3xx_hal_tim.c ****   /* Enable the Peripheral */
1692:Drivers/STM32F3xx_HAL_Driver/Src/stm32f3xx_hal_tim.c ****   __HAL_TIM_ENABLE(htim);  
1693:Drivers/STM32F3xx_HAL_Driver/Src/stm32f3xx_hal_tim.c **** 
1694:Drivers/STM32F3xx_HAL_Driver/Src/stm32f3xx_hal_tim.c ****   /* Return function status */
1695:Drivers/STM32F3xx_HAL_Driver/Src/stm32f3xx_hal_tim.c ****   return HAL_OK;  
1696:Drivers/STM32F3xx_HAL_Driver/Src/stm32f3xx_hal_tim.c **** } 
1697:Drivers/STM32F3xx_HAL_Driver/Src/stm32f3xx_hal_tim.c **** 
1698:Drivers/STM32F3xx_HAL_Driver/Src/stm32f3xx_hal_tim.c **** /**
1699:Drivers/STM32F3xx_HAL_Driver/Src/stm32f3xx_hal_tim.c ****   * @brief  Stops the TIM Input Capture measurement in interrupt mode.
1700:Drivers/STM32F3xx_HAL_Driver/Src/stm32f3xx_hal_tim.c ****   * @param  htim TIM handle
1701:Drivers/STM32F3xx_HAL_Driver/Src/stm32f3xx_hal_tim.c ****   * @param  Channel TIM Channels to be disabled
1702:Drivers/STM32F3xx_HAL_Driver/Src/stm32f3xx_hal_tim.c ****   *          This parameter can be one of the following values:
1703:Drivers/STM32F3xx_HAL_Driver/Src/stm32f3xx_hal_tim.c ****   *            @arg TIM_CHANNEL_1: TIM Channel 1 selected
1704:Drivers/STM32F3xx_HAL_Driver/Src/stm32f3xx_hal_tim.c ****   *            @arg TIM_CHANNEL_2: TIM Channel 2 selected
1705:Drivers/STM32F3xx_HAL_Driver/Src/stm32f3xx_hal_tim.c ****   *            @arg TIM_CHANNEL_3: TIM Channel 3 selected
1706:Drivers/STM32F3xx_HAL_Driver/Src/stm32f3xx_hal_tim.c ****   *            @arg TIM_CHANNEL_4: TIM Channel 4 selected
1707:Drivers/STM32F3xx_HAL_Driver/Src/stm32f3xx_hal_tim.c ****   * @retval HAL status
1708:Drivers/STM32F3xx_HAL_Driver/Src/stm32f3xx_hal_tim.c **** */
1709:Drivers/STM32F3xx_HAL_Driver/Src/stm32f3xx_hal_tim.c **** HAL_StatusTypeDef HAL_TIM_IC_Stop_IT(TIM_HandleTypeDef *htim, uint32_t Channel)
1710:Drivers/STM32F3xx_HAL_Driver/Src/stm32f3xx_hal_tim.c **** {
1711:Drivers/STM32F3xx_HAL_Driver/Src/stm32f3xx_hal_tim.c ****   /* Check the parameters */
1712:Drivers/STM32F3xx_HAL_Driver/Src/stm32f3xx_hal_tim.c ****   assert_param(IS_TIM_CCX_INSTANCE(htim->Instance, Channel));
1713:Drivers/STM32F3xx_HAL_Driver/Src/stm32f3xx_hal_tim.c ****   
1714:Drivers/STM32F3xx_HAL_Driver/Src/stm32f3xx_hal_tim.c ****   switch (Channel)
1715:Drivers/STM32F3xx_HAL_Driver/Src/stm32f3xx_hal_tim.c ****   {
1716:Drivers/STM32F3xx_HAL_Driver/Src/stm32f3xx_hal_tim.c ****     case TIM_CHANNEL_1:
1717:Drivers/STM32F3xx_HAL_Driver/Src/stm32f3xx_hal_tim.c ****     {       
1718:Drivers/STM32F3xx_HAL_Driver/Src/stm32f3xx_hal_tim.c ****       /* Disable the TIM Capture/Compare 1 interrupt */
1719:Drivers/STM32F3xx_HAL_Driver/Src/stm32f3xx_hal_tim.c ****       __HAL_TIM_DISABLE_IT(htim, TIM_IT_CC1);
1720:Drivers/STM32F3xx_HAL_Driver/Src/stm32f3xx_hal_tim.c ****     }
1721:Drivers/STM32F3xx_HAL_Driver/Src/stm32f3xx_hal_tim.c ****     break;
1722:Drivers/STM32F3xx_HAL_Driver/Src/stm32f3xx_hal_tim.c ****     
1723:Drivers/STM32F3xx_HAL_Driver/Src/stm32f3xx_hal_tim.c ****     case TIM_CHANNEL_2:
1724:Drivers/STM32F3xx_HAL_Driver/Src/stm32f3xx_hal_tim.c ****     {
ARM GAS  /tmp/ccuQngBj.s 			page 33


1725:Drivers/STM32F3xx_HAL_Driver/Src/stm32f3xx_hal_tim.c ****       /* Disable the TIM Capture/Compare 2 interrupt */
1726:Drivers/STM32F3xx_HAL_Driver/Src/stm32f3xx_hal_tim.c ****       __HAL_TIM_DISABLE_IT(htim, TIM_IT_CC2);
1727:Drivers/STM32F3xx_HAL_Driver/Src/stm32f3xx_hal_tim.c ****     }
1728:Drivers/STM32F3xx_HAL_Driver/Src/stm32f3xx_hal_tim.c ****     break;
1729:Drivers/STM32F3xx_HAL_Driver/Src/stm32f3xx_hal_tim.c ****     
1730:Drivers/STM32F3xx_HAL_Driver/Src/stm32f3xx_hal_tim.c ****     case TIM_CHANNEL_3:
1731:Drivers/STM32F3xx_HAL_Driver/Src/stm32f3xx_hal_tim.c ****     {
1732:Drivers/STM32F3xx_HAL_Driver/Src/stm32f3xx_hal_tim.c ****       /* Disable the TIM Capture/Compare 3 interrupt */
1733:Drivers/STM32F3xx_HAL_Driver/Src/stm32f3xx_hal_tim.c ****       __HAL_TIM_DISABLE_IT(htim, TIM_IT_CC3);
1734:Drivers/STM32F3xx_HAL_Driver/Src/stm32f3xx_hal_tim.c ****     }
1735:Drivers/STM32F3xx_HAL_Driver/Src/stm32f3xx_hal_tim.c ****     break;
1736:Drivers/STM32F3xx_HAL_Driver/Src/stm32f3xx_hal_tim.c ****     
1737:Drivers/STM32F3xx_HAL_Driver/Src/stm32f3xx_hal_tim.c ****     case TIM_CHANNEL_4:
1738:Drivers/STM32F3xx_HAL_Driver/Src/stm32f3xx_hal_tim.c ****     {
1739:Drivers/STM32F3xx_HAL_Driver/Src/stm32f3xx_hal_tim.c ****       /* Disable the TIM Capture/Compare 4 interrupt */
1740:Drivers/STM32F3xx_HAL_Driver/Src/stm32f3xx_hal_tim.c ****       __HAL_TIM_DISABLE_IT(htim, TIM_IT_CC4);
1741:Drivers/STM32F3xx_HAL_Driver/Src/stm32f3xx_hal_tim.c ****     }
1742:Drivers/STM32F3xx_HAL_Driver/Src/stm32f3xx_hal_tim.c ****     break;
1743:Drivers/STM32F3xx_HAL_Driver/Src/stm32f3xx_hal_tim.c ****     
1744:Drivers/STM32F3xx_HAL_Driver/Src/stm32f3xx_hal_tim.c ****     default:
1745:Drivers/STM32F3xx_HAL_Driver/Src/stm32f3xx_hal_tim.c ****     break; 
1746:Drivers/STM32F3xx_HAL_Driver/Src/stm32f3xx_hal_tim.c ****   } 
1747:Drivers/STM32F3xx_HAL_Driver/Src/stm32f3xx_hal_tim.c ****   
1748:Drivers/STM32F3xx_HAL_Driver/Src/stm32f3xx_hal_tim.c ****   /* Disable the Input Capture channel */
1749:Drivers/STM32F3xx_HAL_Driver/Src/stm32f3xx_hal_tim.c ****   TIM_CCxChannelCmd(htim->Instance, Channel, TIM_CCx_DISABLE); 
1750:Drivers/STM32F3xx_HAL_Driver/Src/stm32f3xx_hal_tim.c ****   
1751:Drivers/STM32F3xx_HAL_Driver/Src/stm32f3xx_hal_tim.c ****   /* Disable the Peripheral */
1752:Drivers/STM32F3xx_HAL_Driver/Src/stm32f3xx_hal_tim.c ****   __HAL_TIM_DISABLE(htim); 
1753:Drivers/STM32F3xx_HAL_Driver/Src/stm32f3xx_hal_tim.c ****   
1754:Drivers/STM32F3xx_HAL_Driver/Src/stm32f3xx_hal_tim.c ****   /* Return function status */
1755:Drivers/STM32F3xx_HAL_Driver/Src/stm32f3xx_hal_tim.c ****   return HAL_OK;
1756:Drivers/STM32F3xx_HAL_Driver/Src/stm32f3xx_hal_tim.c **** }
1757:Drivers/STM32F3xx_HAL_Driver/Src/stm32f3xx_hal_tim.c **** 
1758:Drivers/STM32F3xx_HAL_Driver/Src/stm32f3xx_hal_tim.c **** /**
1759:Drivers/STM32F3xx_HAL_Driver/Src/stm32f3xx_hal_tim.c ****   * @brief  Starts the TIM Input Capture measurement in DMA mode.
1760:Drivers/STM32F3xx_HAL_Driver/Src/stm32f3xx_hal_tim.c ****   * @param  htim TIM Input Capture handle
1761:Drivers/STM32F3xx_HAL_Driver/Src/stm32f3xx_hal_tim.c ****   * @param  Channel TIM Channels to be enabled
1762:Drivers/STM32F3xx_HAL_Driver/Src/stm32f3xx_hal_tim.c ****   *          This parameter can be one of the following values:
1763:Drivers/STM32F3xx_HAL_Driver/Src/stm32f3xx_hal_tim.c ****   *            @arg TIM_CHANNEL_1: TIM Channel 1 selected
1764:Drivers/STM32F3xx_HAL_Driver/Src/stm32f3xx_hal_tim.c ****   *            @arg TIM_CHANNEL_2: TIM Channel 2 selected
1765:Drivers/STM32F3xx_HAL_Driver/Src/stm32f3xx_hal_tim.c ****   *            @arg TIM_CHANNEL_3: TIM Channel 3 selected
1766:Drivers/STM32F3xx_HAL_Driver/Src/stm32f3xx_hal_tim.c ****   *            @arg TIM_CHANNEL_4: TIM Channel 4 selected
1767:Drivers/STM32F3xx_HAL_Driver/Src/stm32f3xx_hal_tim.c ****   * @param  pData The destination Buffer address.
1768:Drivers/STM32F3xx_HAL_Driver/Src/stm32f3xx_hal_tim.c ****   * @param  Length The length of data to be transferred from TIM peripheral to memory.
1769:Drivers/STM32F3xx_HAL_Driver/Src/stm32f3xx_hal_tim.c ****   * @retval HAL status
1770:Drivers/STM32F3xx_HAL_Driver/Src/stm32f3xx_hal_tim.c **** */
1771:Drivers/STM32F3xx_HAL_Driver/Src/stm32f3xx_hal_tim.c **** HAL_StatusTypeDef HAL_TIM_IC_Start_DMA(TIM_HandleTypeDef *htim, uint32_t Channel, uint32_t *pData, 
1772:Drivers/STM32F3xx_HAL_Driver/Src/stm32f3xx_hal_tim.c **** {
1773:Drivers/STM32F3xx_HAL_Driver/Src/stm32f3xx_hal_tim.c ****   /* Check the parameters */
1774:Drivers/STM32F3xx_HAL_Driver/Src/stm32f3xx_hal_tim.c ****   assert_param(IS_TIM_CCX_INSTANCE(htim->Instance, Channel));
1775:Drivers/STM32F3xx_HAL_Driver/Src/stm32f3xx_hal_tim.c ****   assert_param(IS_TIM_DMA_CC_INSTANCE(htim->Instance));
1776:Drivers/STM32F3xx_HAL_Driver/Src/stm32f3xx_hal_tim.c ****   
1777:Drivers/STM32F3xx_HAL_Driver/Src/stm32f3xx_hal_tim.c ****   if((htim->State == HAL_TIM_STATE_BUSY))
1778:Drivers/STM32F3xx_HAL_Driver/Src/stm32f3xx_hal_tim.c ****   {
1779:Drivers/STM32F3xx_HAL_Driver/Src/stm32f3xx_hal_tim.c ****      return HAL_BUSY;
1780:Drivers/STM32F3xx_HAL_Driver/Src/stm32f3xx_hal_tim.c ****   }
1781:Drivers/STM32F3xx_HAL_Driver/Src/stm32f3xx_hal_tim.c ****   else if((htim->State == HAL_TIM_STATE_READY))
ARM GAS  /tmp/ccuQngBj.s 			page 34


1782:Drivers/STM32F3xx_HAL_Driver/Src/stm32f3xx_hal_tim.c ****   {
1783:Drivers/STM32F3xx_HAL_Driver/Src/stm32f3xx_hal_tim.c ****     if((pData == 0U ) && (Length > 0U)) 
1784:Drivers/STM32F3xx_HAL_Driver/Src/stm32f3xx_hal_tim.c ****     {
1785:Drivers/STM32F3xx_HAL_Driver/Src/stm32f3xx_hal_tim.c ****       return HAL_ERROR;                                    
1786:Drivers/STM32F3xx_HAL_Driver/Src/stm32f3xx_hal_tim.c ****     }
1787:Drivers/STM32F3xx_HAL_Driver/Src/stm32f3xx_hal_tim.c ****     else
1788:Drivers/STM32F3xx_HAL_Driver/Src/stm32f3xx_hal_tim.c ****     {
1789:Drivers/STM32F3xx_HAL_Driver/Src/stm32f3xx_hal_tim.c ****       htim->State = HAL_TIM_STATE_BUSY;
1790:Drivers/STM32F3xx_HAL_Driver/Src/stm32f3xx_hal_tim.c ****     }
1791:Drivers/STM32F3xx_HAL_Driver/Src/stm32f3xx_hal_tim.c ****   }  
1792:Drivers/STM32F3xx_HAL_Driver/Src/stm32f3xx_hal_tim.c ****    
1793:Drivers/STM32F3xx_HAL_Driver/Src/stm32f3xx_hal_tim.c ****   switch (Channel)
1794:Drivers/STM32F3xx_HAL_Driver/Src/stm32f3xx_hal_tim.c ****   {
1795:Drivers/STM32F3xx_HAL_Driver/Src/stm32f3xx_hal_tim.c ****     case TIM_CHANNEL_1:
1796:Drivers/STM32F3xx_HAL_Driver/Src/stm32f3xx_hal_tim.c ****     {
1797:Drivers/STM32F3xx_HAL_Driver/Src/stm32f3xx_hal_tim.c ****       /* Set the DMA Period elapsed callback */
1798:Drivers/STM32F3xx_HAL_Driver/Src/stm32f3xx_hal_tim.c ****       htim->hdma[TIM_DMA_ID_CC1]->XferCpltCallback = TIM_DMACaptureCplt;
1799:Drivers/STM32F3xx_HAL_Driver/Src/stm32f3xx_hal_tim.c ****      
1800:Drivers/STM32F3xx_HAL_Driver/Src/stm32f3xx_hal_tim.c ****       /* Set the DMA error callback */
1801:Drivers/STM32F3xx_HAL_Driver/Src/stm32f3xx_hal_tim.c ****       htim->hdma[TIM_DMA_ID_CC1]->XferErrorCallback = TIM_DMAError ;
1802:Drivers/STM32F3xx_HAL_Driver/Src/stm32f3xx_hal_tim.c ****       
1803:Drivers/STM32F3xx_HAL_Driver/Src/stm32f3xx_hal_tim.c ****       /* Enable the DMA channel */
1804:Drivers/STM32F3xx_HAL_Driver/Src/stm32f3xx_hal_tim.c ****       HAL_DMA_Start_IT(htim->hdma[TIM_DMA_ID_CC1], (uint32_t)&htim->Instance->CCR1, (uint32_t)pData
1805:Drivers/STM32F3xx_HAL_Driver/Src/stm32f3xx_hal_tim.c ****       
1806:Drivers/STM32F3xx_HAL_Driver/Src/stm32f3xx_hal_tim.c ****       /* Enable the TIM Capture/Compare 1 DMA request */      
1807:Drivers/STM32F3xx_HAL_Driver/Src/stm32f3xx_hal_tim.c ****       __HAL_TIM_ENABLE_DMA(htim, TIM_DMA_CC1);
1808:Drivers/STM32F3xx_HAL_Driver/Src/stm32f3xx_hal_tim.c ****     }
1809:Drivers/STM32F3xx_HAL_Driver/Src/stm32f3xx_hal_tim.c ****     break;
1810:Drivers/STM32F3xx_HAL_Driver/Src/stm32f3xx_hal_tim.c ****     
1811:Drivers/STM32F3xx_HAL_Driver/Src/stm32f3xx_hal_tim.c ****     case TIM_CHANNEL_2:
1812:Drivers/STM32F3xx_HAL_Driver/Src/stm32f3xx_hal_tim.c ****     {
1813:Drivers/STM32F3xx_HAL_Driver/Src/stm32f3xx_hal_tim.c ****       /* Set the DMA Period elapsed callback */
1814:Drivers/STM32F3xx_HAL_Driver/Src/stm32f3xx_hal_tim.c ****       htim->hdma[TIM_DMA_ID_CC2]->XferCpltCallback = TIM_DMACaptureCplt;
1815:Drivers/STM32F3xx_HAL_Driver/Src/stm32f3xx_hal_tim.c ****      
1816:Drivers/STM32F3xx_HAL_Driver/Src/stm32f3xx_hal_tim.c ****       /* Set the DMA error callback */
1817:Drivers/STM32F3xx_HAL_Driver/Src/stm32f3xx_hal_tim.c ****       htim->hdma[TIM_DMA_ID_CC2]->XferErrorCallback = TIM_DMAError ;
1818:Drivers/STM32F3xx_HAL_Driver/Src/stm32f3xx_hal_tim.c ****       
1819:Drivers/STM32F3xx_HAL_Driver/Src/stm32f3xx_hal_tim.c ****       /* Enable the DMA channel */
1820:Drivers/STM32F3xx_HAL_Driver/Src/stm32f3xx_hal_tim.c ****       HAL_DMA_Start_IT(htim->hdma[TIM_DMA_ID_CC2], (uint32_t)&htim->Instance->CCR2, (uint32_t)pData
1821:Drivers/STM32F3xx_HAL_Driver/Src/stm32f3xx_hal_tim.c ****       
1822:Drivers/STM32F3xx_HAL_Driver/Src/stm32f3xx_hal_tim.c ****       /* Enable the TIM Capture/Compare 2  DMA request */
1823:Drivers/STM32F3xx_HAL_Driver/Src/stm32f3xx_hal_tim.c ****       __HAL_TIM_ENABLE_DMA(htim, TIM_DMA_CC2);
1824:Drivers/STM32F3xx_HAL_Driver/Src/stm32f3xx_hal_tim.c ****     }
1825:Drivers/STM32F3xx_HAL_Driver/Src/stm32f3xx_hal_tim.c ****     break;
1826:Drivers/STM32F3xx_HAL_Driver/Src/stm32f3xx_hal_tim.c ****     
1827:Drivers/STM32F3xx_HAL_Driver/Src/stm32f3xx_hal_tim.c ****     case TIM_CHANNEL_3:
1828:Drivers/STM32F3xx_HAL_Driver/Src/stm32f3xx_hal_tim.c ****     {
1829:Drivers/STM32F3xx_HAL_Driver/Src/stm32f3xx_hal_tim.c ****       /* Set the DMA Period elapsed callback */
1830:Drivers/STM32F3xx_HAL_Driver/Src/stm32f3xx_hal_tim.c ****       htim->hdma[TIM_DMA_ID_CC3]->XferCpltCallback = TIM_DMACaptureCplt;
1831:Drivers/STM32F3xx_HAL_Driver/Src/stm32f3xx_hal_tim.c ****      
1832:Drivers/STM32F3xx_HAL_Driver/Src/stm32f3xx_hal_tim.c ****       /* Set the DMA error callback */
1833:Drivers/STM32F3xx_HAL_Driver/Src/stm32f3xx_hal_tim.c ****       htim->hdma[TIM_DMA_ID_CC3]->XferErrorCallback = TIM_DMAError ;
1834:Drivers/STM32F3xx_HAL_Driver/Src/stm32f3xx_hal_tim.c ****       
1835:Drivers/STM32F3xx_HAL_Driver/Src/stm32f3xx_hal_tim.c ****       /* Enable the DMA channel */
1836:Drivers/STM32F3xx_HAL_Driver/Src/stm32f3xx_hal_tim.c ****       HAL_DMA_Start_IT(htim->hdma[TIM_DMA_ID_CC3], (uint32_t)&htim->Instance->CCR3, (uint32_t)pData
1837:Drivers/STM32F3xx_HAL_Driver/Src/stm32f3xx_hal_tim.c ****       
1838:Drivers/STM32F3xx_HAL_Driver/Src/stm32f3xx_hal_tim.c ****       /* Enable the TIM Capture/Compare 3  DMA request */
ARM GAS  /tmp/ccuQngBj.s 			page 35


1839:Drivers/STM32F3xx_HAL_Driver/Src/stm32f3xx_hal_tim.c ****       __HAL_TIM_ENABLE_DMA(htim, TIM_DMA_CC3);
1840:Drivers/STM32F3xx_HAL_Driver/Src/stm32f3xx_hal_tim.c ****     }
1841:Drivers/STM32F3xx_HAL_Driver/Src/stm32f3xx_hal_tim.c ****     break;
1842:Drivers/STM32F3xx_HAL_Driver/Src/stm32f3xx_hal_tim.c ****     
1843:Drivers/STM32F3xx_HAL_Driver/Src/stm32f3xx_hal_tim.c ****     case TIM_CHANNEL_4:
1844:Drivers/STM32F3xx_HAL_Driver/Src/stm32f3xx_hal_tim.c ****     {
1845:Drivers/STM32F3xx_HAL_Driver/Src/stm32f3xx_hal_tim.c ****       /* Set the DMA Period elapsed callback */
1846:Drivers/STM32F3xx_HAL_Driver/Src/stm32f3xx_hal_tim.c ****       htim->hdma[TIM_DMA_ID_CC4]->XferCpltCallback = TIM_DMACaptureCplt;
1847:Drivers/STM32F3xx_HAL_Driver/Src/stm32f3xx_hal_tim.c ****      
1848:Drivers/STM32F3xx_HAL_Driver/Src/stm32f3xx_hal_tim.c ****       /* Set the DMA error callback */
1849:Drivers/STM32F3xx_HAL_Driver/Src/stm32f3xx_hal_tim.c ****       htim->hdma[TIM_DMA_ID_CC4]->XferErrorCallback = TIM_DMAError ;
1850:Drivers/STM32F3xx_HAL_Driver/Src/stm32f3xx_hal_tim.c ****       
1851:Drivers/STM32F3xx_HAL_Driver/Src/stm32f3xx_hal_tim.c ****       /* Enable the DMA channel */
1852:Drivers/STM32F3xx_HAL_Driver/Src/stm32f3xx_hal_tim.c ****       HAL_DMA_Start_IT(htim->hdma[TIM_DMA_ID_CC4], (uint32_t)&htim->Instance->CCR4, (uint32_t)pData
1853:Drivers/STM32F3xx_HAL_Driver/Src/stm32f3xx_hal_tim.c ****       
1854:Drivers/STM32F3xx_HAL_Driver/Src/stm32f3xx_hal_tim.c ****       /* Enable the TIM Capture/Compare 4  DMA request */
1855:Drivers/STM32F3xx_HAL_Driver/Src/stm32f3xx_hal_tim.c ****       __HAL_TIM_ENABLE_DMA(htim, TIM_DMA_CC4);
1856:Drivers/STM32F3xx_HAL_Driver/Src/stm32f3xx_hal_tim.c ****     }
1857:Drivers/STM32F3xx_HAL_Driver/Src/stm32f3xx_hal_tim.c ****     break;
1858:Drivers/STM32F3xx_HAL_Driver/Src/stm32f3xx_hal_tim.c ****     
1859:Drivers/STM32F3xx_HAL_Driver/Src/stm32f3xx_hal_tim.c ****     default:
1860:Drivers/STM32F3xx_HAL_Driver/Src/stm32f3xx_hal_tim.c ****     break;
1861:Drivers/STM32F3xx_HAL_Driver/Src/stm32f3xx_hal_tim.c ****   }
1862:Drivers/STM32F3xx_HAL_Driver/Src/stm32f3xx_hal_tim.c **** 
1863:Drivers/STM32F3xx_HAL_Driver/Src/stm32f3xx_hal_tim.c ****   /* Enable the Input Capture channel */
1864:Drivers/STM32F3xx_HAL_Driver/Src/stm32f3xx_hal_tim.c ****   TIM_CCxChannelCmd(htim->Instance, Channel, TIM_CCx_ENABLE);
1865:Drivers/STM32F3xx_HAL_Driver/Src/stm32f3xx_hal_tim.c ****    
1866:Drivers/STM32F3xx_HAL_Driver/Src/stm32f3xx_hal_tim.c ****   /* Enable the Peripheral */
1867:Drivers/STM32F3xx_HAL_Driver/Src/stm32f3xx_hal_tim.c ****   __HAL_TIM_ENABLE(htim); 
1868:Drivers/STM32F3xx_HAL_Driver/Src/stm32f3xx_hal_tim.c ****   
1869:Drivers/STM32F3xx_HAL_Driver/Src/stm32f3xx_hal_tim.c ****   /* Return function status */
1870:Drivers/STM32F3xx_HAL_Driver/Src/stm32f3xx_hal_tim.c ****   return HAL_OK;
1871:Drivers/STM32F3xx_HAL_Driver/Src/stm32f3xx_hal_tim.c **** }
1872:Drivers/STM32F3xx_HAL_Driver/Src/stm32f3xx_hal_tim.c **** 
1873:Drivers/STM32F3xx_HAL_Driver/Src/stm32f3xx_hal_tim.c **** /**
1874:Drivers/STM32F3xx_HAL_Driver/Src/stm32f3xx_hal_tim.c ****   * @brief  Stops the TIM Input Capture measurement in DMA mode.
1875:Drivers/STM32F3xx_HAL_Driver/Src/stm32f3xx_hal_tim.c ****   * @param  htim TIM Input Capture handle
1876:Drivers/STM32F3xx_HAL_Driver/Src/stm32f3xx_hal_tim.c ****   * @param  Channel TIM Channels to be disabled
1877:Drivers/STM32F3xx_HAL_Driver/Src/stm32f3xx_hal_tim.c ****   *          This parameter can be one of the following values:
1878:Drivers/STM32F3xx_HAL_Driver/Src/stm32f3xx_hal_tim.c ****   *            @arg TIM_CHANNEL_1: TIM Channel 1 selected
1879:Drivers/STM32F3xx_HAL_Driver/Src/stm32f3xx_hal_tim.c ****   *            @arg TIM_CHANNEL_2: TIM Channel 2 selected
1880:Drivers/STM32F3xx_HAL_Driver/Src/stm32f3xx_hal_tim.c ****   *            @arg TIM_CHANNEL_3: TIM Channel 3 selected
1881:Drivers/STM32F3xx_HAL_Driver/Src/stm32f3xx_hal_tim.c ****   *            @arg TIM_CHANNEL_4: TIM Channel 4 selected
1882:Drivers/STM32F3xx_HAL_Driver/Src/stm32f3xx_hal_tim.c ****   * @retval HAL status
1883:Drivers/STM32F3xx_HAL_Driver/Src/stm32f3xx_hal_tim.c **** */
1884:Drivers/STM32F3xx_HAL_Driver/Src/stm32f3xx_hal_tim.c **** HAL_StatusTypeDef HAL_TIM_IC_Stop_DMA(TIM_HandleTypeDef *htim, uint32_t Channel)
1885:Drivers/STM32F3xx_HAL_Driver/Src/stm32f3xx_hal_tim.c **** {
1886:Drivers/STM32F3xx_HAL_Driver/Src/stm32f3xx_hal_tim.c ****   /* Check the parameters */
1887:Drivers/STM32F3xx_HAL_Driver/Src/stm32f3xx_hal_tim.c ****   assert_param(IS_TIM_CCX_INSTANCE(htim->Instance, Channel));
1888:Drivers/STM32F3xx_HAL_Driver/Src/stm32f3xx_hal_tim.c ****   assert_param(IS_TIM_DMA_CC_INSTANCE(htim->Instance));
1889:Drivers/STM32F3xx_HAL_Driver/Src/stm32f3xx_hal_tim.c ****   
1890:Drivers/STM32F3xx_HAL_Driver/Src/stm32f3xx_hal_tim.c ****   switch (Channel)
1891:Drivers/STM32F3xx_HAL_Driver/Src/stm32f3xx_hal_tim.c ****   {
1892:Drivers/STM32F3xx_HAL_Driver/Src/stm32f3xx_hal_tim.c ****     case TIM_CHANNEL_1:
1893:Drivers/STM32F3xx_HAL_Driver/Src/stm32f3xx_hal_tim.c ****     {       
1894:Drivers/STM32F3xx_HAL_Driver/Src/stm32f3xx_hal_tim.c ****       /* Disable the TIM Capture/Compare 1 DMA request */
1895:Drivers/STM32F3xx_HAL_Driver/Src/stm32f3xx_hal_tim.c ****       __HAL_TIM_DISABLE_DMA(htim, TIM_DMA_CC1);
ARM GAS  /tmp/ccuQngBj.s 			page 36


1896:Drivers/STM32F3xx_HAL_Driver/Src/stm32f3xx_hal_tim.c ****     }
1897:Drivers/STM32F3xx_HAL_Driver/Src/stm32f3xx_hal_tim.c ****     break;
1898:Drivers/STM32F3xx_HAL_Driver/Src/stm32f3xx_hal_tim.c ****     
1899:Drivers/STM32F3xx_HAL_Driver/Src/stm32f3xx_hal_tim.c ****     case TIM_CHANNEL_2:
1900:Drivers/STM32F3xx_HAL_Driver/Src/stm32f3xx_hal_tim.c ****     {
1901:Drivers/STM32F3xx_HAL_Driver/Src/stm32f3xx_hal_tim.c ****       /* Disable the TIM Capture/Compare 2 DMA request */
1902:Drivers/STM32F3xx_HAL_Driver/Src/stm32f3xx_hal_tim.c ****       __HAL_TIM_DISABLE_DMA(htim, TIM_DMA_CC2);
1903:Drivers/STM32F3xx_HAL_Driver/Src/stm32f3xx_hal_tim.c ****     }
1904:Drivers/STM32F3xx_HAL_Driver/Src/stm32f3xx_hal_tim.c ****     break;
1905:Drivers/STM32F3xx_HAL_Driver/Src/stm32f3xx_hal_tim.c ****     
1906:Drivers/STM32F3xx_HAL_Driver/Src/stm32f3xx_hal_tim.c ****     case TIM_CHANNEL_3:
1907:Drivers/STM32F3xx_HAL_Driver/Src/stm32f3xx_hal_tim.c ****     {
1908:Drivers/STM32F3xx_HAL_Driver/Src/stm32f3xx_hal_tim.c ****       /* Disable the TIM Capture/Compare 3  DMA request */
1909:Drivers/STM32F3xx_HAL_Driver/Src/stm32f3xx_hal_tim.c ****       __HAL_TIM_DISABLE_DMA(htim, TIM_DMA_CC3);
1910:Drivers/STM32F3xx_HAL_Driver/Src/stm32f3xx_hal_tim.c ****     }
1911:Drivers/STM32F3xx_HAL_Driver/Src/stm32f3xx_hal_tim.c ****     break;
1912:Drivers/STM32F3xx_HAL_Driver/Src/stm32f3xx_hal_tim.c ****     
1913:Drivers/STM32F3xx_HAL_Driver/Src/stm32f3xx_hal_tim.c ****     case TIM_CHANNEL_4:
1914:Drivers/STM32F3xx_HAL_Driver/Src/stm32f3xx_hal_tim.c ****     {
1915:Drivers/STM32F3xx_HAL_Driver/Src/stm32f3xx_hal_tim.c ****       /* Disable the TIM Capture/Compare 4  DMA request */
1916:Drivers/STM32F3xx_HAL_Driver/Src/stm32f3xx_hal_tim.c ****       __HAL_TIM_DISABLE_DMA(htim, TIM_DMA_CC4);
1917:Drivers/STM32F3xx_HAL_Driver/Src/stm32f3xx_hal_tim.c ****     }
1918:Drivers/STM32F3xx_HAL_Driver/Src/stm32f3xx_hal_tim.c ****     break;
1919:Drivers/STM32F3xx_HAL_Driver/Src/stm32f3xx_hal_tim.c ****     
1920:Drivers/STM32F3xx_HAL_Driver/Src/stm32f3xx_hal_tim.c ****     default:
1921:Drivers/STM32F3xx_HAL_Driver/Src/stm32f3xx_hal_tim.c ****     break;
1922:Drivers/STM32F3xx_HAL_Driver/Src/stm32f3xx_hal_tim.c ****   }
1923:Drivers/STM32F3xx_HAL_Driver/Src/stm32f3xx_hal_tim.c **** 
1924:Drivers/STM32F3xx_HAL_Driver/Src/stm32f3xx_hal_tim.c ****   /* Disable the Input Capture channel */
1925:Drivers/STM32F3xx_HAL_Driver/Src/stm32f3xx_hal_tim.c ****   TIM_CCxChannelCmd(htim->Instance, Channel, TIM_CCx_DISABLE);
1926:Drivers/STM32F3xx_HAL_Driver/Src/stm32f3xx_hal_tim.c ****   
1927:Drivers/STM32F3xx_HAL_Driver/Src/stm32f3xx_hal_tim.c ****   /* Disable the Peripheral */
1928:Drivers/STM32F3xx_HAL_Driver/Src/stm32f3xx_hal_tim.c ****   __HAL_TIM_DISABLE(htim); 
1929:Drivers/STM32F3xx_HAL_Driver/Src/stm32f3xx_hal_tim.c ****   
1930:Drivers/STM32F3xx_HAL_Driver/Src/stm32f3xx_hal_tim.c ****   /* Change the htim state */
1931:Drivers/STM32F3xx_HAL_Driver/Src/stm32f3xx_hal_tim.c ****   htim->State = HAL_TIM_STATE_READY;
1932:Drivers/STM32F3xx_HAL_Driver/Src/stm32f3xx_hal_tim.c ****   
1933:Drivers/STM32F3xx_HAL_Driver/Src/stm32f3xx_hal_tim.c ****   /* Return function status */
1934:Drivers/STM32F3xx_HAL_Driver/Src/stm32f3xx_hal_tim.c ****   return HAL_OK;
1935:Drivers/STM32F3xx_HAL_Driver/Src/stm32f3xx_hal_tim.c **** }
1936:Drivers/STM32F3xx_HAL_Driver/Src/stm32f3xx_hal_tim.c **** /**
1937:Drivers/STM32F3xx_HAL_Driver/Src/stm32f3xx_hal_tim.c ****   * @}
1938:Drivers/STM32F3xx_HAL_Driver/Src/stm32f3xx_hal_tim.c ****   */
1939:Drivers/STM32F3xx_HAL_Driver/Src/stm32f3xx_hal_tim.c **** 
1940:Drivers/STM32F3xx_HAL_Driver/Src/stm32f3xx_hal_tim.c **** /** @defgroup TIM_Exported_Functions_Group5 Time One Pulse functions 
1941:Drivers/STM32F3xx_HAL_Driver/Src/stm32f3xx_hal_tim.c ****  *  @brief    Time One Pulse functions 
1942:Drivers/STM32F3xx_HAL_Driver/Src/stm32f3xx_hal_tim.c ****  *
1943:Drivers/STM32F3xx_HAL_Driver/Src/stm32f3xx_hal_tim.c **** @verbatim    
1944:Drivers/STM32F3xx_HAL_Driver/Src/stm32f3xx_hal_tim.c ****   ==============================================================================
1945:Drivers/STM32F3xx_HAL_Driver/Src/stm32f3xx_hal_tim.c ****                         ##### Time One Pulse functions #####
1946:Drivers/STM32F3xx_HAL_Driver/Src/stm32f3xx_hal_tim.c ****   ==============================================================================
1947:Drivers/STM32F3xx_HAL_Driver/Src/stm32f3xx_hal_tim.c ****   [..]  
1948:Drivers/STM32F3xx_HAL_Driver/Src/stm32f3xx_hal_tim.c ****     This section provides functions allowing to:
1949:Drivers/STM32F3xx_HAL_Driver/Src/stm32f3xx_hal_tim.c ****     (+) Initialize and configure the TIM One Pulse. 
1950:Drivers/STM32F3xx_HAL_Driver/Src/stm32f3xx_hal_tim.c ****     (+) De-initialize the TIM One Pulse.
1951:Drivers/STM32F3xx_HAL_Driver/Src/stm32f3xx_hal_tim.c ****     (+) Start the Time One Pulse.
1952:Drivers/STM32F3xx_HAL_Driver/Src/stm32f3xx_hal_tim.c ****     (+) Stop the Time One Pulse.
ARM GAS  /tmp/ccuQngBj.s 			page 37


1953:Drivers/STM32F3xx_HAL_Driver/Src/stm32f3xx_hal_tim.c ****     (+) Start the Time One Pulse and enable interrupt.
1954:Drivers/STM32F3xx_HAL_Driver/Src/stm32f3xx_hal_tim.c ****     (+) Stop the Time One Pulse and disable interrupt.
1955:Drivers/STM32F3xx_HAL_Driver/Src/stm32f3xx_hal_tim.c ****     (+) Start the Time One Pulse and enable DMA transfer.
1956:Drivers/STM32F3xx_HAL_Driver/Src/stm32f3xx_hal_tim.c ****     (+) Stop the Time One Pulse and disable DMA transfer.
1957:Drivers/STM32F3xx_HAL_Driver/Src/stm32f3xx_hal_tim.c ****  
1958:Drivers/STM32F3xx_HAL_Driver/Src/stm32f3xx_hal_tim.c **** @endverbatim
1959:Drivers/STM32F3xx_HAL_Driver/Src/stm32f3xx_hal_tim.c ****   * @{
1960:Drivers/STM32F3xx_HAL_Driver/Src/stm32f3xx_hal_tim.c ****   */
1961:Drivers/STM32F3xx_HAL_Driver/Src/stm32f3xx_hal_tim.c **** /**
1962:Drivers/STM32F3xx_HAL_Driver/Src/stm32f3xx_hal_tim.c ****   * @brief  Initializes the TIM One Pulse Time Base according to the specified
1963:Drivers/STM32F3xx_HAL_Driver/Src/stm32f3xx_hal_tim.c ****   *         parameters in the TIM_HandleTypeDef and create the associated handle.
1964:Drivers/STM32F3xx_HAL_Driver/Src/stm32f3xx_hal_tim.c ****   * @param  htim TIM OnePulse handle
1965:Drivers/STM32F3xx_HAL_Driver/Src/stm32f3xx_hal_tim.c ****   * @param  OnePulseMode Select the One pulse mode.
1966:Drivers/STM32F3xx_HAL_Driver/Src/stm32f3xx_hal_tim.c ****   *         This parameter can be one of the following values:
1967:Drivers/STM32F3xx_HAL_Driver/Src/stm32f3xx_hal_tim.c ****   *            @arg TIM_OPMODE_SINGLE: Only one pulse will be generated.
1968:Drivers/STM32F3xx_HAL_Driver/Src/stm32f3xx_hal_tim.c ****   *            @arg TIM_OPMODE_REPETITIVE: Repetitive pulses wil be generated.
1969:Drivers/STM32F3xx_HAL_Driver/Src/stm32f3xx_hal_tim.c ****   * @retval HAL status
1970:Drivers/STM32F3xx_HAL_Driver/Src/stm32f3xx_hal_tim.c ****   */
1971:Drivers/STM32F3xx_HAL_Driver/Src/stm32f3xx_hal_tim.c **** HAL_StatusTypeDef HAL_TIM_OnePulse_Init(TIM_HandleTypeDef *htim, uint32_t OnePulseMode)
1972:Drivers/STM32F3xx_HAL_Driver/Src/stm32f3xx_hal_tim.c **** {
1973:Drivers/STM32F3xx_HAL_Driver/Src/stm32f3xx_hal_tim.c ****   /* Check the TIM handle allocation */
1974:Drivers/STM32F3xx_HAL_Driver/Src/stm32f3xx_hal_tim.c ****   if(htim == NULL)
1975:Drivers/STM32F3xx_HAL_Driver/Src/stm32f3xx_hal_tim.c ****   {
1976:Drivers/STM32F3xx_HAL_Driver/Src/stm32f3xx_hal_tim.c ****     return HAL_ERROR;
1977:Drivers/STM32F3xx_HAL_Driver/Src/stm32f3xx_hal_tim.c ****   }
1978:Drivers/STM32F3xx_HAL_Driver/Src/stm32f3xx_hal_tim.c **** 
1979:Drivers/STM32F3xx_HAL_Driver/Src/stm32f3xx_hal_tim.c ****   /* Check the parameters */
1980:Drivers/STM32F3xx_HAL_Driver/Src/stm32f3xx_hal_tim.c ****   assert_param(IS_TIM_INSTANCE(htim->Instance));
1981:Drivers/STM32F3xx_HAL_Driver/Src/stm32f3xx_hal_tim.c ****   assert_param(IS_TIM_COUNTER_MODE(htim->Init.CounterMode));
1982:Drivers/STM32F3xx_HAL_Driver/Src/stm32f3xx_hal_tim.c ****   assert_param(IS_TIM_CLOCKDIVISION_DIV(htim->Init.ClockDivision));
1983:Drivers/STM32F3xx_HAL_Driver/Src/stm32f3xx_hal_tim.c ****   assert_param(IS_TIM_OPM_MODE(OnePulseMode));
1984:Drivers/STM32F3xx_HAL_Driver/Src/stm32f3xx_hal_tim.c ****   assert_param(IS_TIM_AUTORELOAD_PRELOAD(htim->Init.AutoReloadPreload));
1985:Drivers/STM32F3xx_HAL_Driver/Src/stm32f3xx_hal_tim.c **** 
1986:Drivers/STM32F3xx_HAL_Driver/Src/stm32f3xx_hal_tim.c ****   if(htim->State == HAL_TIM_STATE_RESET)
1987:Drivers/STM32F3xx_HAL_Driver/Src/stm32f3xx_hal_tim.c ****   {   
1988:Drivers/STM32F3xx_HAL_Driver/Src/stm32f3xx_hal_tim.c ****     /* Allocate lock resource and initialize it */
1989:Drivers/STM32F3xx_HAL_Driver/Src/stm32f3xx_hal_tim.c ****     htim->Lock = HAL_UNLOCKED;
1990:Drivers/STM32F3xx_HAL_Driver/Src/stm32f3xx_hal_tim.c ****     
1991:Drivers/STM32F3xx_HAL_Driver/Src/stm32f3xx_hal_tim.c ****     /* Init the low level hardware : GPIO, CLOCK, NVIC and DMA */
1992:Drivers/STM32F3xx_HAL_Driver/Src/stm32f3xx_hal_tim.c ****     HAL_TIM_OnePulse_MspInit(htim);
1993:Drivers/STM32F3xx_HAL_Driver/Src/stm32f3xx_hal_tim.c ****   }
1994:Drivers/STM32F3xx_HAL_Driver/Src/stm32f3xx_hal_tim.c ****   
1995:Drivers/STM32F3xx_HAL_Driver/Src/stm32f3xx_hal_tim.c ****   /* Set the TIM state */
1996:Drivers/STM32F3xx_HAL_Driver/Src/stm32f3xx_hal_tim.c ****   htim->State= HAL_TIM_STATE_BUSY;
1997:Drivers/STM32F3xx_HAL_Driver/Src/stm32f3xx_hal_tim.c ****   
1998:Drivers/STM32F3xx_HAL_Driver/Src/stm32f3xx_hal_tim.c ****   /* Configure the Time base in the One Pulse Mode */
1999:Drivers/STM32F3xx_HAL_Driver/Src/stm32f3xx_hal_tim.c ****   TIM_Base_SetConfig(htim->Instance, &htim->Init);
2000:Drivers/STM32F3xx_HAL_Driver/Src/stm32f3xx_hal_tim.c ****   
2001:Drivers/STM32F3xx_HAL_Driver/Src/stm32f3xx_hal_tim.c ****   /* Reset the OPM Bit */
2002:Drivers/STM32F3xx_HAL_Driver/Src/stm32f3xx_hal_tim.c ****   htim->Instance->CR1 &= ~TIM_CR1_OPM;
2003:Drivers/STM32F3xx_HAL_Driver/Src/stm32f3xx_hal_tim.c **** 
2004:Drivers/STM32F3xx_HAL_Driver/Src/stm32f3xx_hal_tim.c ****   /* Configure the OPM Mode */
2005:Drivers/STM32F3xx_HAL_Driver/Src/stm32f3xx_hal_tim.c ****   htim->Instance->CR1 |= OnePulseMode;
2006:Drivers/STM32F3xx_HAL_Driver/Src/stm32f3xx_hal_tim.c ****    
2007:Drivers/STM32F3xx_HAL_Driver/Src/stm32f3xx_hal_tim.c ****   /* Initialize the TIM state*/
2008:Drivers/STM32F3xx_HAL_Driver/Src/stm32f3xx_hal_tim.c ****   htim->State= HAL_TIM_STATE_READY;
2009:Drivers/STM32F3xx_HAL_Driver/Src/stm32f3xx_hal_tim.c ****   
ARM GAS  /tmp/ccuQngBj.s 			page 38


2010:Drivers/STM32F3xx_HAL_Driver/Src/stm32f3xx_hal_tim.c ****   return HAL_OK;
2011:Drivers/STM32F3xx_HAL_Driver/Src/stm32f3xx_hal_tim.c **** }
2012:Drivers/STM32F3xx_HAL_Driver/Src/stm32f3xx_hal_tim.c **** 
2013:Drivers/STM32F3xx_HAL_Driver/Src/stm32f3xx_hal_tim.c **** /**
2014:Drivers/STM32F3xx_HAL_Driver/Src/stm32f3xx_hal_tim.c ****   * @brief  DeInitializes the TIM One Pulse  
2015:Drivers/STM32F3xx_HAL_Driver/Src/stm32f3xx_hal_tim.c ****   * @param  htim TIM One Pulse handle
2016:Drivers/STM32F3xx_HAL_Driver/Src/stm32f3xx_hal_tim.c ****   * @retval HAL status
2017:Drivers/STM32F3xx_HAL_Driver/Src/stm32f3xx_hal_tim.c ****   */
2018:Drivers/STM32F3xx_HAL_Driver/Src/stm32f3xx_hal_tim.c **** HAL_StatusTypeDef HAL_TIM_OnePulse_DeInit(TIM_HandleTypeDef *htim)
2019:Drivers/STM32F3xx_HAL_Driver/Src/stm32f3xx_hal_tim.c **** {
2020:Drivers/STM32F3xx_HAL_Driver/Src/stm32f3xx_hal_tim.c ****   /* Check the parameters */
2021:Drivers/STM32F3xx_HAL_Driver/Src/stm32f3xx_hal_tim.c ****   assert_param(IS_TIM_INSTANCE(htim->Instance));
2022:Drivers/STM32F3xx_HAL_Driver/Src/stm32f3xx_hal_tim.c ****   
2023:Drivers/STM32F3xx_HAL_Driver/Src/stm32f3xx_hal_tim.c ****   htim->State = HAL_TIM_STATE_BUSY;
2024:Drivers/STM32F3xx_HAL_Driver/Src/stm32f3xx_hal_tim.c ****   
2025:Drivers/STM32F3xx_HAL_Driver/Src/stm32f3xx_hal_tim.c ****   /* Disable the TIM Peripheral Clock */
2026:Drivers/STM32F3xx_HAL_Driver/Src/stm32f3xx_hal_tim.c ****   __HAL_TIM_DISABLE(htim);
2027:Drivers/STM32F3xx_HAL_Driver/Src/stm32f3xx_hal_tim.c ****   
2028:Drivers/STM32F3xx_HAL_Driver/Src/stm32f3xx_hal_tim.c ****   /* DeInit the low level hardware: GPIO, CLOCK, NVIC */
2029:Drivers/STM32F3xx_HAL_Driver/Src/stm32f3xx_hal_tim.c ****   HAL_TIM_OnePulse_MspDeInit(htim);
2030:Drivers/STM32F3xx_HAL_Driver/Src/stm32f3xx_hal_tim.c ****     
2031:Drivers/STM32F3xx_HAL_Driver/Src/stm32f3xx_hal_tim.c ****   /* Change TIM state */  
2032:Drivers/STM32F3xx_HAL_Driver/Src/stm32f3xx_hal_tim.c ****   htim->State = HAL_TIM_STATE_RESET; 
2033:Drivers/STM32F3xx_HAL_Driver/Src/stm32f3xx_hal_tim.c ****   
2034:Drivers/STM32F3xx_HAL_Driver/Src/stm32f3xx_hal_tim.c ****   /* Release Lock */
2035:Drivers/STM32F3xx_HAL_Driver/Src/stm32f3xx_hal_tim.c ****   __HAL_UNLOCK(htim);
2036:Drivers/STM32F3xx_HAL_Driver/Src/stm32f3xx_hal_tim.c **** 
2037:Drivers/STM32F3xx_HAL_Driver/Src/stm32f3xx_hal_tim.c ****   return HAL_OK;
2038:Drivers/STM32F3xx_HAL_Driver/Src/stm32f3xx_hal_tim.c **** }
2039:Drivers/STM32F3xx_HAL_Driver/Src/stm32f3xx_hal_tim.c **** 
2040:Drivers/STM32F3xx_HAL_Driver/Src/stm32f3xx_hal_tim.c **** /**
2041:Drivers/STM32F3xx_HAL_Driver/Src/stm32f3xx_hal_tim.c ****   * @brief  Initializes the TIM One Pulse MSP.
2042:Drivers/STM32F3xx_HAL_Driver/Src/stm32f3xx_hal_tim.c ****   * @param  htim TIM handle
2043:Drivers/STM32F3xx_HAL_Driver/Src/stm32f3xx_hal_tim.c ****   * @retval None
2044:Drivers/STM32F3xx_HAL_Driver/Src/stm32f3xx_hal_tim.c ****   */
2045:Drivers/STM32F3xx_HAL_Driver/Src/stm32f3xx_hal_tim.c **** __weak void HAL_TIM_OnePulse_MspInit(TIM_HandleTypeDef *htim)
2046:Drivers/STM32F3xx_HAL_Driver/Src/stm32f3xx_hal_tim.c **** {
2047:Drivers/STM32F3xx_HAL_Driver/Src/stm32f3xx_hal_tim.c ****   /* Prevent unused argument(s) compilation warning */
2048:Drivers/STM32F3xx_HAL_Driver/Src/stm32f3xx_hal_tim.c ****   UNUSED(htim);
2049:Drivers/STM32F3xx_HAL_Driver/Src/stm32f3xx_hal_tim.c **** 
2050:Drivers/STM32F3xx_HAL_Driver/Src/stm32f3xx_hal_tim.c ****   /* NOTE : This function Should not be modified, when the callback is needed,
2051:Drivers/STM32F3xx_HAL_Driver/Src/stm32f3xx_hal_tim.c ****             the HAL_TIM_OnePulse_MspInit could be implemented in the user file
2052:Drivers/STM32F3xx_HAL_Driver/Src/stm32f3xx_hal_tim.c ****    */
2053:Drivers/STM32F3xx_HAL_Driver/Src/stm32f3xx_hal_tim.c **** }
2054:Drivers/STM32F3xx_HAL_Driver/Src/stm32f3xx_hal_tim.c **** 
2055:Drivers/STM32F3xx_HAL_Driver/Src/stm32f3xx_hal_tim.c **** /**
2056:Drivers/STM32F3xx_HAL_Driver/Src/stm32f3xx_hal_tim.c ****   * @brief  DeInitializes TIM One Pulse MSP.
2057:Drivers/STM32F3xx_HAL_Driver/Src/stm32f3xx_hal_tim.c ****   * @param  htim TIM handle
2058:Drivers/STM32F3xx_HAL_Driver/Src/stm32f3xx_hal_tim.c ****   * @retval None
2059:Drivers/STM32F3xx_HAL_Driver/Src/stm32f3xx_hal_tim.c ****   */
2060:Drivers/STM32F3xx_HAL_Driver/Src/stm32f3xx_hal_tim.c **** __weak void HAL_TIM_OnePulse_MspDeInit(TIM_HandleTypeDef *htim)
2061:Drivers/STM32F3xx_HAL_Driver/Src/stm32f3xx_hal_tim.c **** {
2062:Drivers/STM32F3xx_HAL_Driver/Src/stm32f3xx_hal_tim.c ****   /* Prevent unused argument(s) compilation warning */
2063:Drivers/STM32F3xx_HAL_Driver/Src/stm32f3xx_hal_tim.c ****   UNUSED(htim);
2064:Drivers/STM32F3xx_HAL_Driver/Src/stm32f3xx_hal_tim.c **** 
2065:Drivers/STM32F3xx_HAL_Driver/Src/stm32f3xx_hal_tim.c ****   /* NOTE : This function Should not be modified, when the callback is needed,
2066:Drivers/STM32F3xx_HAL_Driver/Src/stm32f3xx_hal_tim.c ****             the HAL_TIM_OnePulse_MspDeInit could be implemented in the user file
ARM GAS  /tmp/ccuQngBj.s 			page 39


2067:Drivers/STM32F3xx_HAL_Driver/Src/stm32f3xx_hal_tim.c ****    */
2068:Drivers/STM32F3xx_HAL_Driver/Src/stm32f3xx_hal_tim.c **** }
2069:Drivers/STM32F3xx_HAL_Driver/Src/stm32f3xx_hal_tim.c **** 
2070:Drivers/STM32F3xx_HAL_Driver/Src/stm32f3xx_hal_tim.c **** /**
2071:Drivers/STM32F3xx_HAL_Driver/Src/stm32f3xx_hal_tim.c ****   * @brief  Starts the TIM One Pulse signal generation.
2072:Drivers/STM32F3xx_HAL_Driver/Src/stm32f3xx_hal_tim.c ****   * @param  htim TIM One Pulse handle
2073:Drivers/STM32F3xx_HAL_Driver/Src/stm32f3xx_hal_tim.c ****   * @param  OutputChannel TIM Channels to be enabled
2074:Drivers/STM32F3xx_HAL_Driver/Src/stm32f3xx_hal_tim.c ****   *          This parameter can be one of the following values:
2075:Drivers/STM32F3xx_HAL_Driver/Src/stm32f3xx_hal_tim.c ****   *            @arg TIM_CHANNEL_1: TIM Channel 1 selected
2076:Drivers/STM32F3xx_HAL_Driver/Src/stm32f3xx_hal_tim.c ****   *            @arg TIM_CHANNEL_2: TIM Channel 2 selected
2077:Drivers/STM32F3xx_HAL_Driver/Src/stm32f3xx_hal_tim.c ****   * @retval HAL status
2078:Drivers/STM32F3xx_HAL_Driver/Src/stm32f3xx_hal_tim.c **** */
2079:Drivers/STM32F3xx_HAL_Driver/Src/stm32f3xx_hal_tim.c **** HAL_StatusTypeDef HAL_TIM_OnePulse_Start(TIM_HandleTypeDef *htim, uint32_t OutputChannel)
2080:Drivers/STM32F3xx_HAL_Driver/Src/stm32f3xx_hal_tim.c **** {
2081:Drivers/STM32F3xx_HAL_Driver/Src/stm32f3xx_hal_tim.c ****   /* Enable the Capture compare and the Input Capture channels 
2082:Drivers/STM32F3xx_HAL_Driver/Src/stm32f3xx_hal_tim.c ****     (in the OPM Mode the two possible channels that can be used are TIM_CHANNEL_1 and TIM_CHANNEL_2
2083:Drivers/STM32F3xx_HAL_Driver/Src/stm32f3xx_hal_tim.c ****     if TIM_CHANNEL_1 is used as output, the TIM_CHANNEL_2 will be used as input and
2084:Drivers/STM32F3xx_HAL_Driver/Src/stm32f3xx_hal_tim.c ****     if TIM_CHANNEL_1 is used as input, the TIM_CHANNEL_2 will be used as output 
2085:Drivers/STM32F3xx_HAL_Driver/Src/stm32f3xx_hal_tim.c ****     in all combinations, the TIM_CHANNEL_1 and TIM_CHANNEL_2 should be enabled together 
2086:Drivers/STM32F3xx_HAL_Driver/Src/stm32f3xx_hal_tim.c ****     
2087:Drivers/STM32F3xx_HAL_Driver/Src/stm32f3xx_hal_tim.c ****     No need to enable the counter, it's enabled automatically by hardware 
2088:Drivers/STM32F3xx_HAL_Driver/Src/stm32f3xx_hal_tim.c ****     (the counter starts in response to a stimulus and generate a pulse */
2089:Drivers/STM32F3xx_HAL_Driver/Src/stm32f3xx_hal_tim.c ****   
2090:Drivers/STM32F3xx_HAL_Driver/Src/stm32f3xx_hal_tim.c ****   TIM_CCxChannelCmd(htim->Instance, TIM_CHANNEL_1, TIM_CCx_ENABLE); 
2091:Drivers/STM32F3xx_HAL_Driver/Src/stm32f3xx_hal_tim.c ****   TIM_CCxChannelCmd(htim->Instance, TIM_CHANNEL_2, TIM_CCx_ENABLE); 
2092:Drivers/STM32F3xx_HAL_Driver/Src/stm32f3xx_hal_tim.c ****   
2093:Drivers/STM32F3xx_HAL_Driver/Src/stm32f3xx_hal_tim.c ****   if(IS_TIM_BREAK_INSTANCE(htim->Instance) != RESET)  
2094:Drivers/STM32F3xx_HAL_Driver/Src/stm32f3xx_hal_tim.c ****   {
2095:Drivers/STM32F3xx_HAL_Driver/Src/stm32f3xx_hal_tim.c ****     /* Enable the main output */
2096:Drivers/STM32F3xx_HAL_Driver/Src/stm32f3xx_hal_tim.c ****     __HAL_TIM_MOE_ENABLE(htim);
2097:Drivers/STM32F3xx_HAL_Driver/Src/stm32f3xx_hal_tim.c ****   }
2098:Drivers/STM32F3xx_HAL_Driver/Src/stm32f3xx_hal_tim.c ****   
2099:Drivers/STM32F3xx_HAL_Driver/Src/stm32f3xx_hal_tim.c ****   /* Return function status */
2100:Drivers/STM32F3xx_HAL_Driver/Src/stm32f3xx_hal_tim.c ****   return HAL_OK;
2101:Drivers/STM32F3xx_HAL_Driver/Src/stm32f3xx_hal_tim.c **** }
2102:Drivers/STM32F3xx_HAL_Driver/Src/stm32f3xx_hal_tim.c **** 
2103:Drivers/STM32F3xx_HAL_Driver/Src/stm32f3xx_hal_tim.c **** /**
2104:Drivers/STM32F3xx_HAL_Driver/Src/stm32f3xx_hal_tim.c ****   * @brief  Stops the TIM One Pulse signal generation.
2105:Drivers/STM32F3xx_HAL_Driver/Src/stm32f3xx_hal_tim.c ****   * @param  htim TIM One Pulse handle
2106:Drivers/STM32F3xx_HAL_Driver/Src/stm32f3xx_hal_tim.c ****   * @param  OutputChannel TIM Channels to be disable
2107:Drivers/STM32F3xx_HAL_Driver/Src/stm32f3xx_hal_tim.c ****   *          This parameter can be one of the following values:
2108:Drivers/STM32F3xx_HAL_Driver/Src/stm32f3xx_hal_tim.c ****   *            @arg TIM_CHANNEL_1: TIM Channel 1 selected
2109:Drivers/STM32F3xx_HAL_Driver/Src/stm32f3xx_hal_tim.c ****   *            @arg TIM_CHANNEL_2: TIM Channel 2 selected
2110:Drivers/STM32F3xx_HAL_Driver/Src/stm32f3xx_hal_tim.c ****   * @retval HAL status
2111:Drivers/STM32F3xx_HAL_Driver/Src/stm32f3xx_hal_tim.c **** */
2112:Drivers/STM32F3xx_HAL_Driver/Src/stm32f3xx_hal_tim.c **** HAL_StatusTypeDef HAL_TIM_OnePulse_Stop(TIM_HandleTypeDef *htim, uint32_t OutputChannel)
2113:Drivers/STM32F3xx_HAL_Driver/Src/stm32f3xx_hal_tim.c **** {
2114:Drivers/STM32F3xx_HAL_Driver/Src/stm32f3xx_hal_tim.c ****   /* Disable the Capture compare and the Input Capture channels 
2115:Drivers/STM32F3xx_HAL_Driver/Src/stm32f3xx_hal_tim.c ****   (in the OPM Mode the two possible channels that can be used are TIM_CHANNEL_1 and TIM_CHANNEL_2)
2116:Drivers/STM32F3xx_HAL_Driver/Src/stm32f3xx_hal_tim.c ****   if TIM_CHANNEL_1 is used as output, the TIM_CHANNEL_2 will be used as input and
2117:Drivers/STM32F3xx_HAL_Driver/Src/stm32f3xx_hal_tim.c ****   if TIM_CHANNEL_1 is used as input, the TIM_CHANNEL_2 will be used as output 
2118:Drivers/STM32F3xx_HAL_Driver/Src/stm32f3xx_hal_tim.c ****   in all combinations, the TIM_CHANNEL_1 and TIM_CHANNEL_2 should be disabled together */
2119:Drivers/STM32F3xx_HAL_Driver/Src/stm32f3xx_hal_tim.c ****   
2120:Drivers/STM32F3xx_HAL_Driver/Src/stm32f3xx_hal_tim.c ****   TIM_CCxChannelCmd(htim->Instance, TIM_CHANNEL_1, TIM_CCx_DISABLE); 
2121:Drivers/STM32F3xx_HAL_Driver/Src/stm32f3xx_hal_tim.c ****   TIM_CCxChannelCmd(htim->Instance, TIM_CHANNEL_2, TIM_CCx_DISABLE); 
2122:Drivers/STM32F3xx_HAL_Driver/Src/stm32f3xx_hal_tim.c ****     
2123:Drivers/STM32F3xx_HAL_Driver/Src/stm32f3xx_hal_tim.c ****   if(IS_TIM_BREAK_INSTANCE(htim->Instance) != RESET)  
ARM GAS  /tmp/ccuQngBj.s 			page 40


2124:Drivers/STM32F3xx_HAL_Driver/Src/stm32f3xx_hal_tim.c ****   {
2125:Drivers/STM32F3xx_HAL_Driver/Src/stm32f3xx_hal_tim.c ****     /* Disable the Main Ouput */
2126:Drivers/STM32F3xx_HAL_Driver/Src/stm32f3xx_hal_tim.c ****     __HAL_TIM_MOE_DISABLE(htim);
2127:Drivers/STM32F3xx_HAL_Driver/Src/stm32f3xx_hal_tim.c ****   }
2128:Drivers/STM32F3xx_HAL_Driver/Src/stm32f3xx_hal_tim.c ****     
2129:Drivers/STM32F3xx_HAL_Driver/Src/stm32f3xx_hal_tim.c ****   /* Disable the Peripheral */
2130:Drivers/STM32F3xx_HAL_Driver/Src/stm32f3xx_hal_tim.c ****   __HAL_TIM_DISABLE(htim); 
2131:Drivers/STM32F3xx_HAL_Driver/Src/stm32f3xx_hal_tim.c ****   
2132:Drivers/STM32F3xx_HAL_Driver/Src/stm32f3xx_hal_tim.c ****   /* Return function status */
2133:Drivers/STM32F3xx_HAL_Driver/Src/stm32f3xx_hal_tim.c ****   return HAL_OK;
2134:Drivers/STM32F3xx_HAL_Driver/Src/stm32f3xx_hal_tim.c **** }
2135:Drivers/STM32F3xx_HAL_Driver/Src/stm32f3xx_hal_tim.c **** 
2136:Drivers/STM32F3xx_HAL_Driver/Src/stm32f3xx_hal_tim.c **** /**
2137:Drivers/STM32F3xx_HAL_Driver/Src/stm32f3xx_hal_tim.c ****   * @brief  Starts the TIM One Pulse signal generation in interrupt mode.
2138:Drivers/STM32F3xx_HAL_Driver/Src/stm32f3xx_hal_tim.c ****   * @param  htim TIM One Pulse handle
2139:Drivers/STM32F3xx_HAL_Driver/Src/stm32f3xx_hal_tim.c ****   * @param  OutputChannel TIM Channels to be enabled
2140:Drivers/STM32F3xx_HAL_Driver/Src/stm32f3xx_hal_tim.c ****   *          This parameter can be one of the following values:
2141:Drivers/STM32F3xx_HAL_Driver/Src/stm32f3xx_hal_tim.c ****   *            @arg TIM_CHANNEL_1: TIM Channel 1 selected
2142:Drivers/STM32F3xx_HAL_Driver/Src/stm32f3xx_hal_tim.c ****   *            @arg TIM_CHANNEL_2: TIM Channel 2 selected
2143:Drivers/STM32F3xx_HAL_Driver/Src/stm32f3xx_hal_tim.c ****   * @retval HAL status
2144:Drivers/STM32F3xx_HAL_Driver/Src/stm32f3xx_hal_tim.c **** */
2145:Drivers/STM32F3xx_HAL_Driver/Src/stm32f3xx_hal_tim.c **** HAL_StatusTypeDef HAL_TIM_OnePulse_Start_IT(TIM_HandleTypeDef *htim, uint32_t OutputChannel)
2146:Drivers/STM32F3xx_HAL_Driver/Src/stm32f3xx_hal_tim.c **** {
2147:Drivers/STM32F3xx_HAL_Driver/Src/stm32f3xx_hal_tim.c ****   /* Enable the Capture compare and the Input Capture channels 
2148:Drivers/STM32F3xx_HAL_Driver/Src/stm32f3xx_hal_tim.c ****     (in the OPM Mode the two possible channels that can be used are TIM_CHANNEL_1 and TIM_CHANNEL_2
2149:Drivers/STM32F3xx_HAL_Driver/Src/stm32f3xx_hal_tim.c ****     if TIM_CHANNEL_1 is used as output, the TIM_CHANNEL_2 will be used as input and
2150:Drivers/STM32F3xx_HAL_Driver/Src/stm32f3xx_hal_tim.c ****     if TIM_CHANNEL_1 is used as input, the TIM_CHANNEL_2 will be used as output 
2151:Drivers/STM32F3xx_HAL_Driver/Src/stm32f3xx_hal_tim.c ****     in all combinations, the TIM_CHANNEL_1 and TIM_CHANNEL_2 should be enabled together 
2152:Drivers/STM32F3xx_HAL_Driver/Src/stm32f3xx_hal_tim.c ****     
2153:Drivers/STM32F3xx_HAL_Driver/Src/stm32f3xx_hal_tim.c ****     No need to enable the counter, it's enabled automatically by hardware 
2154:Drivers/STM32F3xx_HAL_Driver/Src/stm32f3xx_hal_tim.c ****     (the counter starts in response to a stimulus and generate a pulse */
2155:Drivers/STM32F3xx_HAL_Driver/Src/stm32f3xx_hal_tim.c ****  
2156:Drivers/STM32F3xx_HAL_Driver/Src/stm32f3xx_hal_tim.c ****   /* Enable the TIM Capture/Compare 1 interrupt */
2157:Drivers/STM32F3xx_HAL_Driver/Src/stm32f3xx_hal_tim.c ****   __HAL_TIM_ENABLE_IT(htim, TIM_IT_CC1);
2158:Drivers/STM32F3xx_HAL_Driver/Src/stm32f3xx_hal_tim.c ****   
2159:Drivers/STM32F3xx_HAL_Driver/Src/stm32f3xx_hal_tim.c ****   /* Enable the TIM Capture/Compare 2 interrupt */
2160:Drivers/STM32F3xx_HAL_Driver/Src/stm32f3xx_hal_tim.c ****   __HAL_TIM_ENABLE_IT(htim, TIM_IT_CC2);
2161:Drivers/STM32F3xx_HAL_Driver/Src/stm32f3xx_hal_tim.c ****   
2162:Drivers/STM32F3xx_HAL_Driver/Src/stm32f3xx_hal_tim.c ****   TIM_CCxChannelCmd(htim->Instance, TIM_CHANNEL_1, TIM_CCx_ENABLE); 
2163:Drivers/STM32F3xx_HAL_Driver/Src/stm32f3xx_hal_tim.c ****   TIM_CCxChannelCmd(htim->Instance, TIM_CHANNEL_2, TIM_CCx_ENABLE); 
2164:Drivers/STM32F3xx_HAL_Driver/Src/stm32f3xx_hal_tim.c ****   
2165:Drivers/STM32F3xx_HAL_Driver/Src/stm32f3xx_hal_tim.c ****   if(IS_TIM_BREAK_INSTANCE(htim->Instance) != RESET)  
2166:Drivers/STM32F3xx_HAL_Driver/Src/stm32f3xx_hal_tim.c ****   {
2167:Drivers/STM32F3xx_HAL_Driver/Src/stm32f3xx_hal_tim.c ****     /* Enable the main output */
2168:Drivers/STM32F3xx_HAL_Driver/Src/stm32f3xx_hal_tim.c ****     __HAL_TIM_MOE_ENABLE(htim);
2169:Drivers/STM32F3xx_HAL_Driver/Src/stm32f3xx_hal_tim.c ****   }
2170:Drivers/STM32F3xx_HAL_Driver/Src/stm32f3xx_hal_tim.c ****   
2171:Drivers/STM32F3xx_HAL_Driver/Src/stm32f3xx_hal_tim.c ****   /* Return function status */
2172:Drivers/STM32F3xx_HAL_Driver/Src/stm32f3xx_hal_tim.c ****   return HAL_OK;
2173:Drivers/STM32F3xx_HAL_Driver/Src/stm32f3xx_hal_tim.c **** }
2174:Drivers/STM32F3xx_HAL_Driver/Src/stm32f3xx_hal_tim.c **** 
2175:Drivers/STM32F3xx_HAL_Driver/Src/stm32f3xx_hal_tim.c **** /**
2176:Drivers/STM32F3xx_HAL_Driver/Src/stm32f3xx_hal_tim.c ****   * @brief  Stops the TIM One Pulse signal generation in interrupt mode.
2177:Drivers/STM32F3xx_HAL_Driver/Src/stm32f3xx_hal_tim.c ****   * @param  htim TIM One Pulse handle
2178:Drivers/STM32F3xx_HAL_Driver/Src/stm32f3xx_hal_tim.c ****   * @param  OutputChannel TIM Channels to be enabled
2179:Drivers/STM32F3xx_HAL_Driver/Src/stm32f3xx_hal_tim.c ****   *          This parameter can be one of the following values:
2180:Drivers/STM32F3xx_HAL_Driver/Src/stm32f3xx_hal_tim.c ****   *            @arg TIM_CHANNEL_1: TIM Channel 1 selected
ARM GAS  /tmp/ccuQngBj.s 			page 41


2181:Drivers/STM32F3xx_HAL_Driver/Src/stm32f3xx_hal_tim.c ****   *            @arg TIM_CHANNEL_2: TIM Channel 2 selected
2182:Drivers/STM32F3xx_HAL_Driver/Src/stm32f3xx_hal_tim.c ****   * @retval HAL status
2183:Drivers/STM32F3xx_HAL_Driver/Src/stm32f3xx_hal_tim.c **** */
2184:Drivers/STM32F3xx_HAL_Driver/Src/stm32f3xx_hal_tim.c **** HAL_StatusTypeDef HAL_TIM_OnePulse_Stop_IT(TIM_HandleTypeDef *htim, uint32_t OutputChannel)
2185:Drivers/STM32F3xx_HAL_Driver/Src/stm32f3xx_hal_tim.c **** {
2186:Drivers/STM32F3xx_HAL_Driver/Src/stm32f3xx_hal_tim.c ****   /* Disable the TIM Capture/Compare 1 interrupt */
2187:Drivers/STM32F3xx_HAL_Driver/Src/stm32f3xx_hal_tim.c ****   __HAL_TIM_DISABLE_IT(htim, TIM_IT_CC1);  
2188:Drivers/STM32F3xx_HAL_Driver/Src/stm32f3xx_hal_tim.c ****   
2189:Drivers/STM32F3xx_HAL_Driver/Src/stm32f3xx_hal_tim.c ****   /* Disable the TIM Capture/Compare 2 interrupt */
2190:Drivers/STM32F3xx_HAL_Driver/Src/stm32f3xx_hal_tim.c ****   __HAL_TIM_DISABLE_IT(htim, TIM_IT_CC2);
2191:Drivers/STM32F3xx_HAL_Driver/Src/stm32f3xx_hal_tim.c ****   
2192:Drivers/STM32F3xx_HAL_Driver/Src/stm32f3xx_hal_tim.c ****   /* Disable the Capture compare and the Input Capture channels 
2193:Drivers/STM32F3xx_HAL_Driver/Src/stm32f3xx_hal_tim.c ****   (in the OPM Mode the two possible channels that can be used are TIM_CHANNEL_1 and TIM_CHANNEL_2)
2194:Drivers/STM32F3xx_HAL_Driver/Src/stm32f3xx_hal_tim.c ****   if TIM_CHANNEL_1 is used as output, the TIM_CHANNEL_2 will be used as input and
2195:Drivers/STM32F3xx_HAL_Driver/Src/stm32f3xx_hal_tim.c ****   if TIM_CHANNEL_1 is used as input, the TIM_CHANNEL_2 will be used as output 
2196:Drivers/STM32F3xx_HAL_Driver/Src/stm32f3xx_hal_tim.c ****   in all combinations, the TIM_CHANNEL_1 and TIM_CHANNEL_2 should be disabled together */  
2197:Drivers/STM32F3xx_HAL_Driver/Src/stm32f3xx_hal_tim.c ****   TIM_CCxChannelCmd(htim->Instance, TIM_CHANNEL_1, TIM_CCx_DISABLE); 
2198:Drivers/STM32F3xx_HAL_Driver/Src/stm32f3xx_hal_tim.c ****   TIM_CCxChannelCmd(htim->Instance, TIM_CHANNEL_2, TIM_CCx_DISABLE); 
2199:Drivers/STM32F3xx_HAL_Driver/Src/stm32f3xx_hal_tim.c ****     
2200:Drivers/STM32F3xx_HAL_Driver/Src/stm32f3xx_hal_tim.c ****   if(IS_TIM_BREAK_INSTANCE(htim->Instance) != RESET)  
2201:Drivers/STM32F3xx_HAL_Driver/Src/stm32f3xx_hal_tim.c ****   {
2202:Drivers/STM32F3xx_HAL_Driver/Src/stm32f3xx_hal_tim.c ****     /* Disable the Main Ouput */
2203:Drivers/STM32F3xx_HAL_Driver/Src/stm32f3xx_hal_tim.c ****     __HAL_TIM_MOE_DISABLE(htim);
2204:Drivers/STM32F3xx_HAL_Driver/Src/stm32f3xx_hal_tim.c ****   }
2205:Drivers/STM32F3xx_HAL_Driver/Src/stm32f3xx_hal_tim.c ****     
2206:Drivers/STM32F3xx_HAL_Driver/Src/stm32f3xx_hal_tim.c ****   /* Disable the Peripheral */
2207:Drivers/STM32F3xx_HAL_Driver/Src/stm32f3xx_hal_tim.c ****    __HAL_TIM_DISABLE(htim);  
2208:Drivers/STM32F3xx_HAL_Driver/Src/stm32f3xx_hal_tim.c ****   
2209:Drivers/STM32F3xx_HAL_Driver/Src/stm32f3xx_hal_tim.c ****   /* Return function status */
2210:Drivers/STM32F3xx_HAL_Driver/Src/stm32f3xx_hal_tim.c ****   return HAL_OK;
2211:Drivers/STM32F3xx_HAL_Driver/Src/stm32f3xx_hal_tim.c **** }
2212:Drivers/STM32F3xx_HAL_Driver/Src/stm32f3xx_hal_tim.c **** 
2213:Drivers/STM32F3xx_HAL_Driver/Src/stm32f3xx_hal_tim.c **** /**
2214:Drivers/STM32F3xx_HAL_Driver/Src/stm32f3xx_hal_tim.c ****   * @}
2215:Drivers/STM32F3xx_HAL_Driver/Src/stm32f3xx_hal_tim.c ****   */
2216:Drivers/STM32F3xx_HAL_Driver/Src/stm32f3xx_hal_tim.c **** 
2217:Drivers/STM32F3xx_HAL_Driver/Src/stm32f3xx_hal_tim.c **** /** @defgroup TIM_Exported_Functions_Group6 Time Encoder functions 
2218:Drivers/STM32F3xx_HAL_Driver/Src/stm32f3xx_hal_tim.c ****  *  @brief    Time Encoder functions 
2219:Drivers/STM32F3xx_HAL_Driver/Src/stm32f3xx_hal_tim.c ****  *
2220:Drivers/STM32F3xx_HAL_Driver/Src/stm32f3xx_hal_tim.c **** @verbatim    
2221:Drivers/STM32F3xx_HAL_Driver/Src/stm32f3xx_hal_tim.c ****   ==============================================================================
2222:Drivers/STM32F3xx_HAL_Driver/Src/stm32f3xx_hal_tim.c ****                           ##### Time Encoder functions #####
2223:Drivers/STM32F3xx_HAL_Driver/Src/stm32f3xx_hal_tim.c ****   ==============================================================================
2224:Drivers/STM32F3xx_HAL_Driver/Src/stm32f3xx_hal_tim.c ****   [..]
2225:Drivers/STM32F3xx_HAL_Driver/Src/stm32f3xx_hal_tim.c ****     This section provides functions allowing to:
2226:Drivers/STM32F3xx_HAL_Driver/Src/stm32f3xx_hal_tim.c ****     (+) Initialize and configure the TIM Encoder. 
2227:Drivers/STM32F3xx_HAL_Driver/Src/stm32f3xx_hal_tim.c ****     (+) De-initialize the TIM Encoder.
2228:Drivers/STM32F3xx_HAL_Driver/Src/stm32f3xx_hal_tim.c ****     (+) Start the Time Encoder.
2229:Drivers/STM32F3xx_HAL_Driver/Src/stm32f3xx_hal_tim.c ****     (+) Stop the Time Encoder.
2230:Drivers/STM32F3xx_HAL_Driver/Src/stm32f3xx_hal_tim.c ****     (+) Start the Time Encoder and enable interrupt.
2231:Drivers/STM32F3xx_HAL_Driver/Src/stm32f3xx_hal_tim.c ****     (+) Stop the Time Encoder and disable interrupt.
2232:Drivers/STM32F3xx_HAL_Driver/Src/stm32f3xx_hal_tim.c ****     (+) Start the Time Encoder and enable DMA transfer.
2233:Drivers/STM32F3xx_HAL_Driver/Src/stm32f3xx_hal_tim.c ****     (+) Stop the Time Encoder and disable DMA transfer.
2234:Drivers/STM32F3xx_HAL_Driver/Src/stm32f3xx_hal_tim.c ****  
2235:Drivers/STM32F3xx_HAL_Driver/Src/stm32f3xx_hal_tim.c **** @endverbatim
2236:Drivers/STM32F3xx_HAL_Driver/Src/stm32f3xx_hal_tim.c ****   * @{
2237:Drivers/STM32F3xx_HAL_Driver/Src/stm32f3xx_hal_tim.c ****   */
ARM GAS  /tmp/ccuQngBj.s 			page 42


2238:Drivers/STM32F3xx_HAL_Driver/Src/stm32f3xx_hal_tim.c **** /**
2239:Drivers/STM32F3xx_HAL_Driver/Src/stm32f3xx_hal_tim.c ****   * @brief  Initializes the TIM Encoder Interface and create the associated handle.
2240:Drivers/STM32F3xx_HAL_Driver/Src/stm32f3xx_hal_tim.c ****   * @param  htim TIM Encoder Interface handle
2241:Drivers/STM32F3xx_HAL_Driver/Src/stm32f3xx_hal_tim.c ****   * @param  sConfig TIM Encoder Interface configuration structure
2242:Drivers/STM32F3xx_HAL_Driver/Src/stm32f3xx_hal_tim.c ****   * @retval HAL status
2243:Drivers/STM32F3xx_HAL_Driver/Src/stm32f3xx_hal_tim.c ****   */
2244:Drivers/STM32F3xx_HAL_Driver/Src/stm32f3xx_hal_tim.c **** HAL_StatusTypeDef HAL_TIM_Encoder_Init(TIM_HandleTypeDef *htim,  TIM_Encoder_InitTypeDef* sConfig)
2245:Drivers/STM32F3xx_HAL_Driver/Src/stm32f3xx_hal_tim.c **** {
2246:Drivers/STM32F3xx_HAL_Driver/Src/stm32f3xx_hal_tim.c ****   uint32_t tmpsmcr = 0U;
2247:Drivers/STM32F3xx_HAL_Driver/Src/stm32f3xx_hal_tim.c ****   uint32_t tmpccmr1 = 0U;
2248:Drivers/STM32F3xx_HAL_Driver/Src/stm32f3xx_hal_tim.c ****   uint32_t tmpccer = 0U;
2249:Drivers/STM32F3xx_HAL_Driver/Src/stm32f3xx_hal_tim.c ****     
2250:Drivers/STM32F3xx_HAL_Driver/Src/stm32f3xx_hal_tim.c ****   /* Check the TIM handle allocation */
2251:Drivers/STM32F3xx_HAL_Driver/Src/stm32f3xx_hal_tim.c ****   if(htim == NULL)
2252:Drivers/STM32F3xx_HAL_Driver/Src/stm32f3xx_hal_tim.c ****   {
2253:Drivers/STM32F3xx_HAL_Driver/Src/stm32f3xx_hal_tim.c ****     return HAL_ERROR;
2254:Drivers/STM32F3xx_HAL_Driver/Src/stm32f3xx_hal_tim.c ****   }
2255:Drivers/STM32F3xx_HAL_Driver/Src/stm32f3xx_hal_tim.c ****    
2256:Drivers/STM32F3xx_HAL_Driver/Src/stm32f3xx_hal_tim.c ****   /* Check the parameters */
2257:Drivers/STM32F3xx_HAL_Driver/Src/stm32f3xx_hal_tim.c ****   assert_param(IS_TIM_CC2_INSTANCE(htim->Instance));
2258:Drivers/STM32F3xx_HAL_Driver/Src/stm32f3xx_hal_tim.c ****   assert_param(IS_TIM_COUNTER_MODE(htim->Init.CounterMode));
2259:Drivers/STM32F3xx_HAL_Driver/Src/stm32f3xx_hal_tim.c ****   assert_param(IS_TIM_CLOCKDIVISION_DIV(htim->Init.ClockDivision));
2260:Drivers/STM32F3xx_HAL_Driver/Src/stm32f3xx_hal_tim.c ****   assert_param(IS_TIM_AUTORELOAD_PRELOAD(htim->Init.AutoReloadPreload));
2261:Drivers/STM32F3xx_HAL_Driver/Src/stm32f3xx_hal_tim.c ****   assert_param(IS_TIM_ENCODER_MODE(sConfig->EncoderMode));
2262:Drivers/STM32F3xx_HAL_Driver/Src/stm32f3xx_hal_tim.c ****   assert_param(IS_TIM_IC_SELECTION(sConfig->IC1Selection));
2263:Drivers/STM32F3xx_HAL_Driver/Src/stm32f3xx_hal_tim.c ****   assert_param(IS_TIM_IC_SELECTION(sConfig->IC2Selection));
2264:Drivers/STM32F3xx_HAL_Driver/Src/stm32f3xx_hal_tim.c ****   assert_param(IS_TIM_IC_POLARITY(sConfig->IC1Polarity));
2265:Drivers/STM32F3xx_HAL_Driver/Src/stm32f3xx_hal_tim.c ****   assert_param(IS_TIM_IC_POLARITY(sConfig->IC2Polarity));
2266:Drivers/STM32F3xx_HAL_Driver/Src/stm32f3xx_hal_tim.c ****   assert_param(IS_TIM_IC_PRESCALER(sConfig->IC1Prescaler));
2267:Drivers/STM32F3xx_HAL_Driver/Src/stm32f3xx_hal_tim.c ****   assert_param(IS_TIM_IC_PRESCALER(sConfig->IC2Prescaler));
2268:Drivers/STM32F3xx_HAL_Driver/Src/stm32f3xx_hal_tim.c ****   assert_param(IS_TIM_IC_FILTER(sConfig->IC1Filter));
2269:Drivers/STM32F3xx_HAL_Driver/Src/stm32f3xx_hal_tim.c ****   assert_param(IS_TIM_IC_FILTER(sConfig->IC2Filter));
2270:Drivers/STM32F3xx_HAL_Driver/Src/stm32f3xx_hal_tim.c **** 
2271:Drivers/STM32F3xx_HAL_Driver/Src/stm32f3xx_hal_tim.c ****   if(htim->State == HAL_TIM_STATE_RESET)
2272:Drivers/STM32F3xx_HAL_Driver/Src/stm32f3xx_hal_tim.c ****   { 
2273:Drivers/STM32F3xx_HAL_Driver/Src/stm32f3xx_hal_tim.c ****     /* Allocate lock resource and initialize it */
2274:Drivers/STM32F3xx_HAL_Driver/Src/stm32f3xx_hal_tim.c ****     htim->Lock = HAL_UNLOCKED;
2275:Drivers/STM32F3xx_HAL_Driver/Src/stm32f3xx_hal_tim.c **** 
2276:Drivers/STM32F3xx_HAL_Driver/Src/stm32f3xx_hal_tim.c ****     /* Init the low level hardware : GPIO, CLOCK, NVIC and DMA */
2277:Drivers/STM32F3xx_HAL_Driver/Src/stm32f3xx_hal_tim.c ****     HAL_TIM_Encoder_MspInit(htim);
2278:Drivers/STM32F3xx_HAL_Driver/Src/stm32f3xx_hal_tim.c ****   }
2279:Drivers/STM32F3xx_HAL_Driver/Src/stm32f3xx_hal_tim.c ****   
2280:Drivers/STM32F3xx_HAL_Driver/Src/stm32f3xx_hal_tim.c ****   /* Set the TIM state */
2281:Drivers/STM32F3xx_HAL_Driver/Src/stm32f3xx_hal_tim.c ****   htim->State= HAL_TIM_STATE_BUSY;
2282:Drivers/STM32F3xx_HAL_Driver/Src/stm32f3xx_hal_tim.c ****   
2283:Drivers/STM32F3xx_HAL_Driver/Src/stm32f3xx_hal_tim.c ****   /* Reset the SMS bits */
2284:Drivers/STM32F3xx_HAL_Driver/Src/stm32f3xx_hal_tim.c ****   htim->Instance->SMCR &= ~TIM_SMCR_SMS;
2285:Drivers/STM32F3xx_HAL_Driver/Src/stm32f3xx_hal_tim.c ****   
2286:Drivers/STM32F3xx_HAL_Driver/Src/stm32f3xx_hal_tim.c ****   /* Configure the Time base in the Encoder Mode */
2287:Drivers/STM32F3xx_HAL_Driver/Src/stm32f3xx_hal_tim.c ****   TIM_Base_SetConfig(htim->Instance, &htim->Init);  
2288:Drivers/STM32F3xx_HAL_Driver/Src/stm32f3xx_hal_tim.c ****   
2289:Drivers/STM32F3xx_HAL_Driver/Src/stm32f3xx_hal_tim.c ****   /* Get the TIMx SMCR register value */
2290:Drivers/STM32F3xx_HAL_Driver/Src/stm32f3xx_hal_tim.c ****   tmpsmcr = htim->Instance->SMCR;
2291:Drivers/STM32F3xx_HAL_Driver/Src/stm32f3xx_hal_tim.c **** 
2292:Drivers/STM32F3xx_HAL_Driver/Src/stm32f3xx_hal_tim.c ****   /* Get the TIMx CCMR1 register value */
2293:Drivers/STM32F3xx_HAL_Driver/Src/stm32f3xx_hal_tim.c ****   tmpccmr1 = htim->Instance->CCMR1;
2294:Drivers/STM32F3xx_HAL_Driver/Src/stm32f3xx_hal_tim.c **** 
ARM GAS  /tmp/ccuQngBj.s 			page 43


2295:Drivers/STM32F3xx_HAL_Driver/Src/stm32f3xx_hal_tim.c ****   /* Get the TIMx CCER register value */
2296:Drivers/STM32F3xx_HAL_Driver/Src/stm32f3xx_hal_tim.c ****   tmpccer = htim->Instance->CCER;
2297:Drivers/STM32F3xx_HAL_Driver/Src/stm32f3xx_hal_tim.c **** 
2298:Drivers/STM32F3xx_HAL_Driver/Src/stm32f3xx_hal_tim.c ****   /* Set the encoder Mode */
2299:Drivers/STM32F3xx_HAL_Driver/Src/stm32f3xx_hal_tim.c ****   tmpsmcr |= sConfig->EncoderMode;
2300:Drivers/STM32F3xx_HAL_Driver/Src/stm32f3xx_hal_tim.c **** 
2301:Drivers/STM32F3xx_HAL_Driver/Src/stm32f3xx_hal_tim.c ****   /* Select the Capture Compare 1 and the Capture Compare 2 as input */
2302:Drivers/STM32F3xx_HAL_Driver/Src/stm32f3xx_hal_tim.c ****   tmpccmr1 &= ~(TIM_CCMR1_CC1S | TIM_CCMR1_CC2S);
2303:Drivers/STM32F3xx_HAL_Driver/Src/stm32f3xx_hal_tim.c ****   tmpccmr1 |= (sConfig->IC1Selection | (sConfig->IC2Selection << 8U));
2304:Drivers/STM32F3xx_HAL_Driver/Src/stm32f3xx_hal_tim.c ****   
2305:Drivers/STM32F3xx_HAL_Driver/Src/stm32f3xx_hal_tim.c ****   /* Set the the Capture Compare 1 and the Capture Compare 2 prescalers and filters */
2306:Drivers/STM32F3xx_HAL_Driver/Src/stm32f3xx_hal_tim.c ****   tmpccmr1 &= ~(TIM_CCMR1_IC1PSC | TIM_CCMR1_IC2PSC);
2307:Drivers/STM32F3xx_HAL_Driver/Src/stm32f3xx_hal_tim.c ****   tmpccmr1 &= ~(TIM_CCMR1_IC1F | TIM_CCMR1_IC2F);
2308:Drivers/STM32F3xx_HAL_Driver/Src/stm32f3xx_hal_tim.c ****   tmpccmr1 |= sConfig->IC1Prescaler | (sConfig->IC2Prescaler << 8U);
2309:Drivers/STM32F3xx_HAL_Driver/Src/stm32f3xx_hal_tim.c ****   tmpccmr1 |= (sConfig->IC1Filter << 4U) | (sConfig->IC2Filter << 12U);
2310:Drivers/STM32F3xx_HAL_Driver/Src/stm32f3xx_hal_tim.c **** 
2311:Drivers/STM32F3xx_HAL_Driver/Src/stm32f3xx_hal_tim.c ****   /* Set the TI1 and the TI2 Polarities */
2312:Drivers/STM32F3xx_HAL_Driver/Src/stm32f3xx_hal_tim.c ****   tmpccer &= ~(TIM_CCER_CC1P | TIM_CCER_CC2P);
2313:Drivers/STM32F3xx_HAL_Driver/Src/stm32f3xx_hal_tim.c ****   tmpccer &= ~(TIM_CCER_CC1NP | TIM_CCER_CC2NP);
2314:Drivers/STM32F3xx_HAL_Driver/Src/stm32f3xx_hal_tim.c ****   tmpccer |= sConfig->IC1Polarity | (sConfig->IC2Polarity << 4U);
2315:Drivers/STM32F3xx_HAL_Driver/Src/stm32f3xx_hal_tim.c ****   
2316:Drivers/STM32F3xx_HAL_Driver/Src/stm32f3xx_hal_tim.c ****   /* Write to TIMx SMCR */
2317:Drivers/STM32F3xx_HAL_Driver/Src/stm32f3xx_hal_tim.c ****   htim->Instance->SMCR = tmpsmcr;
2318:Drivers/STM32F3xx_HAL_Driver/Src/stm32f3xx_hal_tim.c **** 
2319:Drivers/STM32F3xx_HAL_Driver/Src/stm32f3xx_hal_tim.c ****   /* Write to TIMx CCMR1 */
2320:Drivers/STM32F3xx_HAL_Driver/Src/stm32f3xx_hal_tim.c ****   htim->Instance->CCMR1 = tmpccmr1;
2321:Drivers/STM32F3xx_HAL_Driver/Src/stm32f3xx_hal_tim.c **** 
2322:Drivers/STM32F3xx_HAL_Driver/Src/stm32f3xx_hal_tim.c ****   /* Write to TIMx CCER */
2323:Drivers/STM32F3xx_HAL_Driver/Src/stm32f3xx_hal_tim.c ****   htim->Instance->CCER = tmpccer;
2324:Drivers/STM32F3xx_HAL_Driver/Src/stm32f3xx_hal_tim.c ****   
2325:Drivers/STM32F3xx_HAL_Driver/Src/stm32f3xx_hal_tim.c ****   /* Initialize the TIM state*/
2326:Drivers/STM32F3xx_HAL_Driver/Src/stm32f3xx_hal_tim.c ****   htim->State= HAL_TIM_STATE_READY;
2327:Drivers/STM32F3xx_HAL_Driver/Src/stm32f3xx_hal_tim.c ****   
2328:Drivers/STM32F3xx_HAL_Driver/Src/stm32f3xx_hal_tim.c ****   return HAL_OK;
2329:Drivers/STM32F3xx_HAL_Driver/Src/stm32f3xx_hal_tim.c **** }
2330:Drivers/STM32F3xx_HAL_Driver/Src/stm32f3xx_hal_tim.c **** 
2331:Drivers/STM32F3xx_HAL_Driver/Src/stm32f3xx_hal_tim.c **** 
2332:Drivers/STM32F3xx_HAL_Driver/Src/stm32f3xx_hal_tim.c **** /**
2333:Drivers/STM32F3xx_HAL_Driver/Src/stm32f3xx_hal_tim.c ****   * @brief  DeInitializes the TIM Encoder interface  
2334:Drivers/STM32F3xx_HAL_Driver/Src/stm32f3xx_hal_tim.c ****   * @param  htim TIM Encoder handle
2335:Drivers/STM32F3xx_HAL_Driver/Src/stm32f3xx_hal_tim.c ****   * @retval HAL status
2336:Drivers/STM32F3xx_HAL_Driver/Src/stm32f3xx_hal_tim.c ****   */
2337:Drivers/STM32F3xx_HAL_Driver/Src/stm32f3xx_hal_tim.c **** HAL_StatusTypeDef HAL_TIM_Encoder_DeInit(TIM_HandleTypeDef *htim)
2338:Drivers/STM32F3xx_HAL_Driver/Src/stm32f3xx_hal_tim.c **** {
2339:Drivers/STM32F3xx_HAL_Driver/Src/stm32f3xx_hal_tim.c ****   /* Check the parameters */
2340:Drivers/STM32F3xx_HAL_Driver/Src/stm32f3xx_hal_tim.c ****   assert_param(IS_TIM_INSTANCE(htim->Instance));
2341:Drivers/STM32F3xx_HAL_Driver/Src/stm32f3xx_hal_tim.c ****   
2342:Drivers/STM32F3xx_HAL_Driver/Src/stm32f3xx_hal_tim.c ****   htim->State = HAL_TIM_STATE_BUSY;
2343:Drivers/STM32F3xx_HAL_Driver/Src/stm32f3xx_hal_tim.c ****   
2344:Drivers/STM32F3xx_HAL_Driver/Src/stm32f3xx_hal_tim.c ****   /* Disable the TIM Peripheral Clock */
2345:Drivers/STM32F3xx_HAL_Driver/Src/stm32f3xx_hal_tim.c ****   __HAL_TIM_DISABLE(htim);
2346:Drivers/STM32F3xx_HAL_Driver/Src/stm32f3xx_hal_tim.c ****   
2347:Drivers/STM32F3xx_HAL_Driver/Src/stm32f3xx_hal_tim.c ****   /* DeInit the low level hardware: GPIO, CLOCK, NVIC */
2348:Drivers/STM32F3xx_HAL_Driver/Src/stm32f3xx_hal_tim.c ****   HAL_TIM_Encoder_MspDeInit(htim);
2349:Drivers/STM32F3xx_HAL_Driver/Src/stm32f3xx_hal_tim.c ****     
2350:Drivers/STM32F3xx_HAL_Driver/Src/stm32f3xx_hal_tim.c ****   /* Change TIM state */  
2351:Drivers/STM32F3xx_HAL_Driver/Src/stm32f3xx_hal_tim.c ****   htim->State = HAL_TIM_STATE_RESET; 
ARM GAS  /tmp/ccuQngBj.s 			page 44


2352:Drivers/STM32F3xx_HAL_Driver/Src/stm32f3xx_hal_tim.c ****   
2353:Drivers/STM32F3xx_HAL_Driver/Src/stm32f3xx_hal_tim.c ****   /* Release Lock */
2354:Drivers/STM32F3xx_HAL_Driver/Src/stm32f3xx_hal_tim.c ****   __HAL_UNLOCK(htim);
2355:Drivers/STM32F3xx_HAL_Driver/Src/stm32f3xx_hal_tim.c **** 
2356:Drivers/STM32F3xx_HAL_Driver/Src/stm32f3xx_hal_tim.c ****   return HAL_OK;
2357:Drivers/STM32F3xx_HAL_Driver/Src/stm32f3xx_hal_tim.c **** }
2358:Drivers/STM32F3xx_HAL_Driver/Src/stm32f3xx_hal_tim.c **** 
2359:Drivers/STM32F3xx_HAL_Driver/Src/stm32f3xx_hal_tim.c **** /**
2360:Drivers/STM32F3xx_HAL_Driver/Src/stm32f3xx_hal_tim.c ****   * @brief  Initializes the TIM Encoder Interface MSP.
2361:Drivers/STM32F3xx_HAL_Driver/Src/stm32f3xx_hal_tim.c ****   * @param  htim TIM handle
2362:Drivers/STM32F3xx_HAL_Driver/Src/stm32f3xx_hal_tim.c ****   * @retval None
2363:Drivers/STM32F3xx_HAL_Driver/Src/stm32f3xx_hal_tim.c ****   */
2364:Drivers/STM32F3xx_HAL_Driver/Src/stm32f3xx_hal_tim.c **** __weak void HAL_TIM_Encoder_MspInit(TIM_HandleTypeDef *htim)
2365:Drivers/STM32F3xx_HAL_Driver/Src/stm32f3xx_hal_tim.c **** {
2366:Drivers/STM32F3xx_HAL_Driver/Src/stm32f3xx_hal_tim.c ****   /* Prevent unused argument(s) compilation warning */
2367:Drivers/STM32F3xx_HAL_Driver/Src/stm32f3xx_hal_tim.c ****   UNUSED(htim);
2368:Drivers/STM32F3xx_HAL_Driver/Src/stm32f3xx_hal_tim.c **** 
2369:Drivers/STM32F3xx_HAL_Driver/Src/stm32f3xx_hal_tim.c ****   /* NOTE : This function Should not be modified, when the callback is needed,
2370:Drivers/STM32F3xx_HAL_Driver/Src/stm32f3xx_hal_tim.c ****             the HAL_TIM_Encoder_MspInit could be implemented in the user file
2371:Drivers/STM32F3xx_HAL_Driver/Src/stm32f3xx_hal_tim.c ****    */
2372:Drivers/STM32F3xx_HAL_Driver/Src/stm32f3xx_hal_tim.c **** }
2373:Drivers/STM32F3xx_HAL_Driver/Src/stm32f3xx_hal_tim.c **** 
2374:Drivers/STM32F3xx_HAL_Driver/Src/stm32f3xx_hal_tim.c **** /**
2375:Drivers/STM32F3xx_HAL_Driver/Src/stm32f3xx_hal_tim.c ****   * @brief  DeInitializes TIM Encoder Interface MSP.
2376:Drivers/STM32F3xx_HAL_Driver/Src/stm32f3xx_hal_tim.c ****   * @param  htim TIM handle
2377:Drivers/STM32F3xx_HAL_Driver/Src/stm32f3xx_hal_tim.c ****   * @retval None
2378:Drivers/STM32F3xx_HAL_Driver/Src/stm32f3xx_hal_tim.c ****   */
2379:Drivers/STM32F3xx_HAL_Driver/Src/stm32f3xx_hal_tim.c **** __weak void HAL_TIM_Encoder_MspDeInit(TIM_HandleTypeDef *htim)
2380:Drivers/STM32F3xx_HAL_Driver/Src/stm32f3xx_hal_tim.c **** {
2381:Drivers/STM32F3xx_HAL_Driver/Src/stm32f3xx_hal_tim.c ****   /* Prevent unused argument(s) compilation warning */
2382:Drivers/STM32F3xx_HAL_Driver/Src/stm32f3xx_hal_tim.c ****   UNUSED(htim);
2383:Drivers/STM32F3xx_HAL_Driver/Src/stm32f3xx_hal_tim.c **** 
2384:Drivers/STM32F3xx_HAL_Driver/Src/stm32f3xx_hal_tim.c ****   /* NOTE : This function Should not be modified, when the callback is needed,
2385:Drivers/STM32F3xx_HAL_Driver/Src/stm32f3xx_hal_tim.c ****             the HAL_TIM_Encoder_MspDeInit could be implemented in the user file
2386:Drivers/STM32F3xx_HAL_Driver/Src/stm32f3xx_hal_tim.c ****    */
2387:Drivers/STM32F3xx_HAL_Driver/Src/stm32f3xx_hal_tim.c **** }
2388:Drivers/STM32F3xx_HAL_Driver/Src/stm32f3xx_hal_tim.c **** 
2389:Drivers/STM32F3xx_HAL_Driver/Src/stm32f3xx_hal_tim.c **** /**
2390:Drivers/STM32F3xx_HAL_Driver/Src/stm32f3xx_hal_tim.c ****   * @brief  Starts the TIM Encoder Interface.
2391:Drivers/STM32F3xx_HAL_Driver/Src/stm32f3xx_hal_tim.c ****   * @param  htim TIM Encoder Interface handle
2392:Drivers/STM32F3xx_HAL_Driver/Src/stm32f3xx_hal_tim.c ****   * @param  Channel TIM Channels to be enabled
2393:Drivers/STM32F3xx_HAL_Driver/Src/stm32f3xx_hal_tim.c ****   *          This parameter can be one of the following values:
2394:Drivers/STM32F3xx_HAL_Driver/Src/stm32f3xx_hal_tim.c ****   *            @arg TIM_CHANNEL_1: TIM Channel 1 selected
2395:Drivers/STM32F3xx_HAL_Driver/Src/stm32f3xx_hal_tim.c ****   *            @arg TIM_CHANNEL_2: TIM Channel 2 selected
2396:Drivers/STM32F3xx_HAL_Driver/Src/stm32f3xx_hal_tim.c ****   *            @arg TIM_CHANNEL_ALL: TIM Channel 1 and TIM Channel 2 are selected
2397:Drivers/STM32F3xx_HAL_Driver/Src/stm32f3xx_hal_tim.c ****   * @retval HAL status
2398:Drivers/STM32F3xx_HAL_Driver/Src/stm32f3xx_hal_tim.c **** */
2399:Drivers/STM32F3xx_HAL_Driver/Src/stm32f3xx_hal_tim.c **** HAL_StatusTypeDef HAL_TIM_Encoder_Start(TIM_HandleTypeDef *htim, uint32_t Channel)
2400:Drivers/STM32F3xx_HAL_Driver/Src/stm32f3xx_hal_tim.c **** {
2401:Drivers/STM32F3xx_HAL_Driver/Src/stm32f3xx_hal_tim.c ****   /* Check the parameters */
2402:Drivers/STM32F3xx_HAL_Driver/Src/stm32f3xx_hal_tim.c ****   assert_param(IS_TIM_CC2_INSTANCE(htim->Instance));
2403:Drivers/STM32F3xx_HAL_Driver/Src/stm32f3xx_hal_tim.c ****   
2404:Drivers/STM32F3xx_HAL_Driver/Src/stm32f3xx_hal_tim.c ****   /* Enable the encoder interface channels */
2405:Drivers/STM32F3xx_HAL_Driver/Src/stm32f3xx_hal_tim.c ****   switch (Channel)
2406:Drivers/STM32F3xx_HAL_Driver/Src/stm32f3xx_hal_tim.c ****   {
2407:Drivers/STM32F3xx_HAL_Driver/Src/stm32f3xx_hal_tim.c ****   case TIM_CHANNEL_1:
2408:Drivers/STM32F3xx_HAL_Driver/Src/stm32f3xx_hal_tim.c ****     {
ARM GAS  /tmp/ccuQngBj.s 			page 45


2409:Drivers/STM32F3xx_HAL_Driver/Src/stm32f3xx_hal_tim.c ****       TIM_CCxChannelCmd(htim->Instance, TIM_CHANNEL_1, TIM_CCx_ENABLE); 
2410:Drivers/STM32F3xx_HAL_Driver/Src/stm32f3xx_hal_tim.c ****       break; 
2411:Drivers/STM32F3xx_HAL_Driver/Src/stm32f3xx_hal_tim.c ****     }  
2412:Drivers/STM32F3xx_HAL_Driver/Src/stm32f3xx_hal_tim.c ****   case TIM_CHANNEL_2:
2413:Drivers/STM32F3xx_HAL_Driver/Src/stm32f3xx_hal_tim.c ****     {  
2414:Drivers/STM32F3xx_HAL_Driver/Src/stm32f3xx_hal_tim.c ****       TIM_CCxChannelCmd(htim->Instance, TIM_CHANNEL_2, TIM_CCx_ENABLE); 
2415:Drivers/STM32F3xx_HAL_Driver/Src/stm32f3xx_hal_tim.c ****       break;
2416:Drivers/STM32F3xx_HAL_Driver/Src/stm32f3xx_hal_tim.c ****     }  
2417:Drivers/STM32F3xx_HAL_Driver/Src/stm32f3xx_hal_tim.c ****   default :
2418:Drivers/STM32F3xx_HAL_Driver/Src/stm32f3xx_hal_tim.c ****     {
2419:Drivers/STM32F3xx_HAL_Driver/Src/stm32f3xx_hal_tim.c ****       TIM_CCxChannelCmd(htim->Instance, TIM_CHANNEL_1, TIM_CCx_ENABLE);
2420:Drivers/STM32F3xx_HAL_Driver/Src/stm32f3xx_hal_tim.c ****       TIM_CCxChannelCmd(htim->Instance, TIM_CHANNEL_2, TIM_CCx_ENABLE); 
2421:Drivers/STM32F3xx_HAL_Driver/Src/stm32f3xx_hal_tim.c ****       break; 
2422:Drivers/STM32F3xx_HAL_Driver/Src/stm32f3xx_hal_tim.c ****     }
2423:Drivers/STM32F3xx_HAL_Driver/Src/stm32f3xx_hal_tim.c ****   }  
2424:Drivers/STM32F3xx_HAL_Driver/Src/stm32f3xx_hal_tim.c ****   /* Enable the Peripheral */
2425:Drivers/STM32F3xx_HAL_Driver/Src/stm32f3xx_hal_tim.c ****   __HAL_TIM_ENABLE(htim);
2426:Drivers/STM32F3xx_HAL_Driver/Src/stm32f3xx_hal_tim.c ****   
2427:Drivers/STM32F3xx_HAL_Driver/Src/stm32f3xx_hal_tim.c ****   /* Return function status */
2428:Drivers/STM32F3xx_HAL_Driver/Src/stm32f3xx_hal_tim.c ****   return HAL_OK;
2429:Drivers/STM32F3xx_HAL_Driver/Src/stm32f3xx_hal_tim.c **** }
2430:Drivers/STM32F3xx_HAL_Driver/Src/stm32f3xx_hal_tim.c **** 
2431:Drivers/STM32F3xx_HAL_Driver/Src/stm32f3xx_hal_tim.c **** /**
2432:Drivers/STM32F3xx_HAL_Driver/Src/stm32f3xx_hal_tim.c ****   * @brief  Stops the TIM Encoder Interface.
2433:Drivers/STM32F3xx_HAL_Driver/Src/stm32f3xx_hal_tim.c ****   * @param  htim TIM Encoder Interface handle
2434:Drivers/STM32F3xx_HAL_Driver/Src/stm32f3xx_hal_tim.c ****   * @param  Channel TIM Channels to be disabled
2435:Drivers/STM32F3xx_HAL_Driver/Src/stm32f3xx_hal_tim.c ****   *          This parameter can be one of the following values:
2436:Drivers/STM32F3xx_HAL_Driver/Src/stm32f3xx_hal_tim.c ****   *            @arg TIM_CHANNEL_1: TIM Channel 1 selected
2437:Drivers/STM32F3xx_HAL_Driver/Src/stm32f3xx_hal_tim.c ****   *            @arg TIM_CHANNEL_2: TIM Channel 2 selected
2438:Drivers/STM32F3xx_HAL_Driver/Src/stm32f3xx_hal_tim.c ****   *            @arg TIM_CHANNEL_ALL: TIM Channel 1 and TIM Channel 2 are selected
2439:Drivers/STM32F3xx_HAL_Driver/Src/stm32f3xx_hal_tim.c ****   * @retval HAL status
2440:Drivers/STM32F3xx_HAL_Driver/Src/stm32f3xx_hal_tim.c **** */
2441:Drivers/STM32F3xx_HAL_Driver/Src/stm32f3xx_hal_tim.c **** HAL_StatusTypeDef HAL_TIM_Encoder_Stop(TIM_HandleTypeDef *htim, uint32_t Channel)
2442:Drivers/STM32F3xx_HAL_Driver/Src/stm32f3xx_hal_tim.c **** {
2443:Drivers/STM32F3xx_HAL_Driver/Src/stm32f3xx_hal_tim.c ****   /* Check the parameters */
2444:Drivers/STM32F3xx_HAL_Driver/Src/stm32f3xx_hal_tim.c ****   assert_param(IS_TIM_CC2_INSTANCE(htim->Instance));
2445:Drivers/STM32F3xx_HAL_Driver/Src/stm32f3xx_hal_tim.c ****   
2446:Drivers/STM32F3xx_HAL_Driver/Src/stm32f3xx_hal_tim.c ****   /* Disable the Input Capture channels 1 and 2
2447:Drivers/STM32F3xx_HAL_Driver/Src/stm32f3xx_hal_tim.c ****   (in the EncoderInterface the two possible channels that can be used are TIM_CHANNEL_1 and TIM_CHA
2448:Drivers/STM32F3xx_HAL_Driver/Src/stm32f3xx_hal_tim.c ****   switch (Channel)
2449:Drivers/STM32F3xx_HAL_Driver/Src/stm32f3xx_hal_tim.c ****   {
2450:Drivers/STM32F3xx_HAL_Driver/Src/stm32f3xx_hal_tim.c ****   case TIM_CHANNEL_1:
2451:Drivers/STM32F3xx_HAL_Driver/Src/stm32f3xx_hal_tim.c ****     {
2452:Drivers/STM32F3xx_HAL_Driver/Src/stm32f3xx_hal_tim.c ****       TIM_CCxChannelCmd(htim->Instance, TIM_CHANNEL_1, TIM_CCx_DISABLE); 
2453:Drivers/STM32F3xx_HAL_Driver/Src/stm32f3xx_hal_tim.c ****       break; 
2454:Drivers/STM32F3xx_HAL_Driver/Src/stm32f3xx_hal_tim.c ****     }  
2455:Drivers/STM32F3xx_HAL_Driver/Src/stm32f3xx_hal_tim.c ****   case TIM_CHANNEL_2:
2456:Drivers/STM32F3xx_HAL_Driver/Src/stm32f3xx_hal_tim.c ****     {  
2457:Drivers/STM32F3xx_HAL_Driver/Src/stm32f3xx_hal_tim.c ****       TIM_CCxChannelCmd(htim->Instance, TIM_CHANNEL_2, TIM_CCx_DISABLE); 
2458:Drivers/STM32F3xx_HAL_Driver/Src/stm32f3xx_hal_tim.c ****       break;
2459:Drivers/STM32F3xx_HAL_Driver/Src/stm32f3xx_hal_tim.c ****     }  
2460:Drivers/STM32F3xx_HAL_Driver/Src/stm32f3xx_hal_tim.c ****   default :
2461:Drivers/STM32F3xx_HAL_Driver/Src/stm32f3xx_hal_tim.c ****     {
2462:Drivers/STM32F3xx_HAL_Driver/Src/stm32f3xx_hal_tim.c ****       TIM_CCxChannelCmd(htim->Instance, TIM_CHANNEL_1, TIM_CCx_DISABLE); 
2463:Drivers/STM32F3xx_HAL_Driver/Src/stm32f3xx_hal_tim.c ****       TIM_CCxChannelCmd(htim->Instance, TIM_CHANNEL_2, TIM_CCx_DISABLE); 
2464:Drivers/STM32F3xx_HAL_Driver/Src/stm32f3xx_hal_tim.c ****       break; 
2465:Drivers/STM32F3xx_HAL_Driver/Src/stm32f3xx_hal_tim.c ****     }
ARM GAS  /tmp/ccuQngBj.s 			page 46


2466:Drivers/STM32F3xx_HAL_Driver/Src/stm32f3xx_hal_tim.c ****   }
2467:Drivers/STM32F3xx_HAL_Driver/Src/stm32f3xx_hal_tim.c ****   
2468:Drivers/STM32F3xx_HAL_Driver/Src/stm32f3xx_hal_tim.c ****   /* Disable the Peripheral */
2469:Drivers/STM32F3xx_HAL_Driver/Src/stm32f3xx_hal_tim.c ****   __HAL_TIM_DISABLE(htim);
2470:Drivers/STM32F3xx_HAL_Driver/Src/stm32f3xx_hal_tim.c ****   
2471:Drivers/STM32F3xx_HAL_Driver/Src/stm32f3xx_hal_tim.c ****   /* Return function status */
2472:Drivers/STM32F3xx_HAL_Driver/Src/stm32f3xx_hal_tim.c ****   return HAL_OK;
2473:Drivers/STM32F3xx_HAL_Driver/Src/stm32f3xx_hal_tim.c **** }
2474:Drivers/STM32F3xx_HAL_Driver/Src/stm32f3xx_hal_tim.c **** 
2475:Drivers/STM32F3xx_HAL_Driver/Src/stm32f3xx_hal_tim.c **** /**
2476:Drivers/STM32F3xx_HAL_Driver/Src/stm32f3xx_hal_tim.c ****   * @brief  Starts the TIM Encoder Interface in interrupt mode.
2477:Drivers/STM32F3xx_HAL_Driver/Src/stm32f3xx_hal_tim.c ****   * @param  htim TIM Encoder Interface handle
2478:Drivers/STM32F3xx_HAL_Driver/Src/stm32f3xx_hal_tim.c ****   * @param  Channel TIM Channels to be enabled
2479:Drivers/STM32F3xx_HAL_Driver/Src/stm32f3xx_hal_tim.c ****   *          This parameter can be one of the following values:
2480:Drivers/STM32F3xx_HAL_Driver/Src/stm32f3xx_hal_tim.c ****   *            @arg TIM_CHANNEL_1: TIM Channel 1 selected
2481:Drivers/STM32F3xx_HAL_Driver/Src/stm32f3xx_hal_tim.c ****   *            @arg TIM_CHANNEL_2: TIM Channel 2 selected
2482:Drivers/STM32F3xx_HAL_Driver/Src/stm32f3xx_hal_tim.c ****   *            @arg TIM_CHANNEL_ALL: TIM Channel 1 and TIM Channel 2 are selected
2483:Drivers/STM32F3xx_HAL_Driver/Src/stm32f3xx_hal_tim.c ****   * @retval HAL status
2484:Drivers/STM32F3xx_HAL_Driver/Src/stm32f3xx_hal_tim.c **** */
2485:Drivers/STM32F3xx_HAL_Driver/Src/stm32f3xx_hal_tim.c **** HAL_StatusTypeDef HAL_TIM_Encoder_Start_IT(TIM_HandleTypeDef *htim, uint32_t Channel)
2486:Drivers/STM32F3xx_HAL_Driver/Src/stm32f3xx_hal_tim.c **** {
2487:Drivers/STM32F3xx_HAL_Driver/Src/stm32f3xx_hal_tim.c ****   /* Check the parameters */
2488:Drivers/STM32F3xx_HAL_Driver/Src/stm32f3xx_hal_tim.c ****   assert_param(IS_TIM_CC2_INSTANCE(htim->Instance));
2489:Drivers/STM32F3xx_HAL_Driver/Src/stm32f3xx_hal_tim.c ****   
2490:Drivers/STM32F3xx_HAL_Driver/Src/stm32f3xx_hal_tim.c ****   /* Enable the encoder interface channels */
2491:Drivers/STM32F3xx_HAL_Driver/Src/stm32f3xx_hal_tim.c ****   /* Enable the capture compare Interrupts 1 and/or 2U */
2492:Drivers/STM32F3xx_HAL_Driver/Src/stm32f3xx_hal_tim.c ****   switch (Channel)
2493:Drivers/STM32F3xx_HAL_Driver/Src/stm32f3xx_hal_tim.c ****   {
2494:Drivers/STM32F3xx_HAL_Driver/Src/stm32f3xx_hal_tim.c ****   case TIM_CHANNEL_1:
2495:Drivers/STM32F3xx_HAL_Driver/Src/stm32f3xx_hal_tim.c ****     {
2496:Drivers/STM32F3xx_HAL_Driver/Src/stm32f3xx_hal_tim.c ****       TIM_CCxChannelCmd(htim->Instance, TIM_CHANNEL_1, TIM_CCx_ENABLE); 
2497:Drivers/STM32F3xx_HAL_Driver/Src/stm32f3xx_hal_tim.c ****       __HAL_TIM_ENABLE_IT(htim, TIM_IT_CC1);
2498:Drivers/STM32F3xx_HAL_Driver/Src/stm32f3xx_hal_tim.c ****       break; 
2499:Drivers/STM32F3xx_HAL_Driver/Src/stm32f3xx_hal_tim.c ****     }  
2500:Drivers/STM32F3xx_HAL_Driver/Src/stm32f3xx_hal_tim.c ****   case TIM_CHANNEL_2:
2501:Drivers/STM32F3xx_HAL_Driver/Src/stm32f3xx_hal_tim.c ****     {  
2502:Drivers/STM32F3xx_HAL_Driver/Src/stm32f3xx_hal_tim.c ****       TIM_CCxChannelCmd(htim->Instance, TIM_CHANNEL_2, TIM_CCx_ENABLE); 
2503:Drivers/STM32F3xx_HAL_Driver/Src/stm32f3xx_hal_tim.c ****       __HAL_TIM_ENABLE_IT(htim, TIM_IT_CC2);
2504:Drivers/STM32F3xx_HAL_Driver/Src/stm32f3xx_hal_tim.c ****       break;
2505:Drivers/STM32F3xx_HAL_Driver/Src/stm32f3xx_hal_tim.c ****     }  
2506:Drivers/STM32F3xx_HAL_Driver/Src/stm32f3xx_hal_tim.c ****   default :
2507:Drivers/STM32F3xx_HAL_Driver/Src/stm32f3xx_hal_tim.c ****     {
2508:Drivers/STM32F3xx_HAL_Driver/Src/stm32f3xx_hal_tim.c ****       TIM_CCxChannelCmd(htim->Instance, TIM_CHANNEL_1, TIM_CCx_ENABLE);
2509:Drivers/STM32F3xx_HAL_Driver/Src/stm32f3xx_hal_tim.c ****       TIM_CCxChannelCmd(htim->Instance, TIM_CHANNEL_2, TIM_CCx_ENABLE); 
2510:Drivers/STM32F3xx_HAL_Driver/Src/stm32f3xx_hal_tim.c ****       __HAL_TIM_ENABLE_IT(htim, TIM_IT_CC1);
2511:Drivers/STM32F3xx_HAL_Driver/Src/stm32f3xx_hal_tim.c ****       __HAL_TIM_ENABLE_IT(htim, TIM_IT_CC2);
2512:Drivers/STM32F3xx_HAL_Driver/Src/stm32f3xx_hal_tim.c ****       break; 
2513:Drivers/STM32F3xx_HAL_Driver/Src/stm32f3xx_hal_tim.c ****     }
2514:Drivers/STM32F3xx_HAL_Driver/Src/stm32f3xx_hal_tim.c ****   }   
2515:Drivers/STM32F3xx_HAL_Driver/Src/stm32f3xx_hal_tim.c ****   
2516:Drivers/STM32F3xx_HAL_Driver/Src/stm32f3xx_hal_tim.c ****   /* Enable the Peripheral */
2517:Drivers/STM32F3xx_HAL_Driver/Src/stm32f3xx_hal_tim.c ****   __HAL_TIM_ENABLE(htim);
2518:Drivers/STM32F3xx_HAL_Driver/Src/stm32f3xx_hal_tim.c ****   
2519:Drivers/STM32F3xx_HAL_Driver/Src/stm32f3xx_hal_tim.c ****   /* Return function status */
2520:Drivers/STM32F3xx_HAL_Driver/Src/stm32f3xx_hal_tim.c ****   return HAL_OK;
2521:Drivers/STM32F3xx_HAL_Driver/Src/stm32f3xx_hal_tim.c **** }
2522:Drivers/STM32F3xx_HAL_Driver/Src/stm32f3xx_hal_tim.c **** 
ARM GAS  /tmp/ccuQngBj.s 			page 47


2523:Drivers/STM32F3xx_HAL_Driver/Src/stm32f3xx_hal_tim.c **** /**
2524:Drivers/STM32F3xx_HAL_Driver/Src/stm32f3xx_hal_tim.c ****   * @brief  Stops the TIM Encoder Interface in interrupt mode.
2525:Drivers/STM32F3xx_HAL_Driver/Src/stm32f3xx_hal_tim.c ****   * @param  htim TIM Encoder Interface handle
2526:Drivers/STM32F3xx_HAL_Driver/Src/stm32f3xx_hal_tim.c ****   * @param  Channel TIM Channels to be disabled
2527:Drivers/STM32F3xx_HAL_Driver/Src/stm32f3xx_hal_tim.c ****   *          This parameter can be one of the following values:
2528:Drivers/STM32F3xx_HAL_Driver/Src/stm32f3xx_hal_tim.c ****   *            @arg TIM_CHANNEL_1: TIM Channel 1 selected
2529:Drivers/STM32F3xx_HAL_Driver/Src/stm32f3xx_hal_tim.c ****   *            @arg TIM_CHANNEL_2: TIM Channel 2 selected
2530:Drivers/STM32F3xx_HAL_Driver/Src/stm32f3xx_hal_tim.c ****   *            @arg TIM_CHANNEL_ALL: TIM Channel 1 and TIM Channel 2 are selected
2531:Drivers/STM32F3xx_HAL_Driver/Src/stm32f3xx_hal_tim.c ****   * @retval HAL status
2532:Drivers/STM32F3xx_HAL_Driver/Src/stm32f3xx_hal_tim.c **** */
2533:Drivers/STM32F3xx_HAL_Driver/Src/stm32f3xx_hal_tim.c **** HAL_StatusTypeDef HAL_TIM_Encoder_Stop_IT(TIM_HandleTypeDef *htim, uint32_t Channel)
2534:Drivers/STM32F3xx_HAL_Driver/Src/stm32f3xx_hal_tim.c **** {
2535:Drivers/STM32F3xx_HAL_Driver/Src/stm32f3xx_hal_tim.c ****   /* Check the parameters */
2536:Drivers/STM32F3xx_HAL_Driver/Src/stm32f3xx_hal_tim.c ****   assert_param(IS_TIM_CC2_INSTANCE(htim->Instance));
2537:Drivers/STM32F3xx_HAL_Driver/Src/stm32f3xx_hal_tim.c ****   
2538:Drivers/STM32F3xx_HAL_Driver/Src/stm32f3xx_hal_tim.c ****   /* Disable the Input Capture channels 1 and 2
2539:Drivers/STM32F3xx_HAL_Driver/Src/stm32f3xx_hal_tim.c ****   (in the EncoderInterface the two possible channels that can be used are TIM_CHANNEL_1 and TIM_CHA
2540:Drivers/STM32F3xx_HAL_Driver/Src/stm32f3xx_hal_tim.c ****   if(Channel == TIM_CHANNEL_1)
2541:Drivers/STM32F3xx_HAL_Driver/Src/stm32f3xx_hal_tim.c ****   {
2542:Drivers/STM32F3xx_HAL_Driver/Src/stm32f3xx_hal_tim.c ****     TIM_CCxChannelCmd(htim->Instance, TIM_CHANNEL_1, TIM_CCx_DISABLE); 
2543:Drivers/STM32F3xx_HAL_Driver/Src/stm32f3xx_hal_tim.c ****     
2544:Drivers/STM32F3xx_HAL_Driver/Src/stm32f3xx_hal_tim.c ****     /* Disable the capture compare Interrupts 1U */
2545:Drivers/STM32F3xx_HAL_Driver/Src/stm32f3xx_hal_tim.c ****     __HAL_TIM_DISABLE_IT(htim, TIM_IT_CC1);
2546:Drivers/STM32F3xx_HAL_Driver/Src/stm32f3xx_hal_tim.c ****   }  
2547:Drivers/STM32F3xx_HAL_Driver/Src/stm32f3xx_hal_tim.c ****   else if(Channel == TIM_CHANNEL_2)
2548:Drivers/STM32F3xx_HAL_Driver/Src/stm32f3xx_hal_tim.c ****   {  
2549:Drivers/STM32F3xx_HAL_Driver/Src/stm32f3xx_hal_tim.c ****     TIM_CCxChannelCmd(htim->Instance, TIM_CHANNEL_2, TIM_CCx_DISABLE); 
2550:Drivers/STM32F3xx_HAL_Driver/Src/stm32f3xx_hal_tim.c ****     
2551:Drivers/STM32F3xx_HAL_Driver/Src/stm32f3xx_hal_tim.c ****     /* Disable the capture compare Interrupts 2U */
2552:Drivers/STM32F3xx_HAL_Driver/Src/stm32f3xx_hal_tim.c ****     __HAL_TIM_DISABLE_IT(htim, TIM_IT_CC2);
2553:Drivers/STM32F3xx_HAL_Driver/Src/stm32f3xx_hal_tim.c ****   }  
2554:Drivers/STM32F3xx_HAL_Driver/Src/stm32f3xx_hal_tim.c ****   else
2555:Drivers/STM32F3xx_HAL_Driver/Src/stm32f3xx_hal_tim.c ****   {
2556:Drivers/STM32F3xx_HAL_Driver/Src/stm32f3xx_hal_tim.c ****     TIM_CCxChannelCmd(htim->Instance, TIM_CHANNEL_1, TIM_CCx_DISABLE); 
2557:Drivers/STM32F3xx_HAL_Driver/Src/stm32f3xx_hal_tim.c ****     TIM_CCxChannelCmd(htim->Instance, TIM_CHANNEL_2, TIM_CCx_DISABLE); 
2558:Drivers/STM32F3xx_HAL_Driver/Src/stm32f3xx_hal_tim.c ****     
2559:Drivers/STM32F3xx_HAL_Driver/Src/stm32f3xx_hal_tim.c ****     /* Disable the capture compare Interrupts 1 and 2U */
2560:Drivers/STM32F3xx_HAL_Driver/Src/stm32f3xx_hal_tim.c ****     __HAL_TIM_DISABLE_IT(htim, TIM_IT_CC1);
2561:Drivers/STM32F3xx_HAL_Driver/Src/stm32f3xx_hal_tim.c ****     __HAL_TIM_DISABLE_IT(htim, TIM_IT_CC2);
2562:Drivers/STM32F3xx_HAL_Driver/Src/stm32f3xx_hal_tim.c ****   }
2563:Drivers/STM32F3xx_HAL_Driver/Src/stm32f3xx_hal_tim.c ****   
2564:Drivers/STM32F3xx_HAL_Driver/Src/stm32f3xx_hal_tim.c ****   /* Disable the Peripheral */
2565:Drivers/STM32F3xx_HAL_Driver/Src/stm32f3xx_hal_tim.c ****   __HAL_TIM_DISABLE(htim);
2566:Drivers/STM32F3xx_HAL_Driver/Src/stm32f3xx_hal_tim.c ****   
2567:Drivers/STM32F3xx_HAL_Driver/Src/stm32f3xx_hal_tim.c ****   /* Change the htim state */
2568:Drivers/STM32F3xx_HAL_Driver/Src/stm32f3xx_hal_tim.c ****   htim->State = HAL_TIM_STATE_READY;
2569:Drivers/STM32F3xx_HAL_Driver/Src/stm32f3xx_hal_tim.c ****   
2570:Drivers/STM32F3xx_HAL_Driver/Src/stm32f3xx_hal_tim.c ****   /* Return function status */
2571:Drivers/STM32F3xx_HAL_Driver/Src/stm32f3xx_hal_tim.c ****   return HAL_OK;
2572:Drivers/STM32F3xx_HAL_Driver/Src/stm32f3xx_hal_tim.c **** }
2573:Drivers/STM32F3xx_HAL_Driver/Src/stm32f3xx_hal_tim.c **** 
2574:Drivers/STM32F3xx_HAL_Driver/Src/stm32f3xx_hal_tim.c **** /**
2575:Drivers/STM32F3xx_HAL_Driver/Src/stm32f3xx_hal_tim.c ****   * @brief  Starts the TIM Encoder Interface in DMA mode.
2576:Drivers/STM32F3xx_HAL_Driver/Src/stm32f3xx_hal_tim.c ****   * @param  htim TIM Encoder Interface handle
2577:Drivers/STM32F3xx_HAL_Driver/Src/stm32f3xx_hal_tim.c ****   * @param  Channel TIM Channels to be enabled
2578:Drivers/STM32F3xx_HAL_Driver/Src/stm32f3xx_hal_tim.c ****   *          This parameter can be one of the following values:
2579:Drivers/STM32F3xx_HAL_Driver/Src/stm32f3xx_hal_tim.c ****   *            @arg TIM_CHANNEL_1: TIM Channel 1 selected
ARM GAS  /tmp/ccuQngBj.s 			page 48


2580:Drivers/STM32F3xx_HAL_Driver/Src/stm32f3xx_hal_tim.c ****   *            @arg TIM_CHANNEL_2: TIM Channel 2 selected
2581:Drivers/STM32F3xx_HAL_Driver/Src/stm32f3xx_hal_tim.c ****   *            @arg TIM_CHANNEL_ALL: TIM Channel 1 and TIM Channel 2 are selected
2582:Drivers/STM32F3xx_HAL_Driver/Src/stm32f3xx_hal_tim.c ****   * @param  pData1: The destination Buffer address for IC1.
2583:Drivers/STM32F3xx_HAL_Driver/Src/stm32f3xx_hal_tim.c ****   * @param  pData2: The destination Buffer address for IC2.
2584:Drivers/STM32F3xx_HAL_Driver/Src/stm32f3xx_hal_tim.c ****   * @param  Length The length of data to be transferred from TIM peripheral to memory.
2585:Drivers/STM32F3xx_HAL_Driver/Src/stm32f3xx_hal_tim.c ****   * @retval HAL status
2586:Drivers/STM32F3xx_HAL_Driver/Src/stm32f3xx_hal_tim.c **** */
2587:Drivers/STM32F3xx_HAL_Driver/Src/stm32f3xx_hal_tim.c **** HAL_StatusTypeDef HAL_TIM_Encoder_Start_DMA(TIM_HandleTypeDef *htim, uint32_t Channel, uint32_t *pD
2588:Drivers/STM32F3xx_HAL_Driver/Src/stm32f3xx_hal_tim.c **** {
2589:Drivers/STM32F3xx_HAL_Driver/Src/stm32f3xx_hal_tim.c ****   /* Check the parameters */
2590:Drivers/STM32F3xx_HAL_Driver/Src/stm32f3xx_hal_tim.c ****   assert_param(IS_TIM_DMA_CC_INSTANCE(htim->Instance));
2591:Drivers/STM32F3xx_HAL_Driver/Src/stm32f3xx_hal_tim.c ****   
2592:Drivers/STM32F3xx_HAL_Driver/Src/stm32f3xx_hal_tim.c ****   if((htim->State == HAL_TIM_STATE_BUSY))
2593:Drivers/STM32F3xx_HAL_Driver/Src/stm32f3xx_hal_tim.c ****   {
2594:Drivers/STM32F3xx_HAL_Driver/Src/stm32f3xx_hal_tim.c ****     return HAL_BUSY;
2595:Drivers/STM32F3xx_HAL_Driver/Src/stm32f3xx_hal_tim.c ****   }
2596:Drivers/STM32F3xx_HAL_Driver/Src/stm32f3xx_hal_tim.c ****   else if((htim->State == HAL_TIM_STATE_READY))
2597:Drivers/STM32F3xx_HAL_Driver/Src/stm32f3xx_hal_tim.c ****   {
2598:Drivers/STM32F3xx_HAL_Driver/Src/stm32f3xx_hal_tim.c ****     if((((pData1 == 0U) || (pData2 == 0U) )) && (Length > 0U)) 
2599:Drivers/STM32F3xx_HAL_Driver/Src/stm32f3xx_hal_tim.c ****     {
2600:Drivers/STM32F3xx_HAL_Driver/Src/stm32f3xx_hal_tim.c ****       return HAL_ERROR;                                    
2601:Drivers/STM32F3xx_HAL_Driver/Src/stm32f3xx_hal_tim.c ****     }
