ARM GAS  /tmp/ccMxhqvP.s 			page 1


   1              		.cpu cortex-m4
   2              		.eabi_attribute 27, 1
   3              		.eabi_attribute 28, 1
   4              		.eabi_attribute 20, 1
   5              		.eabi_attribute 21, 1
   6              		.eabi_attribute 23, 3
   7              		.eabi_attribute 24, 1
   8              		.eabi_attribute 25, 1
   9              		.eabi_attribute 26, 1
  10              		.eabi_attribute 30, 2
  11              		.eabi_attribute 34, 1
  12              		.eabi_attribute 18, 4
  13              		.file	"usart.c"
  14              		.text
  15              	.Ltext0:
  16              		.cfi_sections	.debug_frame
  17              		.section	.text.MX_USART2_UART_Init,"ax",%progbits
  18              		.align	1
  19              		.p2align 2,,3
  20              		.global	MX_USART2_UART_Init
  21              		.arch armv7e-m
  22              		.syntax unified
  23              		.thumb
  24              		.thumb_func
  25              		.fpu fpv4-sp-d16
  27              	MX_USART2_UART_Init:
  28              	.LFB695:
  29              		.file 1 "Src/usart.c"
   1:Src/usart.c   **** /**
   2:Src/usart.c   ****   ******************************************************************************
   3:Src/usart.c   ****   * File Name          : USART.c
   4:Src/usart.c   ****   * Description        : This file provides code for the configuration
   5:Src/usart.c   ****   *                      of the USART instances.
   6:Src/usart.c   ****   ******************************************************************************
   7:Src/usart.c   ****   ** This notice applies to any and all portions of this file
   8:Src/usart.c   ****   * that are not between comment pairs USER CODE BEGIN and
   9:Src/usart.c   ****   * USER CODE END. Other portions of this file, whether 
  10:Src/usart.c   ****   * inserted by the user or by software development tools
  11:Src/usart.c   ****   * are owned by their respective copyright owners.
  12:Src/usart.c   ****   *
  13:Src/usart.c   ****   * COPYRIGHT(c) 2018 STMicroelectronics
  14:Src/usart.c   ****   *
  15:Src/usart.c   ****   * Redistribution and use in source and binary forms, with or without modification,
  16:Src/usart.c   ****   * are permitted provided that the following conditions are met:
  17:Src/usart.c   ****   *   1. Redistributions of source code must retain the above copyright notice,
  18:Src/usart.c   ****   *      this list of conditions and the following disclaimer.
  19:Src/usart.c   ****   *   2. Redistributions in binary form must reproduce the above copyright notice,
  20:Src/usart.c   ****   *      this list of conditions and the following disclaimer in the documentation
  21:Src/usart.c   ****   *      and/or other materials provided with the distribution.
  22:Src/usart.c   ****   *   3. Neither the name of STMicroelectronics nor the names of its contributors
  23:Src/usart.c   ****   *      may be used to endorse or promote products derived from this software
  24:Src/usart.c   ****   *      without specific prior written permission.
  25:Src/usart.c   ****   *
  26:Src/usart.c   ****   * THIS SOFTWARE IS PROVIDED BY THE COPYRIGHT HOLDERS AND CONTRIBUTORS "AS IS"
  27:Src/usart.c   ****   * AND ANY EXPRESS OR IMPLIED WARRANTIES, INCLUDING, BUT NOT LIMITED TO, THE
  28:Src/usart.c   ****   * IMPLIED WARRANTIES OF MERCHANTABILITY AND FITNESS FOR A PARTICULAR PURPOSE ARE
  29:Src/usart.c   ****   * DISCLAIMED. IN NO EVENT SHALL THE COPYRIGHT HOLDER OR CONTRIBUTORS BE LIABLE
ARM GAS  /tmp/ccMxhqvP.s 			page 2


  30:Src/usart.c   ****   * FOR ANY DIRECT, INDIRECT, INCIDENTAL, SPECIAL, EXEMPLARY, OR CONSEQUENTIAL
  31:Src/usart.c   ****   * DAMAGES (INCLUDING, BUT NOT LIMITED TO, PROCUREMENT OF SUBSTITUTE GOODS OR
  32:Src/usart.c   ****   * SERVICES; LOSS OF USE, DATA, OR PROFITS; OR BUSINESS INTERRUPTION) HOWEVER
  33:Src/usart.c   ****   * CAUSED AND ON ANY THEORY OF LIABILITY, WHETHER IN CONTRACT, STRICT LIABILITY,
  34:Src/usart.c   ****   * OR TORT (INCLUDING NEGLIGENCE OR OTHERWISE) ARISING IN ANY WAY OUT OF THE USE
  35:Src/usart.c   ****   * OF THIS SOFTWARE, EVEN IF ADVISED OF THE POSSIBILITY OF SUCH DAMAGE.
  36:Src/usart.c   ****   *
  37:Src/usart.c   ****   ******************************************************************************
  38:Src/usart.c   ****   */
  39:Src/usart.c   **** 
  40:Src/usart.c   **** /* Includes ------------------------------------------------------------------*/
  41:Src/usart.c   **** #include "usart.h"
  42:Src/usart.c   **** 
  43:Src/usart.c   **** #include "gpio.h"
  44:Src/usart.c   **** #include "dma.h"
  45:Src/usart.c   **** 
  46:Src/usart.c   **** /* USER CODE BEGIN 0 */
  47:Src/usart.c   **** 
  48:Src/usart.c   **** /* USER CODE END 0 */
  49:Src/usart.c   **** 
  50:Src/usart.c   **** /* USART2 init function */
  51:Src/usart.c   **** 
  52:Src/usart.c   **** void MX_USART2_UART_Init(void)
  53:Src/usart.c   **** {
  30              		.loc 1 53 1 view -0
  31              		.cfi_startproc
  32              		@ args = 0, pretend = 0, frame = 56
  33              		@ frame_needed = 0, uses_anonymous_args = 0
  54:Src/usart.c   ****   LL_USART_InitTypeDef USART_InitStruct;
  34              		.loc 1 54 3 view .LVU1
  55:Src/usart.c   **** 
  56:Src/usart.c   ****   LL_GPIO_InitTypeDef GPIO_InitStruct;
  35              		.loc 1 56 3 view .LVU2
  57:Src/usart.c   ****   /* Peripheral clock enable */
  58:Src/usart.c   ****   LL_APB1_GRP1_EnableClock(LL_APB1_GRP1_PERIPH_USART2);
  36              		.loc 1 58 3 view .LVU3
  37              	.LVL0:
  38              	.LBB34:
  39              	.LBI34:
  40              		.file 2 "Drivers/STM32F3xx_HAL_Driver/Inc/stm32f3xx_ll_bus.h"
   1:Drivers/STM32F3xx_HAL_Driver/Inc/stm32f3xx_ll_bus.h **** /**
   2:Drivers/STM32F3xx_HAL_Driver/Inc/stm32f3xx_ll_bus.h ****   ******************************************************************************
   3:Drivers/STM32F3xx_HAL_Driver/Inc/stm32f3xx_ll_bus.h ****   * @file    stm32f3xx_ll_bus.h
   4:Drivers/STM32F3xx_HAL_Driver/Inc/stm32f3xx_ll_bus.h ****   * @author  MCD Application Team
   5:Drivers/STM32F3xx_HAL_Driver/Inc/stm32f3xx_ll_bus.h ****   * @brief   Header file of BUS LL module.
   6:Drivers/STM32F3xx_HAL_Driver/Inc/stm32f3xx_ll_bus.h **** 
   7:Drivers/STM32F3xx_HAL_Driver/Inc/stm32f3xx_ll_bus.h ****   @verbatim                
   8:Drivers/STM32F3xx_HAL_Driver/Inc/stm32f3xx_ll_bus.h ****                       ##### RCC Limitations #####
   9:Drivers/STM32F3xx_HAL_Driver/Inc/stm32f3xx_ll_bus.h ****   ==============================================================================
  10:Drivers/STM32F3xx_HAL_Driver/Inc/stm32f3xx_ll_bus.h ****     [..]  
  11:Drivers/STM32F3xx_HAL_Driver/Inc/stm32f3xx_ll_bus.h ****       A delay between an RCC peripheral clock enable and the effective peripheral 
  12:Drivers/STM32F3xx_HAL_Driver/Inc/stm32f3xx_ll_bus.h ****       enabling should be taken into account in order to manage the peripheral read/write 
  13:Drivers/STM32F3xx_HAL_Driver/Inc/stm32f3xx_ll_bus.h ****       from/to registers.
  14:Drivers/STM32F3xx_HAL_Driver/Inc/stm32f3xx_ll_bus.h ****       (+) This delay depends on the peripheral mapping.
  15:Drivers/STM32F3xx_HAL_Driver/Inc/stm32f3xx_ll_bus.h ****         (++) AHB & APB peripherals, 1 dummy read is necessary
  16:Drivers/STM32F3xx_HAL_Driver/Inc/stm32f3xx_ll_bus.h **** 
  17:Drivers/STM32F3xx_HAL_Driver/Inc/stm32f3xx_ll_bus.h ****     [..]  
ARM GAS  /tmp/ccMxhqvP.s 			page 3


  18:Drivers/STM32F3xx_HAL_Driver/Inc/stm32f3xx_ll_bus.h ****       Workarounds:
  19:Drivers/STM32F3xx_HAL_Driver/Inc/stm32f3xx_ll_bus.h ****       (#) For AHB & APB peripherals, a dummy read to the peripheral register has been
  20:Drivers/STM32F3xx_HAL_Driver/Inc/stm32f3xx_ll_bus.h ****           inserted in each LL_{BUS}_GRP{x}_EnableClock() function.
  21:Drivers/STM32F3xx_HAL_Driver/Inc/stm32f3xx_ll_bus.h **** 
  22:Drivers/STM32F3xx_HAL_Driver/Inc/stm32f3xx_ll_bus.h ****   @endverbatim
  23:Drivers/STM32F3xx_HAL_Driver/Inc/stm32f3xx_ll_bus.h ****   ******************************************************************************
  24:Drivers/STM32F3xx_HAL_Driver/Inc/stm32f3xx_ll_bus.h ****   * @attention
  25:Drivers/STM32F3xx_HAL_Driver/Inc/stm32f3xx_ll_bus.h ****   *
  26:Drivers/STM32F3xx_HAL_Driver/Inc/stm32f3xx_ll_bus.h ****   * <h2><center>&copy; COPYRIGHT(c) 2016 STMicroelectronics</center></h2>
  27:Drivers/STM32F3xx_HAL_Driver/Inc/stm32f3xx_ll_bus.h ****   *
  28:Drivers/STM32F3xx_HAL_Driver/Inc/stm32f3xx_ll_bus.h ****   * Redistribution and use in source and binary forms, with or without modification,
  29:Drivers/STM32F3xx_HAL_Driver/Inc/stm32f3xx_ll_bus.h ****   * are permitted provided that the following conditions are met:
  30:Drivers/STM32F3xx_HAL_Driver/Inc/stm32f3xx_ll_bus.h ****   *   1. Redistributions of source code must retain the above copyright notice,
  31:Drivers/STM32F3xx_HAL_Driver/Inc/stm32f3xx_ll_bus.h ****   *      this list of conditions and the following disclaimer.
  32:Drivers/STM32F3xx_HAL_Driver/Inc/stm32f3xx_ll_bus.h ****   *   2. Redistributions in binary form must reproduce the above copyright notice,
  33:Drivers/STM32F3xx_HAL_Driver/Inc/stm32f3xx_ll_bus.h ****   *      this list of conditions and the following disclaimer in the documentation
  34:Drivers/STM32F3xx_HAL_Driver/Inc/stm32f3xx_ll_bus.h ****   *      and/or other materials provided with the distribution.
  35:Drivers/STM32F3xx_HAL_Driver/Inc/stm32f3xx_ll_bus.h ****   *   3. Neither the name of STMicroelectronics nor the names of its contributors
  36:Drivers/STM32F3xx_HAL_Driver/Inc/stm32f3xx_ll_bus.h ****   *      may be used to endorse or promote products derived from this software
  37:Drivers/STM32F3xx_HAL_Driver/Inc/stm32f3xx_ll_bus.h ****   *      without specific prior written permission.
  38:Drivers/STM32F3xx_HAL_Driver/Inc/stm32f3xx_ll_bus.h ****   *
  39:Drivers/STM32F3xx_HAL_Driver/Inc/stm32f3xx_ll_bus.h ****   * THIS SOFTWARE IS PROVIDED BY THE COPYRIGHT HOLDERS AND CONTRIBUTORS "AS IS"
  40:Drivers/STM32F3xx_HAL_Driver/Inc/stm32f3xx_ll_bus.h ****   * AND ANY EXPRESS OR IMPLIED WARRANTIES, INCLUDING, BUT NOT LIMITED TO, THE
  41:Drivers/STM32F3xx_HAL_Driver/Inc/stm32f3xx_ll_bus.h ****   * IMPLIED WARRANTIES OF MERCHANTABILITY AND FITNESS FOR A PARTICULAR PURPOSE ARE
  42:Drivers/STM32F3xx_HAL_Driver/Inc/stm32f3xx_ll_bus.h ****   * DISCLAIMED. IN NO EVENT SHALL THE COPYRIGHT HOLDER OR CONTRIBUTORS BE LIABLE
  43:Drivers/STM32F3xx_HAL_Driver/Inc/stm32f3xx_ll_bus.h ****   * FOR ANY DIRECT, INDIRECT, INCIDENTAL, SPECIAL, EXEMPLARY, OR CONSEQUENTIAL
  44:Drivers/STM32F3xx_HAL_Driver/Inc/stm32f3xx_ll_bus.h ****   * DAMAGES (INCLUDING, BUT NOT LIMITED TO, PROCUREMENT OF SUBSTITUTE GOODS OR
  45:Drivers/STM32F3xx_HAL_Driver/Inc/stm32f3xx_ll_bus.h ****   * SERVICES; LOSS OF USE, DATA, OR PROFITS; OR BUSINESS INTERRUPTION) HOWEVER
  46:Drivers/STM32F3xx_HAL_Driver/Inc/stm32f3xx_ll_bus.h ****   * CAUSED AND ON ANY THEORY OF LIABILITY, WHETHER IN CONTRACT, STRICT LIABILITY,
  47:Drivers/STM32F3xx_HAL_Driver/Inc/stm32f3xx_ll_bus.h ****   * OR TORT (INCLUDING NEGLIGENCE OR OTHERWISE) ARISING IN ANY WAY OUT OF THE USE
  48:Drivers/STM32F3xx_HAL_Driver/Inc/stm32f3xx_ll_bus.h ****   * OF THIS SOFTWARE, EVEN IF ADVISED OF THE POSSIBILITY OF SUCH DAMAGE.
  49:Drivers/STM32F3xx_HAL_Driver/Inc/stm32f3xx_ll_bus.h ****   *
  50:Drivers/STM32F3xx_HAL_Driver/Inc/stm32f3xx_ll_bus.h ****   ******************************************************************************
  51:Drivers/STM32F3xx_HAL_Driver/Inc/stm32f3xx_ll_bus.h ****   */
  52:Drivers/STM32F3xx_HAL_Driver/Inc/stm32f3xx_ll_bus.h **** 
  53:Drivers/STM32F3xx_HAL_Driver/Inc/stm32f3xx_ll_bus.h **** /* Define to prevent recursive inclusion -------------------------------------*/
  54:Drivers/STM32F3xx_HAL_Driver/Inc/stm32f3xx_ll_bus.h **** #ifndef __STM32F3xx_LL_BUS_H
  55:Drivers/STM32F3xx_HAL_Driver/Inc/stm32f3xx_ll_bus.h **** #define __STM32F3xx_LL_BUS_H
  56:Drivers/STM32F3xx_HAL_Driver/Inc/stm32f3xx_ll_bus.h **** 
  57:Drivers/STM32F3xx_HAL_Driver/Inc/stm32f3xx_ll_bus.h **** #ifdef __cplusplus
  58:Drivers/STM32F3xx_HAL_Driver/Inc/stm32f3xx_ll_bus.h **** extern "C" {
  59:Drivers/STM32F3xx_HAL_Driver/Inc/stm32f3xx_ll_bus.h **** #endif
  60:Drivers/STM32F3xx_HAL_Driver/Inc/stm32f3xx_ll_bus.h **** 
  61:Drivers/STM32F3xx_HAL_Driver/Inc/stm32f3xx_ll_bus.h **** /* Includes ------------------------------------------------------------------*/
  62:Drivers/STM32F3xx_HAL_Driver/Inc/stm32f3xx_ll_bus.h **** #include "stm32f3xx.h"
  63:Drivers/STM32F3xx_HAL_Driver/Inc/stm32f3xx_ll_bus.h **** 
  64:Drivers/STM32F3xx_HAL_Driver/Inc/stm32f3xx_ll_bus.h **** /** @addtogroup STM32F3xx_LL_Driver
  65:Drivers/STM32F3xx_HAL_Driver/Inc/stm32f3xx_ll_bus.h ****   * @{
  66:Drivers/STM32F3xx_HAL_Driver/Inc/stm32f3xx_ll_bus.h ****   */
  67:Drivers/STM32F3xx_HAL_Driver/Inc/stm32f3xx_ll_bus.h **** 
  68:Drivers/STM32F3xx_HAL_Driver/Inc/stm32f3xx_ll_bus.h **** #if defined(RCC)
  69:Drivers/STM32F3xx_HAL_Driver/Inc/stm32f3xx_ll_bus.h **** 
  70:Drivers/STM32F3xx_HAL_Driver/Inc/stm32f3xx_ll_bus.h **** /** @defgroup BUS_LL BUS
  71:Drivers/STM32F3xx_HAL_Driver/Inc/stm32f3xx_ll_bus.h ****   * @{
  72:Drivers/STM32F3xx_HAL_Driver/Inc/stm32f3xx_ll_bus.h ****   */
  73:Drivers/STM32F3xx_HAL_Driver/Inc/stm32f3xx_ll_bus.h **** 
  74:Drivers/STM32F3xx_HAL_Driver/Inc/stm32f3xx_ll_bus.h **** /* Private types -------------------------------------------------------------*/
ARM GAS  /tmp/ccMxhqvP.s 			page 4


  75:Drivers/STM32F3xx_HAL_Driver/Inc/stm32f3xx_ll_bus.h **** /* Private variables ---------------------------------------------------------*/
  76:Drivers/STM32F3xx_HAL_Driver/Inc/stm32f3xx_ll_bus.h **** 
  77:Drivers/STM32F3xx_HAL_Driver/Inc/stm32f3xx_ll_bus.h **** /* Private constants ---------------------------------------------------------*/
  78:Drivers/STM32F3xx_HAL_Driver/Inc/stm32f3xx_ll_bus.h **** 
  79:Drivers/STM32F3xx_HAL_Driver/Inc/stm32f3xx_ll_bus.h **** /* Private macros ------------------------------------------------------------*/
  80:Drivers/STM32F3xx_HAL_Driver/Inc/stm32f3xx_ll_bus.h **** 
  81:Drivers/STM32F3xx_HAL_Driver/Inc/stm32f3xx_ll_bus.h **** /* Exported types ------------------------------------------------------------*/
  82:Drivers/STM32F3xx_HAL_Driver/Inc/stm32f3xx_ll_bus.h **** /* Exported constants --------------------------------------------------------*/
  83:Drivers/STM32F3xx_HAL_Driver/Inc/stm32f3xx_ll_bus.h **** /** @defgroup BUS_LL_Exported_Constants BUS Exported Constants
  84:Drivers/STM32F3xx_HAL_Driver/Inc/stm32f3xx_ll_bus.h ****   * @{
  85:Drivers/STM32F3xx_HAL_Driver/Inc/stm32f3xx_ll_bus.h ****   */
  86:Drivers/STM32F3xx_HAL_Driver/Inc/stm32f3xx_ll_bus.h **** 
  87:Drivers/STM32F3xx_HAL_Driver/Inc/stm32f3xx_ll_bus.h **** /** @defgroup BUS_LL_EC_AHB1_GRP1_PERIPH  AHB1 GRP1 PERIPH
  88:Drivers/STM32F3xx_HAL_Driver/Inc/stm32f3xx_ll_bus.h ****   * @{
  89:Drivers/STM32F3xx_HAL_Driver/Inc/stm32f3xx_ll_bus.h ****   */
  90:Drivers/STM32F3xx_HAL_Driver/Inc/stm32f3xx_ll_bus.h **** #define LL_AHB1_GRP1_PERIPH_ALL            (uint32_t)0xFFFFFFFFU
  91:Drivers/STM32F3xx_HAL_Driver/Inc/stm32f3xx_ll_bus.h **** #define LL_AHB1_GRP1_PERIPH_DMA1           RCC_AHBENR_DMA1EN
  92:Drivers/STM32F3xx_HAL_Driver/Inc/stm32f3xx_ll_bus.h **** #if defined(DMA2)
  93:Drivers/STM32F3xx_HAL_Driver/Inc/stm32f3xx_ll_bus.h **** #define LL_AHB1_GRP1_PERIPH_DMA2           RCC_AHBENR_DMA2EN
  94:Drivers/STM32F3xx_HAL_Driver/Inc/stm32f3xx_ll_bus.h **** #endif /*DMA2*/
  95:Drivers/STM32F3xx_HAL_Driver/Inc/stm32f3xx_ll_bus.h **** #define LL_AHB1_GRP1_PERIPH_SRAM           RCC_AHBENR_SRAMEN
  96:Drivers/STM32F3xx_HAL_Driver/Inc/stm32f3xx_ll_bus.h **** #define LL_AHB1_GRP1_PERIPH_FLASH          RCC_AHBENR_FLITFEN
  97:Drivers/STM32F3xx_HAL_Driver/Inc/stm32f3xx_ll_bus.h **** #if defined(FMC_Bank1)
  98:Drivers/STM32F3xx_HAL_Driver/Inc/stm32f3xx_ll_bus.h **** #define LL_AHB1_GRP1_PERIPH_FMC            RCC_AHBENR_FMCEN
  99:Drivers/STM32F3xx_HAL_Driver/Inc/stm32f3xx_ll_bus.h **** #endif /*FMC_Bank1*/
 100:Drivers/STM32F3xx_HAL_Driver/Inc/stm32f3xx_ll_bus.h **** #define LL_AHB1_GRP1_PERIPH_CRC            RCC_AHBENR_CRCEN
 101:Drivers/STM32F3xx_HAL_Driver/Inc/stm32f3xx_ll_bus.h **** #if defined(GPIOH)
 102:Drivers/STM32F3xx_HAL_Driver/Inc/stm32f3xx_ll_bus.h **** #define LL_AHB1_GRP1_PERIPH_GPIOH          RCC_AHBENR_GPIOHEN
 103:Drivers/STM32F3xx_HAL_Driver/Inc/stm32f3xx_ll_bus.h **** #endif /*GPIOH*/
 104:Drivers/STM32F3xx_HAL_Driver/Inc/stm32f3xx_ll_bus.h **** #define LL_AHB1_GRP1_PERIPH_GPIOA          RCC_AHBENR_GPIOAEN
 105:Drivers/STM32F3xx_HAL_Driver/Inc/stm32f3xx_ll_bus.h **** #define LL_AHB1_GRP1_PERIPH_GPIOB          RCC_AHBENR_GPIOBEN
 106:Drivers/STM32F3xx_HAL_Driver/Inc/stm32f3xx_ll_bus.h **** #define LL_AHB1_GRP1_PERIPH_GPIOC          RCC_AHBENR_GPIOCEN
 107:Drivers/STM32F3xx_HAL_Driver/Inc/stm32f3xx_ll_bus.h **** #define LL_AHB1_GRP1_PERIPH_GPIOD          RCC_AHBENR_GPIODEN
 108:Drivers/STM32F3xx_HAL_Driver/Inc/stm32f3xx_ll_bus.h **** #if defined(GPIOE)
 109:Drivers/STM32F3xx_HAL_Driver/Inc/stm32f3xx_ll_bus.h **** #define LL_AHB1_GRP1_PERIPH_GPIOE          RCC_AHBENR_GPIOEEN
 110:Drivers/STM32F3xx_HAL_Driver/Inc/stm32f3xx_ll_bus.h **** #endif /*GPIOE*/
 111:Drivers/STM32F3xx_HAL_Driver/Inc/stm32f3xx_ll_bus.h **** #define LL_AHB1_GRP1_PERIPH_GPIOF          RCC_AHBENR_GPIOFEN
 112:Drivers/STM32F3xx_HAL_Driver/Inc/stm32f3xx_ll_bus.h **** #if defined(GPIOG)
 113:Drivers/STM32F3xx_HAL_Driver/Inc/stm32f3xx_ll_bus.h **** #define LL_AHB1_GRP1_PERIPH_GPIOG          RCC_AHBENR_GPIOGEN
 114:Drivers/STM32F3xx_HAL_Driver/Inc/stm32f3xx_ll_bus.h **** #endif /*GPIOH*/
 115:Drivers/STM32F3xx_HAL_Driver/Inc/stm32f3xx_ll_bus.h **** #define LL_AHB1_GRP1_PERIPH_TSC            RCC_AHBENR_TSCEN
 116:Drivers/STM32F3xx_HAL_Driver/Inc/stm32f3xx_ll_bus.h **** #if defined(RCC_AHBENR_ADC1EN)
 117:Drivers/STM32F3xx_HAL_Driver/Inc/stm32f3xx_ll_bus.h **** #define LL_AHB1_GRP1_PERIPH_ADC1           RCC_AHBENR_ADC1EN
 118:Drivers/STM32F3xx_HAL_Driver/Inc/stm32f3xx_ll_bus.h **** #endif /*RCC_AHBENR_ADC1EN*/
 119:Drivers/STM32F3xx_HAL_Driver/Inc/stm32f3xx_ll_bus.h **** #if defined(ADC1_2_COMMON)
 120:Drivers/STM32F3xx_HAL_Driver/Inc/stm32f3xx_ll_bus.h **** #define LL_AHB1_GRP1_PERIPH_ADC12          RCC_AHBENR_ADC12EN
 121:Drivers/STM32F3xx_HAL_Driver/Inc/stm32f3xx_ll_bus.h **** #endif /*ADC1_2_COMMON*/
 122:Drivers/STM32F3xx_HAL_Driver/Inc/stm32f3xx_ll_bus.h **** #if defined(ADC3_4_COMMON)
 123:Drivers/STM32F3xx_HAL_Driver/Inc/stm32f3xx_ll_bus.h **** #define LL_AHB1_GRP1_PERIPH_ADC34          RCC_AHBENR_ADC34EN
 124:Drivers/STM32F3xx_HAL_Driver/Inc/stm32f3xx_ll_bus.h **** #endif /*ADC3_4_COMMON*/
 125:Drivers/STM32F3xx_HAL_Driver/Inc/stm32f3xx_ll_bus.h **** /**
 126:Drivers/STM32F3xx_HAL_Driver/Inc/stm32f3xx_ll_bus.h ****   * @}
 127:Drivers/STM32F3xx_HAL_Driver/Inc/stm32f3xx_ll_bus.h ****   */
 128:Drivers/STM32F3xx_HAL_Driver/Inc/stm32f3xx_ll_bus.h **** 
 129:Drivers/STM32F3xx_HAL_Driver/Inc/stm32f3xx_ll_bus.h **** /** @defgroup BUS_LL_EC_APB1_GRP1_PERIPH  APB1 GRP1 PERIPH
 130:Drivers/STM32F3xx_HAL_Driver/Inc/stm32f3xx_ll_bus.h ****   * @{
 131:Drivers/STM32F3xx_HAL_Driver/Inc/stm32f3xx_ll_bus.h ****   */
ARM GAS  /tmp/ccMxhqvP.s 			page 5


 132:Drivers/STM32F3xx_HAL_Driver/Inc/stm32f3xx_ll_bus.h **** #define LL_APB1_GRP1_PERIPH_ALL            (uint32_t)0xFFFFFFFFU
 133:Drivers/STM32F3xx_HAL_Driver/Inc/stm32f3xx_ll_bus.h **** #define LL_APB1_GRP1_PERIPH_TIM2           RCC_APB1ENR_TIM2EN
 134:Drivers/STM32F3xx_HAL_Driver/Inc/stm32f3xx_ll_bus.h **** #if defined(TIM3)
 135:Drivers/STM32F3xx_HAL_Driver/Inc/stm32f3xx_ll_bus.h **** #define LL_APB1_GRP1_PERIPH_TIM3           RCC_APB1ENR_TIM3EN
 136:Drivers/STM32F3xx_HAL_Driver/Inc/stm32f3xx_ll_bus.h **** #endif /*TIM3*/
 137:Drivers/STM32F3xx_HAL_Driver/Inc/stm32f3xx_ll_bus.h **** #if defined(TIM4)
 138:Drivers/STM32F3xx_HAL_Driver/Inc/stm32f3xx_ll_bus.h **** #define LL_APB1_GRP1_PERIPH_TIM4           RCC_APB1ENR_TIM4EN
 139:Drivers/STM32F3xx_HAL_Driver/Inc/stm32f3xx_ll_bus.h **** #endif /*TIM4*/
 140:Drivers/STM32F3xx_HAL_Driver/Inc/stm32f3xx_ll_bus.h **** #if defined(TIM5)
 141:Drivers/STM32F3xx_HAL_Driver/Inc/stm32f3xx_ll_bus.h **** #define LL_APB1_GRP1_PERIPH_TIM5           RCC_APB1ENR_TIM5EN
 142:Drivers/STM32F3xx_HAL_Driver/Inc/stm32f3xx_ll_bus.h **** #endif /*TIM5*/
 143:Drivers/STM32F3xx_HAL_Driver/Inc/stm32f3xx_ll_bus.h **** #define LL_APB1_GRP1_PERIPH_TIM6           RCC_APB1ENR_TIM6EN
 144:Drivers/STM32F3xx_HAL_Driver/Inc/stm32f3xx_ll_bus.h **** #if defined(TIM7)
 145:Drivers/STM32F3xx_HAL_Driver/Inc/stm32f3xx_ll_bus.h **** #define LL_APB1_GRP1_PERIPH_TIM7           RCC_APB1ENR_TIM7EN
 146:Drivers/STM32F3xx_HAL_Driver/Inc/stm32f3xx_ll_bus.h **** #endif /*TIM7*/
 147:Drivers/STM32F3xx_HAL_Driver/Inc/stm32f3xx_ll_bus.h **** #if defined(TIM12)
 148:Drivers/STM32F3xx_HAL_Driver/Inc/stm32f3xx_ll_bus.h **** #define LL_APB1_GRP1_PERIPH_TIM12          RCC_APB1ENR_TIM12EN
 149:Drivers/STM32F3xx_HAL_Driver/Inc/stm32f3xx_ll_bus.h **** #endif /*TIM12*/
 150:Drivers/STM32F3xx_HAL_Driver/Inc/stm32f3xx_ll_bus.h **** #if defined(TIM13)
 151:Drivers/STM32F3xx_HAL_Driver/Inc/stm32f3xx_ll_bus.h **** #define LL_APB1_GRP1_PERIPH_TIM13          RCC_APB1ENR_TIM13EN
 152:Drivers/STM32F3xx_HAL_Driver/Inc/stm32f3xx_ll_bus.h **** #endif /*TIM13*/
 153:Drivers/STM32F3xx_HAL_Driver/Inc/stm32f3xx_ll_bus.h **** #if defined(TIM14)
 154:Drivers/STM32F3xx_HAL_Driver/Inc/stm32f3xx_ll_bus.h **** #define LL_APB1_GRP1_PERIPH_TIM14          RCC_APB1ENR_TIM14EN
 155:Drivers/STM32F3xx_HAL_Driver/Inc/stm32f3xx_ll_bus.h **** #endif /*TIM14*/
 156:Drivers/STM32F3xx_HAL_Driver/Inc/stm32f3xx_ll_bus.h **** #if defined(TIM18)
 157:Drivers/STM32F3xx_HAL_Driver/Inc/stm32f3xx_ll_bus.h **** #define LL_APB1_GRP1_PERIPH_TIM18          RCC_APB1ENR_TIM18EN
 158:Drivers/STM32F3xx_HAL_Driver/Inc/stm32f3xx_ll_bus.h **** #endif /*TIM18*/
 159:Drivers/STM32F3xx_HAL_Driver/Inc/stm32f3xx_ll_bus.h **** #define LL_APB1_GRP1_PERIPH_WWDG           RCC_APB1ENR_WWDGEN
 160:Drivers/STM32F3xx_HAL_Driver/Inc/stm32f3xx_ll_bus.h **** #if defined(SPI2)
 161:Drivers/STM32F3xx_HAL_Driver/Inc/stm32f3xx_ll_bus.h **** #define LL_APB1_GRP1_PERIPH_SPI2           RCC_APB1ENR_SPI2EN
 162:Drivers/STM32F3xx_HAL_Driver/Inc/stm32f3xx_ll_bus.h **** #endif /*SPI2*/
 163:Drivers/STM32F3xx_HAL_Driver/Inc/stm32f3xx_ll_bus.h **** #if defined(SPI3)
 164:Drivers/STM32F3xx_HAL_Driver/Inc/stm32f3xx_ll_bus.h **** #define LL_APB1_GRP1_PERIPH_SPI3           RCC_APB1ENR_SPI3EN
 165:Drivers/STM32F3xx_HAL_Driver/Inc/stm32f3xx_ll_bus.h **** #endif /*SPI3*/
 166:Drivers/STM32F3xx_HAL_Driver/Inc/stm32f3xx_ll_bus.h **** #define LL_APB1_GRP1_PERIPH_USART2         RCC_APB1ENR_USART2EN
 167:Drivers/STM32F3xx_HAL_Driver/Inc/stm32f3xx_ll_bus.h **** #define LL_APB1_GRP1_PERIPH_USART3         RCC_APB1ENR_USART3EN
 168:Drivers/STM32F3xx_HAL_Driver/Inc/stm32f3xx_ll_bus.h **** #if defined(UART4)
 169:Drivers/STM32F3xx_HAL_Driver/Inc/stm32f3xx_ll_bus.h **** #define LL_APB1_GRP1_PERIPH_UART4          RCC_APB1ENR_UART4EN
 170:Drivers/STM32F3xx_HAL_Driver/Inc/stm32f3xx_ll_bus.h **** #endif /*UART4*/
 171:Drivers/STM32F3xx_HAL_Driver/Inc/stm32f3xx_ll_bus.h **** #if defined(UART5)
 172:Drivers/STM32F3xx_HAL_Driver/Inc/stm32f3xx_ll_bus.h **** #define LL_APB1_GRP1_PERIPH_UART5          RCC_APB1ENR_UART5EN
 173:Drivers/STM32F3xx_HAL_Driver/Inc/stm32f3xx_ll_bus.h **** #endif /*UART5*/
 174:Drivers/STM32F3xx_HAL_Driver/Inc/stm32f3xx_ll_bus.h **** #define LL_APB1_GRP1_PERIPH_I2C1           RCC_APB1ENR_I2C1EN
 175:Drivers/STM32F3xx_HAL_Driver/Inc/stm32f3xx_ll_bus.h **** #if defined(I2C2)
 176:Drivers/STM32F3xx_HAL_Driver/Inc/stm32f3xx_ll_bus.h **** #define LL_APB1_GRP1_PERIPH_I2C2           RCC_APB1ENR_I2C2EN
 177:Drivers/STM32F3xx_HAL_Driver/Inc/stm32f3xx_ll_bus.h **** #endif /*I2C2*/
 178:Drivers/STM32F3xx_HAL_Driver/Inc/stm32f3xx_ll_bus.h **** #if defined(USB)
 179:Drivers/STM32F3xx_HAL_Driver/Inc/stm32f3xx_ll_bus.h **** #define LL_APB1_GRP1_PERIPH_USB            RCC_APB1ENR_USBEN
 180:Drivers/STM32F3xx_HAL_Driver/Inc/stm32f3xx_ll_bus.h **** #endif /*USB*/
 181:Drivers/STM32F3xx_HAL_Driver/Inc/stm32f3xx_ll_bus.h **** #if defined(CAN)
 182:Drivers/STM32F3xx_HAL_Driver/Inc/stm32f3xx_ll_bus.h **** #define LL_APB1_GRP1_PERIPH_CAN            RCC_APB1ENR_CANEN
 183:Drivers/STM32F3xx_HAL_Driver/Inc/stm32f3xx_ll_bus.h **** #endif /*CAN*/
 184:Drivers/STM32F3xx_HAL_Driver/Inc/stm32f3xx_ll_bus.h **** #if defined(DAC2)
 185:Drivers/STM32F3xx_HAL_Driver/Inc/stm32f3xx_ll_bus.h **** #define LL_APB1_GRP1_PERIPH_DAC2           RCC_APB1ENR_DAC2EN
 186:Drivers/STM32F3xx_HAL_Driver/Inc/stm32f3xx_ll_bus.h **** #endif /*DAC2*/
 187:Drivers/STM32F3xx_HAL_Driver/Inc/stm32f3xx_ll_bus.h **** #define LL_APB1_GRP1_PERIPH_PWR            RCC_APB1ENR_PWREN
 188:Drivers/STM32F3xx_HAL_Driver/Inc/stm32f3xx_ll_bus.h **** #define LL_APB1_GRP1_PERIPH_DAC1           RCC_APB1ENR_DAC1EN
ARM GAS  /tmp/ccMxhqvP.s 			page 6


 189:Drivers/STM32F3xx_HAL_Driver/Inc/stm32f3xx_ll_bus.h **** #if defined(CEC)
 190:Drivers/STM32F3xx_HAL_Driver/Inc/stm32f3xx_ll_bus.h **** #define LL_APB1_GRP1_PERIPH_CEC            RCC_APB1ENR_CECEN
 191:Drivers/STM32F3xx_HAL_Driver/Inc/stm32f3xx_ll_bus.h **** #endif /*CEC*/
 192:Drivers/STM32F3xx_HAL_Driver/Inc/stm32f3xx_ll_bus.h **** #if defined(I2C3)
 193:Drivers/STM32F3xx_HAL_Driver/Inc/stm32f3xx_ll_bus.h **** #define LL_APB1_GRP1_PERIPH_I2C3           RCC_APB1ENR_I2C3EN
 194:Drivers/STM32F3xx_HAL_Driver/Inc/stm32f3xx_ll_bus.h **** #endif /*I2C3*/
 195:Drivers/STM32F3xx_HAL_Driver/Inc/stm32f3xx_ll_bus.h **** /**
 196:Drivers/STM32F3xx_HAL_Driver/Inc/stm32f3xx_ll_bus.h ****   * @}
 197:Drivers/STM32F3xx_HAL_Driver/Inc/stm32f3xx_ll_bus.h ****   */
 198:Drivers/STM32F3xx_HAL_Driver/Inc/stm32f3xx_ll_bus.h **** 
 199:Drivers/STM32F3xx_HAL_Driver/Inc/stm32f3xx_ll_bus.h **** /** @defgroup BUS_LL_EC_APB2_GRP1_PERIPH  APB2 GRP1 PERIPH
 200:Drivers/STM32F3xx_HAL_Driver/Inc/stm32f3xx_ll_bus.h ****   * @{
 201:Drivers/STM32F3xx_HAL_Driver/Inc/stm32f3xx_ll_bus.h ****   */
 202:Drivers/STM32F3xx_HAL_Driver/Inc/stm32f3xx_ll_bus.h **** #define LL_APB2_GRP1_PERIPH_ALL            (uint32_t)0xFFFFFFFFU
 203:Drivers/STM32F3xx_HAL_Driver/Inc/stm32f3xx_ll_bus.h **** #define LL_APB2_GRP1_PERIPH_SYSCFG         RCC_APB2ENR_SYSCFGEN
 204:Drivers/STM32F3xx_HAL_Driver/Inc/stm32f3xx_ll_bus.h **** #if defined(RCC_APB2ENR_ADC1EN)
 205:Drivers/STM32F3xx_HAL_Driver/Inc/stm32f3xx_ll_bus.h **** #define LL_APB2_GRP1_PERIPH_ADC1           RCC_APB2ENR_ADC1EN
 206:Drivers/STM32F3xx_HAL_Driver/Inc/stm32f3xx_ll_bus.h **** #endif /*RCC_APB2ENR_ADC1EN*/
 207:Drivers/STM32F3xx_HAL_Driver/Inc/stm32f3xx_ll_bus.h **** #if defined(TIM1)
 208:Drivers/STM32F3xx_HAL_Driver/Inc/stm32f3xx_ll_bus.h **** #define LL_APB2_GRP1_PERIPH_TIM1           RCC_APB2ENR_TIM1EN
 209:Drivers/STM32F3xx_HAL_Driver/Inc/stm32f3xx_ll_bus.h **** #endif /*TIM1*/
 210:Drivers/STM32F3xx_HAL_Driver/Inc/stm32f3xx_ll_bus.h **** #if defined(SPI1)
 211:Drivers/STM32F3xx_HAL_Driver/Inc/stm32f3xx_ll_bus.h **** #define LL_APB2_GRP1_PERIPH_SPI1           RCC_APB2ENR_SPI1EN
 212:Drivers/STM32F3xx_HAL_Driver/Inc/stm32f3xx_ll_bus.h **** #endif /*SPI1*/
 213:Drivers/STM32F3xx_HAL_Driver/Inc/stm32f3xx_ll_bus.h **** #if defined(TIM8)
 214:Drivers/STM32F3xx_HAL_Driver/Inc/stm32f3xx_ll_bus.h **** #define LL_APB2_GRP1_PERIPH_TIM8           RCC_APB2ENR_TIM8EN
 215:Drivers/STM32F3xx_HAL_Driver/Inc/stm32f3xx_ll_bus.h **** #endif /*TIM8*/
 216:Drivers/STM32F3xx_HAL_Driver/Inc/stm32f3xx_ll_bus.h **** #define LL_APB2_GRP1_PERIPH_USART1         RCC_APB2ENR_USART1EN
 217:Drivers/STM32F3xx_HAL_Driver/Inc/stm32f3xx_ll_bus.h **** #if defined(SPI4)
 218:Drivers/STM32F3xx_HAL_Driver/Inc/stm32f3xx_ll_bus.h **** #define LL_APB2_GRP1_PERIPH_SPI4           RCC_APB2ENR_SPI4EN
 219:Drivers/STM32F3xx_HAL_Driver/Inc/stm32f3xx_ll_bus.h **** #endif /*SPI4*/
 220:Drivers/STM32F3xx_HAL_Driver/Inc/stm32f3xx_ll_bus.h **** #define LL_APB2_GRP1_PERIPH_TIM15          RCC_APB2ENR_TIM15EN
 221:Drivers/STM32F3xx_HAL_Driver/Inc/stm32f3xx_ll_bus.h **** #define LL_APB2_GRP1_PERIPH_TIM16          RCC_APB2ENR_TIM16EN
 222:Drivers/STM32F3xx_HAL_Driver/Inc/stm32f3xx_ll_bus.h **** #define LL_APB2_GRP1_PERIPH_TIM17          RCC_APB2ENR_TIM17EN
 223:Drivers/STM32F3xx_HAL_Driver/Inc/stm32f3xx_ll_bus.h **** #if defined(TIM19)
 224:Drivers/STM32F3xx_HAL_Driver/Inc/stm32f3xx_ll_bus.h **** #define LL_APB2_GRP1_PERIPH_TIM19          RCC_APB2ENR_TIM19EN
 225:Drivers/STM32F3xx_HAL_Driver/Inc/stm32f3xx_ll_bus.h **** #endif /*TIM19*/
 226:Drivers/STM32F3xx_HAL_Driver/Inc/stm32f3xx_ll_bus.h **** #if defined(TIM20)
 227:Drivers/STM32F3xx_HAL_Driver/Inc/stm32f3xx_ll_bus.h **** #define LL_APB2_GRP1_PERIPH_TIM20          RCC_APB2ENR_TIM20EN
 228:Drivers/STM32F3xx_HAL_Driver/Inc/stm32f3xx_ll_bus.h **** #endif /*TIM20*/
 229:Drivers/STM32F3xx_HAL_Driver/Inc/stm32f3xx_ll_bus.h **** #if defined(HRTIM1)
 230:Drivers/STM32F3xx_HAL_Driver/Inc/stm32f3xx_ll_bus.h **** #define LL_APB2_GRP1_PERIPH_HRTIM1         RCC_APB2ENR_HRTIM1EN
 231:Drivers/STM32F3xx_HAL_Driver/Inc/stm32f3xx_ll_bus.h **** #endif /*HRTIM1*/
 232:Drivers/STM32F3xx_HAL_Driver/Inc/stm32f3xx_ll_bus.h **** #if defined(SDADC1)
 233:Drivers/STM32F3xx_HAL_Driver/Inc/stm32f3xx_ll_bus.h **** #define LL_APB2_GRP1_PERIPH_SDADC1         RCC_APB2ENR_SDADC1EN
 234:Drivers/STM32F3xx_HAL_Driver/Inc/stm32f3xx_ll_bus.h **** #endif /*SDADC1*/
 235:Drivers/STM32F3xx_HAL_Driver/Inc/stm32f3xx_ll_bus.h **** #if defined(SDADC2)
 236:Drivers/STM32F3xx_HAL_Driver/Inc/stm32f3xx_ll_bus.h **** #define LL_APB2_GRP1_PERIPH_SDADC2         RCC_APB2ENR_SDADC2EN
 237:Drivers/STM32F3xx_HAL_Driver/Inc/stm32f3xx_ll_bus.h **** #endif /*SDADC2*/
 238:Drivers/STM32F3xx_HAL_Driver/Inc/stm32f3xx_ll_bus.h **** #if defined(SDADC3)
 239:Drivers/STM32F3xx_HAL_Driver/Inc/stm32f3xx_ll_bus.h **** #define LL_APB2_GRP1_PERIPH_SDADC3         RCC_APB2ENR_SDADC3EN
 240:Drivers/STM32F3xx_HAL_Driver/Inc/stm32f3xx_ll_bus.h **** #endif /*SDADC3*/
 241:Drivers/STM32F3xx_HAL_Driver/Inc/stm32f3xx_ll_bus.h **** /**
 242:Drivers/STM32F3xx_HAL_Driver/Inc/stm32f3xx_ll_bus.h ****   * @}
 243:Drivers/STM32F3xx_HAL_Driver/Inc/stm32f3xx_ll_bus.h ****   */
 244:Drivers/STM32F3xx_HAL_Driver/Inc/stm32f3xx_ll_bus.h **** 
 245:Drivers/STM32F3xx_HAL_Driver/Inc/stm32f3xx_ll_bus.h **** /**
ARM GAS  /tmp/ccMxhqvP.s 			page 7


 246:Drivers/STM32F3xx_HAL_Driver/Inc/stm32f3xx_ll_bus.h ****   * @}
 247:Drivers/STM32F3xx_HAL_Driver/Inc/stm32f3xx_ll_bus.h ****   */
 248:Drivers/STM32F3xx_HAL_Driver/Inc/stm32f3xx_ll_bus.h **** 
 249:Drivers/STM32F3xx_HAL_Driver/Inc/stm32f3xx_ll_bus.h **** /* Exported macro ------------------------------------------------------------*/
 250:Drivers/STM32F3xx_HAL_Driver/Inc/stm32f3xx_ll_bus.h **** 
 251:Drivers/STM32F3xx_HAL_Driver/Inc/stm32f3xx_ll_bus.h **** /* Exported functions --------------------------------------------------------*/
 252:Drivers/STM32F3xx_HAL_Driver/Inc/stm32f3xx_ll_bus.h **** /** @defgroup BUS_LL_Exported_Functions BUS Exported Functions
 253:Drivers/STM32F3xx_HAL_Driver/Inc/stm32f3xx_ll_bus.h ****   * @{
 254:Drivers/STM32F3xx_HAL_Driver/Inc/stm32f3xx_ll_bus.h ****   */
 255:Drivers/STM32F3xx_HAL_Driver/Inc/stm32f3xx_ll_bus.h **** 
 256:Drivers/STM32F3xx_HAL_Driver/Inc/stm32f3xx_ll_bus.h **** /** @defgroup BUS_LL_EF_AHB1 AHB1
 257:Drivers/STM32F3xx_HAL_Driver/Inc/stm32f3xx_ll_bus.h ****   * @{
 258:Drivers/STM32F3xx_HAL_Driver/Inc/stm32f3xx_ll_bus.h ****   */
 259:Drivers/STM32F3xx_HAL_Driver/Inc/stm32f3xx_ll_bus.h **** 
 260:Drivers/STM32F3xx_HAL_Driver/Inc/stm32f3xx_ll_bus.h **** /**
 261:Drivers/STM32F3xx_HAL_Driver/Inc/stm32f3xx_ll_bus.h ****   * @brief  Enable AHB1 peripherals clock.
 262:Drivers/STM32F3xx_HAL_Driver/Inc/stm32f3xx_ll_bus.h ****   * @rmtoll AHBENR       DMA1EN        LL_AHB1_GRP1_EnableClock\n
 263:Drivers/STM32F3xx_HAL_Driver/Inc/stm32f3xx_ll_bus.h ****   *         AHBENR       DMA2EN        LL_AHB1_GRP1_EnableClock\n
 264:Drivers/STM32F3xx_HAL_Driver/Inc/stm32f3xx_ll_bus.h ****   *         AHBENR       SRAMEN        LL_AHB1_GRP1_EnableClock\n
 265:Drivers/STM32F3xx_HAL_Driver/Inc/stm32f3xx_ll_bus.h ****   *         AHBENR       FLITFEN       LL_AHB1_GRP1_EnableClock\n
 266:Drivers/STM32F3xx_HAL_Driver/Inc/stm32f3xx_ll_bus.h ****   *         AHBENR       FMCEN         LL_AHB1_GRP1_EnableClock\n
 267:Drivers/STM32F3xx_HAL_Driver/Inc/stm32f3xx_ll_bus.h ****   *         AHBENR       CRCEN         LL_AHB1_GRP1_EnableClock\n
 268:Drivers/STM32F3xx_HAL_Driver/Inc/stm32f3xx_ll_bus.h ****   *         AHBENR       GPIOHEN       LL_AHB1_GRP1_EnableClock\n
 269:Drivers/STM32F3xx_HAL_Driver/Inc/stm32f3xx_ll_bus.h ****   *         AHBENR       GPIOAEN       LL_AHB1_GRP1_EnableClock\n
 270:Drivers/STM32F3xx_HAL_Driver/Inc/stm32f3xx_ll_bus.h ****   *         AHBENR       GPIOBEN       LL_AHB1_GRP1_EnableClock\n
 271:Drivers/STM32F3xx_HAL_Driver/Inc/stm32f3xx_ll_bus.h ****   *         AHBENR       GPIOCEN       LL_AHB1_GRP1_EnableClock\n
 272:Drivers/STM32F3xx_HAL_Driver/Inc/stm32f3xx_ll_bus.h ****   *         AHBENR       GPIODEN       LL_AHB1_GRP1_EnableClock\n
 273:Drivers/STM32F3xx_HAL_Driver/Inc/stm32f3xx_ll_bus.h ****   *         AHBENR       GPIOEEN       LL_AHB1_GRP1_EnableClock\n
 274:Drivers/STM32F3xx_HAL_Driver/Inc/stm32f3xx_ll_bus.h ****   *         AHBENR       GPIOFEN       LL_AHB1_GRP1_EnableClock\n
 275:Drivers/STM32F3xx_HAL_Driver/Inc/stm32f3xx_ll_bus.h ****   *         AHBENR       GPIOGEN       LL_AHB1_GRP1_EnableClock\n
 276:Drivers/STM32F3xx_HAL_Driver/Inc/stm32f3xx_ll_bus.h ****   *         AHBENR       TSCEN         LL_AHB1_GRP1_EnableClock\n
 277:Drivers/STM32F3xx_HAL_Driver/Inc/stm32f3xx_ll_bus.h ****   *         AHBENR       ADC1EN        LL_AHB1_GRP1_EnableClock\n
 278:Drivers/STM32F3xx_HAL_Driver/Inc/stm32f3xx_ll_bus.h ****   *         AHBENR       ADC12EN       LL_AHB1_GRP1_EnableClock\n
 279:Drivers/STM32F3xx_HAL_Driver/Inc/stm32f3xx_ll_bus.h ****   *         AHBENR       ADC34EN       LL_AHB1_GRP1_EnableClock
 280:Drivers/STM32F3xx_HAL_Driver/Inc/stm32f3xx_ll_bus.h ****   * @param  Periphs This parameter can be a combination of the following values:
 281:Drivers/STM32F3xx_HAL_Driver/Inc/stm32f3xx_ll_bus.h ****   *         @arg @ref LL_AHB1_GRP1_PERIPH_DMA1
 282:Drivers/STM32F3xx_HAL_Driver/Inc/stm32f3xx_ll_bus.h ****   *         @arg @ref LL_AHB1_GRP1_PERIPH_DMA2 (*)
 283:Drivers/STM32F3xx_HAL_Driver/Inc/stm32f3xx_ll_bus.h ****   *         @arg @ref LL_AHB1_GRP1_PERIPH_SRAM
 284:Drivers/STM32F3xx_HAL_Driver/Inc/stm32f3xx_ll_bus.h ****   *         @arg @ref LL_AHB1_GRP1_PERIPH_FLASH
 285:Drivers/STM32F3xx_HAL_Driver/Inc/stm32f3xx_ll_bus.h ****   *         @arg @ref LL_AHB1_GRP1_PERIPH_FMC (*)
 286:Drivers/STM32F3xx_HAL_Driver/Inc/stm32f3xx_ll_bus.h ****   *         @arg @ref LL_AHB1_GRP1_PERIPH_CRC
 287:Drivers/STM32F3xx_HAL_Driver/Inc/stm32f3xx_ll_bus.h ****   *         @arg @ref LL_AHB1_GRP1_PERIPH_GPIOH (*)
 288:Drivers/STM32F3xx_HAL_Driver/Inc/stm32f3xx_ll_bus.h ****   *         @arg @ref LL_AHB1_GRP1_PERIPH_GPIOA
 289:Drivers/STM32F3xx_HAL_Driver/Inc/stm32f3xx_ll_bus.h ****   *         @arg @ref LL_AHB1_GRP1_PERIPH_GPIOB
 290:Drivers/STM32F3xx_HAL_Driver/Inc/stm32f3xx_ll_bus.h ****   *         @arg @ref LL_AHB1_GRP1_PERIPH_GPIOC
 291:Drivers/STM32F3xx_HAL_Driver/Inc/stm32f3xx_ll_bus.h ****   *         @arg @ref LL_AHB1_GRP1_PERIPH_GPIOD
 292:Drivers/STM32F3xx_HAL_Driver/Inc/stm32f3xx_ll_bus.h ****   *         @arg @ref LL_AHB1_GRP1_PERIPH_GPIOE (*)
 293:Drivers/STM32F3xx_HAL_Driver/Inc/stm32f3xx_ll_bus.h ****   *         @arg @ref LL_AHB1_GRP1_PERIPH_GPIOF
 294:Drivers/STM32F3xx_HAL_Driver/Inc/stm32f3xx_ll_bus.h ****   *         @arg @ref LL_AHB1_GRP1_PERIPH_GPIOG (*)
 295:Drivers/STM32F3xx_HAL_Driver/Inc/stm32f3xx_ll_bus.h ****   *         @arg @ref LL_AHB1_GRP1_PERIPH_TSC
 296:Drivers/STM32F3xx_HAL_Driver/Inc/stm32f3xx_ll_bus.h ****   *         @arg @ref LL_AHB1_GRP1_PERIPH_ADC1 (*)
 297:Drivers/STM32F3xx_HAL_Driver/Inc/stm32f3xx_ll_bus.h ****   *         @arg @ref LL_AHB1_GRP1_PERIPH_ADC12 (*)
 298:Drivers/STM32F3xx_HAL_Driver/Inc/stm32f3xx_ll_bus.h ****   *         @arg @ref LL_AHB1_GRP1_PERIPH_ADC34 (*)
 299:Drivers/STM32F3xx_HAL_Driver/Inc/stm32f3xx_ll_bus.h ****   *
 300:Drivers/STM32F3xx_HAL_Driver/Inc/stm32f3xx_ll_bus.h ****   *         (*) value not defined in all devices.
 301:Drivers/STM32F3xx_HAL_Driver/Inc/stm32f3xx_ll_bus.h ****   * @retval None
 302:Drivers/STM32F3xx_HAL_Driver/Inc/stm32f3xx_ll_bus.h **** */
ARM GAS  /tmp/ccMxhqvP.s 			page 8


 303:Drivers/STM32F3xx_HAL_Driver/Inc/stm32f3xx_ll_bus.h **** __STATIC_INLINE void LL_AHB1_GRP1_EnableClock(uint32_t Periphs)
 304:Drivers/STM32F3xx_HAL_Driver/Inc/stm32f3xx_ll_bus.h **** {
 305:Drivers/STM32F3xx_HAL_Driver/Inc/stm32f3xx_ll_bus.h ****   __IO uint32_t tmpreg;
 306:Drivers/STM32F3xx_HAL_Driver/Inc/stm32f3xx_ll_bus.h ****   SET_BIT(RCC->AHBENR, Periphs);
 307:Drivers/STM32F3xx_HAL_Driver/Inc/stm32f3xx_ll_bus.h ****   /* Delay after an RCC peripheral clock enabling */
 308:Drivers/STM32F3xx_HAL_Driver/Inc/stm32f3xx_ll_bus.h ****   tmpreg = READ_BIT(RCC->AHBENR, Periphs);
 309:Drivers/STM32F3xx_HAL_Driver/Inc/stm32f3xx_ll_bus.h ****   (void)tmpreg;
 310:Drivers/STM32F3xx_HAL_Driver/Inc/stm32f3xx_ll_bus.h **** }
 311:Drivers/STM32F3xx_HAL_Driver/Inc/stm32f3xx_ll_bus.h **** 
 312:Drivers/STM32F3xx_HAL_Driver/Inc/stm32f3xx_ll_bus.h **** /**
 313:Drivers/STM32F3xx_HAL_Driver/Inc/stm32f3xx_ll_bus.h ****   * @brief  Check if AHB1 peripheral clock is enabled or not
 314:Drivers/STM32F3xx_HAL_Driver/Inc/stm32f3xx_ll_bus.h ****   * @rmtoll AHBENR       DMA1EN        LL_AHB1_GRP1_IsEnabledClock\n
 315:Drivers/STM32F3xx_HAL_Driver/Inc/stm32f3xx_ll_bus.h ****   *         AHBENR       DMA2EN        LL_AHB1_GRP1_IsEnabledClock\n
 316:Drivers/STM32F3xx_HAL_Driver/Inc/stm32f3xx_ll_bus.h ****   *         AHBENR       SRAMEN        LL_AHB1_GRP1_IsEnabledClock\n
 317:Drivers/STM32F3xx_HAL_Driver/Inc/stm32f3xx_ll_bus.h ****   *         AHBENR       FLITFEN       LL_AHB1_GRP1_IsEnabledClock\n
 318:Drivers/STM32F3xx_HAL_Driver/Inc/stm32f3xx_ll_bus.h ****   *         AHBENR       FMCEN         LL_AHB1_GRP1_IsEnabledClock\n
 319:Drivers/STM32F3xx_HAL_Driver/Inc/stm32f3xx_ll_bus.h ****   *         AHBENR       CRCEN         LL_AHB1_GRP1_IsEnabledClock\n
 320:Drivers/STM32F3xx_HAL_Driver/Inc/stm32f3xx_ll_bus.h ****   *         AHBENR       GPIOHEN       LL_AHB1_GRP1_IsEnabledClock\n
 321:Drivers/STM32F3xx_HAL_Driver/Inc/stm32f3xx_ll_bus.h ****   *         AHBENR       GPIOAEN       LL_AHB1_GRP1_IsEnabledClock\n
 322:Drivers/STM32F3xx_HAL_Driver/Inc/stm32f3xx_ll_bus.h ****   *         AHBENR       GPIOBEN       LL_AHB1_GRP1_IsEnabledClock\n
 323:Drivers/STM32F3xx_HAL_Driver/Inc/stm32f3xx_ll_bus.h ****   *         AHBENR       GPIOCEN       LL_AHB1_GRP1_IsEnabledClock\n
 324:Drivers/STM32F3xx_HAL_Driver/Inc/stm32f3xx_ll_bus.h ****   *         AHBENR       GPIODEN       LL_AHB1_GRP1_IsEnabledClock\n
 325:Drivers/STM32F3xx_HAL_Driver/Inc/stm32f3xx_ll_bus.h ****   *         AHBENR       GPIOEEN       LL_AHB1_GRP1_IsEnabledClock\n
 326:Drivers/STM32F3xx_HAL_Driver/Inc/stm32f3xx_ll_bus.h ****   *         AHBENR       GPIOFEN       LL_AHB1_GRP1_IsEnabledClock\n
 327:Drivers/STM32F3xx_HAL_Driver/Inc/stm32f3xx_ll_bus.h ****   *         AHBENR       GPIOGEN       LL_AHB1_GRP1_IsEnabledClock\n
 328:Drivers/STM32F3xx_HAL_Driver/Inc/stm32f3xx_ll_bus.h ****   *         AHBENR       TSCEN         LL_AHB1_GRP1_IsEnabledClock\n
 329:Drivers/STM32F3xx_HAL_Driver/Inc/stm32f3xx_ll_bus.h ****   *         AHBENR       ADC1EN        LL_AHB1_GRP1_IsEnabledClock\n
 330:Drivers/STM32F3xx_HAL_Driver/Inc/stm32f3xx_ll_bus.h ****   *         AHBENR       ADC12EN       LL_AHB1_GRP1_IsEnabledClock\n
 331:Drivers/STM32F3xx_HAL_Driver/Inc/stm32f3xx_ll_bus.h ****   *         AHBENR       ADC34EN       LL_AHB1_GRP1_IsEnabledClock
 332:Drivers/STM32F3xx_HAL_Driver/Inc/stm32f3xx_ll_bus.h ****   * @param  Periphs This parameter can be a combination of the following values:
 333:Drivers/STM32F3xx_HAL_Driver/Inc/stm32f3xx_ll_bus.h ****   *         @arg @ref LL_AHB1_GRP1_PERIPH_DMA1
 334:Drivers/STM32F3xx_HAL_Driver/Inc/stm32f3xx_ll_bus.h ****   *         @arg @ref LL_AHB1_GRP1_PERIPH_DMA2 (*)
 335:Drivers/STM32F3xx_HAL_Driver/Inc/stm32f3xx_ll_bus.h ****   *         @arg @ref LL_AHB1_GRP1_PERIPH_SRAM
 336:Drivers/STM32F3xx_HAL_Driver/Inc/stm32f3xx_ll_bus.h ****   *         @arg @ref LL_AHB1_GRP1_PERIPH_FLASH
 337:Drivers/STM32F3xx_HAL_Driver/Inc/stm32f3xx_ll_bus.h ****   *         @arg @ref LL_AHB1_GRP1_PERIPH_FMC (*)
 338:Drivers/STM32F3xx_HAL_Driver/Inc/stm32f3xx_ll_bus.h ****   *         @arg @ref LL_AHB1_GRP1_PERIPH_CRC
 339:Drivers/STM32F3xx_HAL_Driver/Inc/stm32f3xx_ll_bus.h ****   *         @arg @ref LL_AHB1_GRP1_PERIPH_GPIOH (*)
 340:Drivers/STM32F3xx_HAL_Driver/Inc/stm32f3xx_ll_bus.h ****   *         @arg @ref LL_AHB1_GRP1_PERIPH_GPIOA
 341:Drivers/STM32F3xx_HAL_Driver/Inc/stm32f3xx_ll_bus.h ****   *         @arg @ref LL_AHB1_GRP1_PERIPH_GPIOB
 342:Drivers/STM32F3xx_HAL_Driver/Inc/stm32f3xx_ll_bus.h ****   *         @arg @ref LL_AHB1_GRP1_PERIPH_GPIOC
 343:Drivers/STM32F3xx_HAL_Driver/Inc/stm32f3xx_ll_bus.h ****   *         @arg @ref LL_AHB1_GRP1_PERIPH_GPIOD
 344:Drivers/STM32F3xx_HAL_Driver/Inc/stm32f3xx_ll_bus.h ****   *         @arg @ref LL_AHB1_GRP1_PERIPH_GPIOE (*)
 345:Drivers/STM32F3xx_HAL_Driver/Inc/stm32f3xx_ll_bus.h ****   *         @arg @ref LL_AHB1_GRP1_PERIPH_GPIOF
 346:Drivers/STM32F3xx_HAL_Driver/Inc/stm32f3xx_ll_bus.h ****   *         @arg @ref LL_AHB1_GRP1_PERIPH_GPIOG (*)
 347:Drivers/STM32F3xx_HAL_Driver/Inc/stm32f3xx_ll_bus.h ****   *         @arg @ref LL_AHB1_GRP1_PERIPH_TSC
 348:Drivers/STM32F3xx_HAL_Driver/Inc/stm32f3xx_ll_bus.h ****   *         @arg @ref LL_AHB1_GRP1_PERIPH_ADC1 (*)
 349:Drivers/STM32F3xx_HAL_Driver/Inc/stm32f3xx_ll_bus.h ****   *         @arg @ref LL_AHB1_GRP1_PERIPH_ADC12 (*)
 350:Drivers/STM32F3xx_HAL_Driver/Inc/stm32f3xx_ll_bus.h ****   *         @arg @ref LL_AHB1_GRP1_PERIPH_ADC34 (*)
 351:Drivers/STM32F3xx_HAL_Driver/Inc/stm32f3xx_ll_bus.h ****   *
 352:Drivers/STM32F3xx_HAL_Driver/Inc/stm32f3xx_ll_bus.h ****   *         (*) value not defined in all devices.
 353:Drivers/STM32F3xx_HAL_Driver/Inc/stm32f3xx_ll_bus.h ****   * @retval State of Periphs (1 or 0).
 354:Drivers/STM32F3xx_HAL_Driver/Inc/stm32f3xx_ll_bus.h **** */
 355:Drivers/STM32F3xx_HAL_Driver/Inc/stm32f3xx_ll_bus.h **** __STATIC_INLINE uint32_t LL_AHB1_GRP1_IsEnabledClock(uint32_t Periphs)
 356:Drivers/STM32F3xx_HAL_Driver/Inc/stm32f3xx_ll_bus.h **** {
 357:Drivers/STM32F3xx_HAL_Driver/Inc/stm32f3xx_ll_bus.h ****   return (READ_BIT(RCC->AHBENR, Periphs) == Periphs);
 358:Drivers/STM32F3xx_HAL_Driver/Inc/stm32f3xx_ll_bus.h **** }
 359:Drivers/STM32F3xx_HAL_Driver/Inc/stm32f3xx_ll_bus.h **** 
ARM GAS  /tmp/ccMxhqvP.s 			page 9


 360:Drivers/STM32F3xx_HAL_Driver/Inc/stm32f3xx_ll_bus.h **** /**
 361:Drivers/STM32F3xx_HAL_Driver/Inc/stm32f3xx_ll_bus.h ****   * @brief  Disable AHB1 peripherals clock.
 362:Drivers/STM32F3xx_HAL_Driver/Inc/stm32f3xx_ll_bus.h ****   * @rmtoll AHBENR       DMA1EN        LL_AHB1_GRP1_DisableClock\n
 363:Drivers/STM32F3xx_HAL_Driver/Inc/stm32f3xx_ll_bus.h ****   *         AHBENR       DMA2EN        LL_AHB1_GRP1_DisableClock\n
 364:Drivers/STM32F3xx_HAL_Driver/Inc/stm32f3xx_ll_bus.h ****   *         AHBENR       SRAMEN        LL_AHB1_GRP1_DisableClock\n
 365:Drivers/STM32F3xx_HAL_Driver/Inc/stm32f3xx_ll_bus.h ****   *         AHBENR       FLITFEN       LL_AHB1_GRP1_DisableClock\n
 366:Drivers/STM32F3xx_HAL_Driver/Inc/stm32f3xx_ll_bus.h ****   *         AHBENR       FMCEN         LL_AHB1_GRP1_DisableClock\n
 367:Drivers/STM32F3xx_HAL_Driver/Inc/stm32f3xx_ll_bus.h ****   *         AHBENR       CRCEN         LL_AHB1_GRP1_DisableClock\n
 368:Drivers/STM32F3xx_HAL_Driver/Inc/stm32f3xx_ll_bus.h ****   *         AHBENR       GPIOHEN       LL_AHB1_GRP1_DisableClock\n
 369:Drivers/STM32F3xx_HAL_Driver/Inc/stm32f3xx_ll_bus.h ****   *         AHBENR       GPIOAEN       LL_AHB1_GRP1_DisableClock\n
 370:Drivers/STM32F3xx_HAL_Driver/Inc/stm32f3xx_ll_bus.h ****   *         AHBENR       GPIOBEN       LL_AHB1_GRP1_DisableClock\n
 371:Drivers/STM32F3xx_HAL_Driver/Inc/stm32f3xx_ll_bus.h ****   *         AHBENR       GPIOCEN       LL_AHB1_GRP1_DisableClock\n
 372:Drivers/STM32F3xx_HAL_Driver/Inc/stm32f3xx_ll_bus.h ****   *         AHBENR       GPIODEN       LL_AHB1_GRP1_DisableClock\n
 373:Drivers/STM32F3xx_HAL_Driver/Inc/stm32f3xx_ll_bus.h ****   *         AHBENR       GPIOEEN       LL_AHB1_GRP1_DisableClock\n
 374:Drivers/STM32F3xx_HAL_Driver/Inc/stm32f3xx_ll_bus.h ****   *         AHBENR       GPIOFEN       LL_AHB1_GRP1_DisableClock\n
 375:Drivers/STM32F3xx_HAL_Driver/Inc/stm32f3xx_ll_bus.h ****   *         AHBENR       GPIOGEN       LL_AHB1_GRP1_DisableClock\n
 376:Drivers/STM32F3xx_HAL_Driver/Inc/stm32f3xx_ll_bus.h ****   *         AHBENR       TSCEN         LL_AHB1_GRP1_DisableClock\n
 377:Drivers/STM32F3xx_HAL_Driver/Inc/stm32f3xx_ll_bus.h ****   *         AHBENR       ADC1EN        LL_AHB1_GRP1_DisableClock\n
 378:Drivers/STM32F3xx_HAL_Driver/Inc/stm32f3xx_ll_bus.h ****   *         AHBENR       ADC12EN       LL_AHB1_GRP1_DisableClock\n
 379:Drivers/STM32F3xx_HAL_Driver/Inc/stm32f3xx_ll_bus.h ****   *         AHBENR       ADC34EN       LL_AHB1_GRP1_DisableClock
 380:Drivers/STM32F3xx_HAL_Driver/Inc/stm32f3xx_ll_bus.h ****   * @param  Periphs This parameter can be a combination of the following values:
 381:Drivers/STM32F3xx_HAL_Driver/Inc/stm32f3xx_ll_bus.h ****   *         @arg @ref LL_AHB1_GRP1_PERIPH_DMA1
 382:Drivers/STM32F3xx_HAL_Driver/Inc/stm32f3xx_ll_bus.h ****   *         @arg @ref LL_AHB1_GRP1_PERIPH_DMA2 (*)
 383:Drivers/STM32F3xx_HAL_Driver/Inc/stm32f3xx_ll_bus.h ****   *         @arg @ref LL_AHB1_GRP1_PERIPH_SRAM
 384:Drivers/STM32F3xx_HAL_Driver/Inc/stm32f3xx_ll_bus.h ****   *         @arg @ref LL_AHB1_GRP1_PERIPH_FLASH
 385:Drivers/STM32F3xx_HAL_Driver/Inc/stm32f3xx_ll_bus.h ****   *         @arg @ref LL_AHB1_GRP1_PERIPH_FMC (*)
 386:Drivers/STM32F3xx_HAL_Driver/Inc/stm32f3xx_ll_bus.h ****   *         @arg @ref LL_AHB1_GRP1_PERIPH_CRC
 387:Drivers/STM32F3xx_HAL_Driver/Inc/stm32f3xx_ll_bus.h ****   *         @arg @ref LL_AHB1_GRP1_PERIPH_GPIOH (*)
 388:Drivers/STM32F3xx_HAL_Driver/Inc/stm32f3xx_ll_bus.h ****   *         @arg @ref LL_AHB1_GRP1_PERIPH_GPIOA
 389:Drivers/STM32F3xx_HAL_Driver/Inc/stm32f3xx_ll_bus.h ****   *         @arg @ref LL_AHB1_GRP1_PERIPH_GPIOB
 390:Drivers/STM32F3xx_HAL_Driver/Inc/stm32f3xx_ll_bus.h ****   *         @arg @ref LL_AHB1_GRP1_PERIPH_GPIOC
 391:Drivers/STM32F3xx_HAL_Driver/Inc/stm32f3xx_ll_bus.h ****   *         @arg @ref LL_AHB1_GRP1_PERIPH_GPIOD
 392:Drivers/STM32F3xx_HAL_Driver/Inc/stm32f3xx_ll_bus.h ****   *         @arg @ref LL_AHB1_GRP1_PERIPH_GPIOE (*)
 393:Drivers/STM32F3xx_HAL_Driver/Inc/stm32f3xx_ll_bus.h ****   *         @arg @ref LL_AHB1_GRP1_PERIPH_GPIOF
 394:Drivers/STM32F3xx_HAL_Driver/Inc/stm32f3xx_ll_bus.h ****   *         @arg @ref LL_AHB1_GRP1_PERIPH_GPIOG (*)
 395:Drivers/STM32F3xx_HAL_Driver/Inc/stm32f3xx_ll_bus.h ****   *         @arg @ref LL_AHB1_GRP1_PERIPH_TSC
 396:Drivers/STM32F3xx_HAL_Driver/Inc/stm32f3xx_ll_bus.h ****   *         @arg @ref LL_AHB1_GRP1_PERIPH_ADC1 (*)
 397:Drivers/STM32F3xx_HAL_Driver/Inc/stm32f3xx_ll_bus.h ****   *         @arg @ref LL_AHB1_GRP1_PERIPH_ADC12 (*)
 398:Drivers/STM32F3xx_HAL_Driver/Inc/stm32f3xx_ll_bus.h ****   *         @arg @ref LL_AHB1_GRP1_PERIPH_ADC34 (*)
 399:Drivers/STM32F3xx_HAL_Driver/Inc/stm32f3xx_ll_bus.h ****   *
 400:Drivers/STM32F3xx_HAL_Driver/Inc/stm32f3xx_ll_bus.h ****   *         (*) value not defined in all devices.
 401:Drivers/STM32F3xx_HAL_Driver/Inc/stm32f3xx_ll_bus.h ****   * @retval None
 402:Drivers/STM32F3xx_HAL_Driver/Inc/stm32f3xx_ll_bus.h **** */
 403:Drivers/STM32F3xx_HAL_Driver/Inc/stm32f3xx_ll_bus.h **** __STATIC_INLINE void LL_AHB1_GRP1_DisableClock(uint32_t Periphs)
 404:Drivers/STM32F3xx_HAL_Driver/Inc/stm32f3xx_ll_bus.h **** {
 405:Drivers/STM32F3xx_HAL_Driver/Inc/stm32f3xx_ll_bus.h ****   CLEAR_BIT(RCC->AHBENR, Periphs);
 406:Drivers/STM32F3xx_HAL_Driver/Inc/stm32f3xx_ll_bus.h **** }
 407:Drivers/STM32F3xx_HAL_Driver/Inc/stm32f3xx_ll_bus.h **** 
 408:Drivers/STM32F3xx_HAL_Driver/Inc/stm32f3xx_ll_bus.h **** /**
 409:Drivers/STM32F3xx_HAL_Driver/Inc/stm32f3xx_ll_bus.h ****   * @brief  Force AHB1 peripherals reset.
 410:Drivers/STM32F3xx_HAL_Driver/Inc/stm32f3xx_ll_bus.h ****   * @rmtoll AHBRSTR      FMCRST        LL_AHB1_GRP1_ForceReset\n
 411:Drivers/STM32F3xx_HAL_Driver/Inc/stm32f3xx_ll_bus.h ****   *         AHBRSTR      GPIOHRST      LL_AHB1_GRP1_ForceReset\n
 412:Drivers/STM32F3xx_HAL_Driver/Inc/stm32f3xx_ll_bus.h ****   *         AHBRSTR      GPIOARST      LL_AHB1_GRP1_ForceReset\n
 413:Drivers/STM32F3xx_HAL_Driver/Inc/stm32f3xx_ll_bus.h ****   *         AHBRSTR      GPIOBRST      LL_AHB1_GRP1_ForceReset\n
 414:Drivers/STM32F3xx_HAL_Driver/Inc/stm32f3xx_ll_bus.h ****   *         AHBRSTR      GPIOCRST      LL_AHB1_GRP1_ForceReset\n
 415:Drivers/STM32F3xx_HAL_Driver/Inc/stm32f3xx_ll_bus.h ****   *         AHBRSTR      GPIODRST      LL_AHB1_GRP1_ForceReset\n
 416:Drivers/STM32F3xx_HAL_Driver/Inc/stm32f3xx_ll_bus.h ****   *         AHBRSTR      GPIOERST      LL_AHB1_GRP1_ForceReset\n
ARM GAS  /tmp/ccMxhqvP.s 			page 10


 417:Drivers/STM32F3xx_HAL_Driver/Inc/stm32f3xx_ll_bus.h ****   *         AHBRSTR      GPIOFRST      LL_AHB1_GRP1_ForceReset\n
 418:Drivers/STM32F3xx_HAL_Driver/Inc/stm32f3xx_ll_bus.h ****   *         AHBRSTR      GPIOGRST      LL_AHB1_GRP1_ForceReset\n
 419:Drivers/STM32F3xx_HAL_Driver/Inc/stm32f3xx_ll_bus.h ****   *         AHBRSTR      TSCRST        LL_AHB1_GRP1_ForceReset\n
 420:Drivers/STM32F3xx_HAL_Driver/Inc/stm32f3xx_ll_bus.h ****   *         AHBRSTR      ADC1RST       LL_AHB1_GRP1_ForceReset\n
 421:Drivers/STM32F3xx_HAL_Driver/Inc/stm32f3xx_ll_bus.h ****   *         AHBRSTR      ADC12RST      LL_AHB1_GRP1_ForceReset\n
 422:Drivers/STM32F3xx_HAL_Driver/Inc/stm32f3xx_ll_bus.h ****   *         AHBRSTR      ADC34RST      LL_AHB1_GRP1_ForceReset
 423:Drivers/STM32F3xx_HAL_Driver/Inc/stm32f3xx_ll_bus.h ****   * @param  Periphs This parameter can be a combination of the following values:
 424:Drivers/STM32F3xx_HAL_Driver/Inc/stm32f3xx_ll_bus.h ****   *         @arg @ref LL_AHB1_GRP1_PERIPH_ALL
 425:Drivers/STM32F3xx_HAL_Driver/Inc/stm32f3xx_ll_bus.h ****   *         @arg @ref LL_AHB1_GRP1_PERIPH_FMC (*)
 426:Drivers/STM32F3xx_HAL_Driver/Inc/stm32f3xx_ll_bus.h ****   *         @arg @ref LL_AHB1_GRP1_PERIPH_GPIOH (*)
 427:Drivers/STM32F3xx_HAL_Driver/Inc/stm32f3xx_ll_bus.h ****   *         @arg @ref LL_AHB1_GRP1_PERIPH_GPIOA
 428:Drivers/STM32F3xx_HAL_Driver/Inc/stm32f3xx_ll_bus.h ****   *         @arg @ref LL_AHB1_GRP1_PERIPH_GPIOB
 429:Drivers/STM32F3xx_HAL_Driver/Inc/stm32f3xx_ll_bus.h ****   *         @arg @ref LL_AHB1_GRP1_PERIPH_GPIOC
 430:Drivers/STM32F3xx_HAL_Driver/Inc/stm32f3xx_ll_bus.h ****   *         @arg @ref LL_AHB1_GRP1_PERIPH_GPIOD
 431:Drivers/STM32F3xx_HAL_Driver/Inc/stm32f3xx_ll_bus.h ****   *         @arg @ref LL_AHB1_GRP1_PERIPH_GPIOE (*)
 432:Drivers/STM32F3xx_HAL_Driver/Inc/stm32f3xx_ll_bus.h ****   *         @arg @ref LL_AHB1_GRP1_PERIPH_GPIOF
 433:Drivers/STM32F3xx_HAL_Driver/Inc/stm32f3xx_ll_bus.h ****   *         @arg @ref LL_AHB1_GRP1_PERIPH_GPIOG (*)
 434:Drivers/STM32F3xx_HAL_Driver/Inc/stm32f3xx_ll_bus.h ****   *         @arg @ref LL_AHB1_GRP1_PERIPH_TSC
 435:Drivers/STM32F3xx_HAL_Driver/Inc/stm32f3xx_ll_bus.h ****   *         @arg @ref LL_AHB1_GRP1_PERIPH_ADC1 (*)
 436:Drivers/STM32F3xx_HAL_Driver/Inc/stm32f3xx_ll_bus.h ****   *         @arg @ref LL_AHB1_GRP1_PERIPH_ADC12 (*)
 437:Drivers/STM32F3xx_HAL_Driver/Inc/stm32f3xx_ll_bus.h ****   *         @arg @ref LL_AHB1_GRP1_PERIPH_ADC34 (*)
 438:Drivers/STM32F3xx_HAL_Driver/Inc/stm32f3xx_ll_bus.h ****   *
 439:Drivers/STM32F3xx_HAL_Driver/Inc/stm32f3xx_ll_bus.h ****   *         (*) value not defined in all devices.
 440:Drivers/STM32F3xx_HAL_Driver/Inc/stm32f3xx_ll_bus.h ****   * @retval None
 441:Drivers/STM32F3xx_HAL_Driver/Inc/stm32f3xx_ll_bus.h **** */
 442:Drivers/STM32F3xx_HAL_Driver/Inc/stm32f3xx_ll_bus.h **** __STATIC_INLINE void LL_AHB1_GRP1_ForceReset(uint32_t Periphs)
 443:Drivers/STM32F3xx_HAL_Driver/Inc/stm32f3xx_ll_bus.h **** {
 444:Drivers/STM32F3xx_HAL_Driver/Inc/stm32f3xx_ll_bus.h ****   SET_BIT(RCC->AHBRSTR, Periphs);
 445:Drivers/STM32F3xx_HAL_Driver/Inc/stm32f3xx_ll_bus.h **** }
 446:Drivers/STM32F3xx_HAL_Driver/Inc/stm32f3xx_ll_bus.h **** 
 447:Drivers/STM32F3xx_HAL_Driver/Inc/stm32f3xx_ll_bus.h **** /**
 448:Drivers/STM32F3xx_HAL_Driver/Inc/stm32f3xx_ll_bus.h ****   * @brief  Release AHB1 peripherals reset.
 449:Drivers/STM32F3xx_HAL_Driver/Inc/stm32f3xx_ll_bus.h ****   * @rmtoll AHBRSTR      FMCRST        LL_AHB1_GRP1_ReleaseReset\n
 450:Drivers/STM32F3xx_HAL_Driver/Inc/stm32f3xx_ll_bus.h ****   *         AHBRSTR      GPIOHRST      LL_AHB1_GRP1_ReleaseReset\n
 451:Drivers/STM32F3xx_HAL_Driver/Inc/stm32f3xx_ll_bus.h ****   *         AHBRSTR      GPIOARST      LL_AHB1_GRP1_ReleaseReset\n
 452:Drivers/STM32F3xx_HAL_Driver/Inc/stm32f3xx_ll_bus.h ****   *         AHBRSTR      GPIOBRST      LL_AHB1_GRP1_ReleaseReset\n
 453:Drivers/STM32F3xx_HAL_Driver/Inc/stm32f3xx_ll_bus.h ****   *         AHBRSTR      GPIOCRST      LL_AHB1_GRP1_ReleaseReset\n
 454:Drivers/STM32F3xx_HAL_Driver/Inc/stm32f3xx_ll_bus.h ****   *         AHBRSTR      GPIODRST      LL_AHB1_GRP1_ReleaseReset\n
 455:Drivers/STM32F3xx_HAL_Driver/Inc/stm32f3xx_ll_bus.h ****   *         AHBRSTR      GPIOERST      LL_AHB1_GRP1_ReleaseReset\n
 456:Drivers/STM32F3xx_HAL_Driver/Inc/stm32f3xx_ll_bus.h ****   *         AHBRSTR      GPIOFRST      LL_AHB1_GRP1_ReleaseReset\n
 457:Drivers/STM32F3xx_HAL_Driver/Inc/stm32f3xx_ll_bus.h ****   *         AHBRSTR      GPIOGRST      LL_AHB1_GRP1_ReleaseReset\n
 458:Drivers/STM32F3xx_HAL_Driver/Inc/stm32f3xx_ll_bus.h ****   *         AHBRSTR      TSCRST        LL_AHB1_GRP1_ReleaseReset\n
 459:Drivers/STM32F3xx_HAL_Driver/Inc/stm32f3xx_ll_bus.h ****   *         AHBRSTR      ADC1RST       LL_AHB1_GRP1_ReleaseReset\n
 460:Drivers/STM32F3xx_HAL_Driver/Inc/stm32f3xx_ll_bus.h ****   *         AHBRSTR      ADC12RST      LL_AHB1_GRP1_ReleaseReset\n
 461:Drivers/STM32F3xx_HAL_Driver/Inc/stm32f3xx_ll_bus.h ****   *         AHBRSTR      ADC34RST      LL_AHB1_GRP1_ReleaseReset
 462:Drivers/STM32F3xx_HAL_Driver/Inc/stm32f3xx_ll_bus.h ****   * @param  Periphs This parameter can be a combination of the following values:
 463:Drivers/STM32F3xx_HAL_Driver/Inc/stm32f3xx_ll_bus.h ****   *         @arg @ref LL_AHB1_GRP1_PERIPH_ALL
 464:Drivers/STM32F3xx_HAL_Driver/Inc/stm32f3xx_ll_bus.h ****   *         @arg @ref LL_AHB1_GRP1_PERIPH_FMC (*)
 465:Drivers/STM32F3xx_HAL_Driver/Inc/stm32f3xx_ll_bus.h ****   *         @arg @ref LL_AHB1_GRP1_PERIPH_GPIOH (*)
 466:Drivers/STM32F3xx_HAL_Driver/Inc/stm32f3xx_ll_bus.h ****   *         @arg @ref LL_AHB1_GRP1_PERIPH_GPIOA
 467:Drivers/STM32F3xx_HAL_Driver/Inc/stm32f3xx_ll_bus.h ****   *         @arg @ref LL_AHB1_GRP1_PERIPH_GPIOB
 468:Drivers/STM32F3xx_HAL_Driver/Inc/stm32f3xx_ll_bus.h ****   *         @arg @ref LL_AHB1_GRP1_PERIPH_GPIOC
 469:Drivers/STM32F3xx_HAL_Driver/Inc/stm32f3xx_ll_bus.h ****   *         @arg @ref LL_AHB1_GRP1_PERIPH_GPIOD
 470:Drivers/STM32F3xx_HAL_Driver/Inc/stm32f3xx_ll_bus.h ****   *         @arg @ref LL_AHB1_GRP1_PERIPH_GPIOE (*)
 471:Drivers/STM32F3xx_HAL_Driver/Inc/stm32f3xx_ll_bus.h ****   *         @arg @ref LL_AHB1_GRP1_PERIPH_GPIOF
 472:Drivers/STM32F3xx_HAL_Driver/Inc/stm32f3xx_ll_bus.h ****   *         @arg @ref LL_AHB1_GRP1_PERIPH_GPIOG (*)
 473:Drivers/STM32F3xx_HAL_Driver/Inc/stm32f3xx_ll_bus.h ****   *         @arg @ref LL_AHB1_GRP1_PERIPH_TSC
ARM GAS  /tmp/ccMxhqvP.s 			page 11


 474:Drivers/STM32F3xx_HAL_Driver/Inc/stm32f3xx_ll_bus.h ****   *         @arg @ref LL_AHB1_GRP1_PERIPH_ADC1 (*)
 475:Drivers/STM32F3xx_HAL_Driver/Inc/stm32f3xx_ll_bus.h ****   *         @arg @ref LL_AHB1_GRP1_PERIPH_ADC12 (*)
 476:Drivers/STM32F3xx_HAL_Driver/Inc/stm32f3xx_ll_bus.h ****   *         @arg @ref LL_AHB1_GRP1_PERIPH_ADC34 (*)
 477:Drivers/STM32F3xx_HAL_Driver/Inc/stm32f3xx_ll_bus.h ****   *
 478:Drivers/STM32F3xx_HAL_Driver/Inc/stm32f3xx_ll_bus.h ****   *         (*) value not defined in all devices.
 479:Drivers/STM32F3xx_HAL_Driver/Inc/stm32f3xx_ll_bus.h ****   * @retval None
 480:Drivers/STM32F3xx_HAL_Driver/Inc/stm32f3xx_ll_bus.h **** */
 481:Drivers/STM32F3xx_HAL_Driver/Inc/stm32f3xx_ll_bus.h **** __STATIC_INLINE void LL_AHB1_GRP1_ReleaseReset(uint32_t Periphs)
 482:Drivers/STM32F3xx_HAL_Driver/Inc/stm32f3xx_ll_bus.h **** {
 483:Drivers/STM32F3xx_HAL_Driver/Inc/stm32f3xx_ll_bus.h ****   CLEAR_BIT(RCC->AHBRSTR, Periphs);
 484:Drivers/STM32F3xx_HAL_Driver/Inc/stm32f3xx_ll_bus.h **** }
 485:Drivers/STM32F3xx_HAL_Driver/Inc/stm32f3xx_ll_bus.h **** 
 486:Drivers/STM32F3xx_HAL_Driver/Inc/stm32f3xx_ll_bus.h **** /**
 487:Drivers/STM32F3xx_HAL_Driver/Inc/stm32f3xx_ll_bus.h ****   * @}
 488:Drivers/STM32F3xx_HAL_Driver/Inc/stm32f3xx_ll_bus.h ****   */
 489:Drivers/STM32F3xx_HAL_Driver/Inc/stm32f3xx_ll_bus.h **** 
 490:Drivers/STM32F3xx_HAL_Driver/Inc/stm32f3xx_ll_bus.h **** /** @defgroup BUS_LL_EF_APB1 APB1
 491:Drivers/STM32F3xx_HAL_Driver/Inc/stm32f3xx_ll_bus.h ****   * @{
 492:Drivers/STM32F3xx_HAL_Driver/Inc/stm32f3xx_ll_bus.h ****   */
 493:Drivers/STM32F3xx_HAL_Driver/Inc/stm32f3xx_ll_bus.h **** 
 494:Drivers/STM32F3xx_HAL_Driver/Inc/stm32f3xx_ll_bus.h **** /**
 495:Drivers/STM32F3xx_HAL_Driver/Inc/stm32f3xx_ll_bus.h ****   * @brief  Enable APB1 peripherals clock.
 496:Drivers/STM32F3xx_HAL_Driver/Inc/stm32f3xx_ll_bus.h ****   * @rmtoll APB1ENR      TIM2EN        LL_APB1_GRP1_EnableClock\n
 497:Drivers/STM32F3xx_HAL_Driver/Inc/stm32f3xx_ll_bus.h ****   *         APB1ENR      TIM3EN        LL_APB1_GRP1_EnableClock\n
 498:Drivers/STM32F3xx_HAL_Driver/Inc/stm32f3xx_ll_bus.h ****   *         APB1ENR      TIM4EN        LL_APB1_GRP1_EnableClock\n
 499:Drivers/STM32F3xx_HAL_Driver/Inc/stm32f3xx_ll_bus.h ****   *         APB1ENR      TIM5EN        LL_APB1_GRP1_EnableClock\n
 500:Drivers/STM32F3xx_HAL_Driver/Inc/stm32f3xx_ll_bus.h ****   *         APB1ENR      TIM6EN        LL_APB1_GRP1_EnableClock\n
 501:Drivers/STM32F3xx_HAL_Driver/Inc/stm32f3xx_ll_bus.h ****   *         APB1ENR      TIM7EN        LL_APB1_GRP1_EnableClock\n
 502:Drivers/STM32F3xx_HAL_Driver/Inc/stm32f3xx_ll_bus.h ****   *         APB1ENR      TIM12EN       LL_APB1_GRP1_EnableClock\n
 503:Drivers/STM32F3xx_HAL_Driver/Inc/stm32f3xx_ll_bus.h ****   *         APB1ENR      TIM13EN       LL_APB1_GRP1_EnableClock\n
 504:Drivers/STM32F3xx_HAL_Driver/Inc/stm32f3xx_ll_bus.h ****   *         APB1ENR      TIM14EN       LL_APB1_GRP1_EnableClock\n
 505:Drivers/STM32F3xx_HAL_Driver/Inc/stm32f3xx_ll_bus.h ****   *         APB1ENR      TIM18EN       LL_APB1_GRP1_EnableClock\n
 506:Drivers/STM32F3xx_HAL_Driver/Inc/stm32f3xx_ll_bus.h ****   *         APB1ENR      WWDGEN        LL_APB1_GRP1_EnableClock\n
 507:Drivers/STM32F3xx_HAL_Driver/Inc/stm32f3xx_ll_bus.h ****   *         APB1ENR      SPI2EN        LL_APB1_GRP1_EnableClock\n
 508:Drivers/STM32F3xx_HAL_Driver/Inc/stm32f3xx_ll_bus.h ****   *         APB1ENR      SPI3EN        LL_APB1_GRP1_EnableClock\n
 509:Drivers/STM32F3xx_HAL_Driver/Inc/stm32f3xx_ll_bus.h ****   *         APB1ENR      USART2EN      LL_APB1_GRP1_EnableClock\n
 510:Drivers/STM32F3xx_HAL_Driver/Inc/stm32f3xx_ll_bus.h ****   *         APB1ENR      USART3EN      LL_APB1_GRP1_EnableClock\n
 511:Drivers/STM32F3xx_HAL_Driver/Inc/stm32f3xx_ll_bus.h ****   *         APB1ENR      UART4EN       LL_APB1_GRP1_EnableClock\n
 512:Drivers/STM32F3xx_HAL_Driver/Inc/stm32f3xx_ll_bus.h ****   *         APB1ENR      UART5EN       LL_APB1_GRP1_EnableClock\n
 513:Drivers/STM32F3xx_HAL_Driver/Inc/stm32f3xx_ll_bus.h ****   *         APB1ENR      I2C1EN        LL_APB1_GRP1_EnableClock\n
 514:Drivers/STM32F3xx_HAL_Driver/Inc/stm32f3xx_ll_bus.h ****   *         APB1ENR      I2C2EN        LL_APB1_GRP1_EnableClock\n
 515:Drivers/STM32F3xx_HAL_Driver/Inc/stm32f3xx_ll_bus.h ****   *         APB1ENR      USBEN         LL_APB1_GRP1_EnableClock\n
 516:Drivers/STM32F3xx_HAL_Driver/Inc/stm32f3xx_ll_bus.h ****   *         APB1ENR      CANEN         LL_APB1_GRP1_EnableClock\n
 517:Drivers/STM32F3xx_HAL_Driver/Inc/stm32f3xx_ll_bus.h ****   *         APB1ENR      DAC2EN        LL_APB1_GRP1_EnableClock\n
 518:Drivers/STM32F3xx_HAL_Driver/Inc/stm32f3xx_ll_bus.h ****   *         APB1ENR      PWREN         LL_APB1_GRP1_EnableClock\n
 519:Drivers/STM32F3xx_HAL_Driver/Inc/stm32f3xx_ll_bus.h ****   *         APB1ENR      DAC1EN        LL_APB1_GRP1_EnableClock\n
 520:Drivers/STM32F3xx_HAL_Driver/Inc/stm32f3xx_ll_bus.h ****   *         APB1ENR      CECEN         LL_APB1_GRP1_EnableClock\n
 521:Drivers/STM32F3xx_HAL_Driver/Inc/stm32f3xx_ll_bus.h ****   *         APB1ENR      I2C3EN        LL_APB1_GRP1_EnableClock
 522:Drivers/STM32F3xx_HAL_Driver/Inc/stm32f3xx_ll_bus.h ****   * @param  Periphs This parameter can be a combination of the following values:
 523:Drivers/STM32F3xx_HAL_Driver/Inc/stm32f3xx_ll_bus.h ****   *         @arg @ref LL_APB1_GRP1_PERIPH_TIM2
 524:Drivers/STM32F3xx_HAL_Driver/Inc/stm32f3xx_ll_bus.h ****   *         @arg @ref LL_APB1_GRP1_PERIPH_TIM3 (*)
 525:Drivers/STM32F3xx_HAL_Driver/Inc/stm32f3xx_ll_bus.h ****   *         @arg @ref LL_APB1_GRP1_PERIPH_TIM4 (*)
 526:Drivers/STM32F3xx_HAL_Driver/Inc/stm32f3xx_ll_bus.h ****   *         @arg @ref LL_APB1_GRP1_PERIPH_TIM5 (*)
 527:Drivers/STM32F3xx_HAL_Driver/Inc/stm32f3xx_ll_bus.h ****   *         @arg @ref LL_APB1_GRP1_PERIPH_TIM6
 528:Drivers/STM32F3xx_HAL_Driver/Inc/stm32f3xx_ll_bus.h ****   *         @arg @ref LL_APB1_GRP1_PERIPH_TIM7 (*)
 529:Drivers/STM32F3xx_HAL_Driver/Inc/stm32f3xx_ll_bus.h ****   *         @arg @ref LL_APB1_GRP1_PERIPH_TIM12 (*)
 530:Drivers/STM32F3xx_HAL_Driver/Inc/stm32f3xx_ll_bus.h ****   *         @arg @ref LL_APB1_GRP1_PERIPH_TIM13 (*)
ARM GAS  /tmp/ccMxhqvP.s 			page 12


 531:Drivers/STM32F3xx_HAL_Driver/Inc/stm32f3xx_ll_bus.h ****   *         @arg @ref LL_APB1_GRP1_PERIPH_TIM14 (*)
 532:Drivers/STM32F3xx_HAL_Driver/Inc/stm32f3xx_ll_bus.h ****   *         @arg @ref LL_APB1_GRP1_PERIPH_TIM18 (*)
 533:Drivers/STM32F3xx_HAL_Driver/Inc/stm32f3xx_ll_bus.h ****   *         @arg @ref LL_APB1_GRP1_PERIPH_WWDG
 534:Drivers/STM32F3xx_HAL_Driver/Inc/stm32f3xx_ll_bus.h ****   *         @arg @ref LL_APB1_GRP1_PERIPH_SPI2 (*)
 535:Drivers/STM32F3xx_HAL_Driver/Inc/stm32f3xx_ll_bus.h ****   *         @arg @ref LL_APB1_GRP1_PERIPH_SPI3 (*)
 536:Drivers/STM32F3xx_HAL_Driver/Inc/stm32f3xx_ll_bus.h ****   *         @arg @ref LL_APB1_GRP1_PERIPH_USART2
 537:Drivers/STM32F3xx_HAL_Driver/Inc/stm32f3xx_ll_bus.h ****   *         @arg @ref LL_APB1_GRP1_PERIPH_USART3
 538:Drivers/STM32F3xx_HAL_Driver/Inc/stm32f3xx_ll_bus.h ****   *         @arg @ref LL_APB1_GRP1_PERIPH_UART4 (*)
 539:Drivers/STM32F3xx_HAL_Driver/Inc/stm32f3xx_ll_bus.h ****   *         @arg @ref LL_APB1_GRP1_PERIPH_UART5 (*)
 540:Drivers/STM32F3xx_HAL_Driver/Inc/stm32f3xx_ll_bus.h ****   *         @arg @ref LL_APB1_GRP1_PERIPH_I2C1
 541:Drivers/STM32F3xx_HAL_Driver/Inc/stm32f3xx_ll_bus.h ****   *         @arg @ref LL_APB1_GRP1_PERIPH_I2C2 (*)
 542:Drivers/STM32F3xx_HAL_Driver/Inc/stm32f3xx_ll_bus.h ****   *         @arg @ref LL_APB1_GRP1_PERIPH_USB (*)
 543:Drivers/STM32F3xx_HAL_Driver/Inc/stm32f3xx_ll_bus.h ****   *         @arg @ref LL_APB1_GRP1_PERIPH_CAN (*)
 544:Drivers/STM32F3xx_HAL_Driver/Inc/stm32f3xx_ll_bus.h ****   *         @arg @ref LL_APB1_GRP1_PERIPH_DAC2 (*)
 545:Drivers/STM32F3xx_HAL_Driver/Inc/stm32f3xx_ll_bus.h ****   *         @arg @ref LL_APB1_GRP1_PERIPH_PWR
 546:Drivers/STM32F3xx_HAL_Driver/Inc/stm32f3xx_ll_bus.h ****   *         @arg @ref LL_APB1_GRP1_PERIPH_DAC1
 547:Drivers/STM32F3xx_HAL_Driver/Inc/stm32f3xx_ll_bus.h ****   *         @arg @ref LL_APB1_GRP1_PERIPH_CEC (*)
 548:Drivers/STM32F3xx_HAL_Driver/Inc/stm32f3xx_ll_bus.h ****   *         @arg @ref LL_APB1_GRP1_PERIPH_I2C3 (*)
 549:Drivers/STM32F3xx_HAL_Driver/Inc/stm32f3xx_ll_bus.h ****   *
 550:Drivers/STM32F3xx_HAL_Driver/Inc/stm32f3xx_ll_bus.h ****   *         (*) value not defined in all devices.
 551:Drivers/STM32F3xx_HAL_Driver/Inc/stm32f3xx_ll_bus.h ****   * @retval None
 552:Drivers/STM32F3xx_HAL_Driver/Inc/stm32f3xx_ll_bus.h **** */
 553:Drivers/STM32F3xx_HAL_Driver/Inc/stm32f3xx_ll_bus.h **** __STATIC_INLINE void LL_APB1_GRP1_EnableClock(uint32_t Periphs)
  41              		.loc 2 553 22 view .LVU4
  42              	.LBB35:
 554:Drivers/STM32F3xx_HAL_Driver/Inc/stm32f3xx_ll_bus.h **** {
 555:Drivers/STM32F3xx_HAL_Driver/Inc/stm32f3xx_ll_bus.h ****   __IO uint32_t tmpreg;
  43              		.loc 2 555 3 view .LVU5
 556:Drivers/STM32F3xx_HAL_Driver/Inc/stm32f3xx_ll_bus.h ****   SET_BIT(RCC->APB1ENR, Periphs);
  44              		.loc 2 556 3 view .LVU6
  45 0000 324B     		ldr	r3, .L4
  46              	.LBE35:
  47              	.LBE34:
  53:Src/usart.c   ****   LL_USART_InitTypeDef USART_InitStruct;
  48              		.loc 1 53 1 is_stmt 0 view .LVU7
  49 0002 70B5     		push	{r4, r5, r6, lr}
  50              	.LCFI0:
  51              		.cfi_def_cfa_offset 16
  52              		.cfi_offset 4, -16
  53              		.cfi_offset 5, -12
  54              		.cfi_offset 6, -8
  55              		.cfi_offset 14, -4
  56              	.LBB40:
  57              	.LBB36:
  58              		.loc 2 556 3 view .LVU8
  59 0004 DA69     		ldr	r2, [r3, #28]
  60              	.LBE36:
  61              	.LBE40:
  59:Src/usart.c   ****   
  60:Src/usart.c   ****   /**USART2 GPIO Configuration  
  61:Src/usart.c   ****   PA2   ------> USART2_TX
  62:Src/usart.c   ****   PA3   ------> USART2_RX 
  63:Src/usart.c   ****   */
  64:Src/usart.c   ****   GPIO_InitStruct.Pin = LL_GPIO_PIN_2|LL_GPIO_PIN_3;
  65:Src/usart.c   ****   GPIO_InitStruct.Mode = LL_GPIO_MODE_ALTERNATE;
  66:Src/usart.c   ****   GPIO_InitStruct.Speed = LL_GPIO_SPEED_FREQ_HIGH;
  67:Src/usart.c   ****   GPIO_InitStruct.OutputType = LL_GPIO_OUTPUT_PUSHPULL;
ARM GAS  /tmp/ccMxhqvP.s 			page 13


  68:Src/usart.c   ****   GPIO_InitStruct.Pull = LL_GPIO_PULL_NO;
  69:Src/usart.c   ****   GPIO_InitStruct.Alternate = LL_GPIO_AF_7;
  70:Src/usart.c   ****   LL_GPIO_Init(GPIOA, &GPIO_InitStruct);
  71:Src/usart.c   **** 
  72:Src/usart.c   ****   /* USART2 DMA Init */
  73:Src/usart.c   ****   
  74:Src/usart.c   ****   /* USART2_RX Init */
  75:Src/usart.c   ****   LL_DMA_SetDataTransferDirection(DMA1, LL_DMA_CHANNEL_6, LL_DMA_DIRECTION_PERIPH_TO_MEMORY);
  76:Src/usart.c   **** 
  77:Src/usart.c   ****   LL_DMA_SetChannelPriorityLevel(DMA1, LL_DMA_CHANNEL_6, LL_DMA_PRIORITY_LOW);
  78:Src/usart.c   **** 
  79:Src/usart.c   ****   LL_DMA_SetMode(DMA1, LL_DMA_CHANNEL_6, LL_DMA_MODE_CIRCULAR);
  80:Src/usart.c   **** 
  81:Src/usart.c   ****   LL_DMA_SetPeriphIncMode(DMA1, LL_DMA_CHANNEL_6, LL_DMA_PERIPH_NOINCREMENT);
  82:Src/usart.c   **** 
  83:Src/usart.c   ****   LL_DMA_SetMemoryIncMode(DMA1, LL_DMA_CHANNEL_6, LL_DMA_MEMORY_INCREMENT);
  84:Src/usart.c   **** 
  85:Src/usart.c   ****   LL_DMA_SetPeriphSize(DMA1, LL_DMA_CHANNEL_6, LL_DMA_PDATAALIGN_BYTE);
  86:Src/usart.c   **** 
  87:Src/usart.c   ****   LL_DMA_SetMemorySize(DMA1, LL_DMA_CHANNEL_6, LL_DMA_MDATAALIGN_BYTE);
  88:Src/usart.c   **** 
  89:Src/usart.c   ****   /* USART2 interrupt Init */
  90:Src/usart.c   ****   NVIC_SetPriority(USART2_IRQn, NVIC_EncodePriority(NVIC_GetPriorityGrouping(),0, 0));
  91:Src/usart.c   ****   NVIC_EnableIRQ(USART2_IRQn);
  92:Src/usart.c   **** 
  93:Src/usart.c   ****   USART_InitStruct.BaudRate = 1000000;
  94:Src/usart.c   ****   USART_InitStruct.DataWidth = LL_USART_DATAWIDTH_8B;
  95:Src/usart.c   ****   USART_InitStruct.StopBits = LL_USART_STOPBITS_1;
  96:Src/usart.c   ****   USART_InitStruct.Parity = LL_USART_PARITY_NONE;
  97:Src/usart.c   ****   USART_InitStruct.TransferDirection = LL_USART_DIRECTION_TX_RX;
  98:Src/usart.c   ****   USART_InitStruct.HardwareFlowControl = LL_USART_HWCONTROL_NONE;
  99:Src/usart.c   ****   USART_InitStruct.OverSampling = LL_USART_OVERSAMPLING_16;
 100:Src/usart.c   ****   LL_USART_Init(USART2, &USART_InitStruct);
  62              		.loc 1 100 3 view .LVU9
  63 0006 324C     		ldr	r4, .L4+4
  64              	.LBB41:
  65              	.LBB37:
  66              		.loc 2 556 3 view .LVU10
  67 0008 42F40032 		orr	r2, r2, #131072
  68 000c DA61     		str	r2, [r3, #28]
 557:Drivers/STM32F3xx_HAL_Driver/Inc/stm32f3xx_ll_bus.h ****   /* Delay after an RCC peripheral clock enabling */
 558:Drivers/STM32F3xx_HAL_Driver/Inc/stm32f3xx_ll_bus.h ****   tmpreg = READ_BIT(RCC->APB1ENR, Periphs);
  69              		.loc 2 558 3 is_stmt 1 view .LVU11
  70              		.loc 2 558 12 is_stmt 0 view .LVU12
  71 000e DB69     		ldr	r3, [r3, #28]
  72              	.LBE37:
  73              	.LBE41:
  53:Src/usart.c   ****   LL_USART_InitTypeDef USART_InitStruct;
  74              		.loc 1 53 1 view .LVU13
  75 0010 8EB0     		sub	sp, sp, #56
  76              	.LCFI1:
  77              		.cfi_def_cfa_offset 72
  78              	.LBB42:
  79              	.LBB38:
  80              		.loc 2 558 12 view .LVU14
  81 0012 03F40033 		and	r3, r3, #131072
  82              		.loc 2 558 10 view .LVU15
ARM GAS  /tmp/ccMxhqvP.s 			page 14


  83 0016 0093     		str	r3, [sp]
 559:Drivers/STM32F3xx_HAL_Driver/Inc/stm32f3xx_ll_bus.h ****   (void)tmpreg;
  84              		.loc 2 559 3 is_stmt 1 view .LVU16
  85              	.LBE38:
  86              	.LBE42:
  64:Src/usart.c   ****   GPIO_InitStruct.Mode = LL_GPIO_MODE_ALTERNATE;
  87              		.loc 1 64 23 is_stmt 0 view .LVU17
  88 0018 0C26     		movs	r6, #12
  65:Src/usart.c   ****   GPIO_InitStruct.Speed = LL_GPIO_SPEED_FREQ_HIGH;
  89              		.loc 1 65 24 view .LVU18
  90 001a 0221     		movs	r1, #2
  67:Src/usart.c   ****   GPIO_InitStruct.Pull = LL_GPIO_PULL_NO;
  91              		.loc 1 67 30 view .LVU19
  92 001c 0025     		movs	r5, #0
  66:Src/usart.c   ****   GPIO_InitStruct.OutputType = LL_GPIO_OUTPUT_PUSHPULL;
  93              		.loc 1 66 25 view .LVU20
  94 001e 0322     		movs	r2, #3
  69:Src/usart.c   ****   LL_GPIO_Init(GPIOA, &GPIO_InitStruct);
  95              		.loc 1 69 29 view .LVU21
  96 0020 0723     		movs	r3, #7
  97              	.LBB43:
  98              	.LBB39:
  99              		.loc 2 559 3 view .LVU22
 100 0022 0098     		ldr	r0, [sp]
 101              	.LVL1:
 102              		.loc 2 559 3 view .LVU23
 103              	.LBE39:
 104              	.LBE43:
  64:Src/usart.c   ****   GPIO_InitStruct.Mode = LL_GPIO_MODE_ALTERNATE;
 105              		.loc 1 64 3 is_stmt 1 view .LVU24
  66:Src/usart.c   ****   GPIO_InitStruct.OutputType = LL_GPIO_OUTPUT_PUSHPULL;
 106              		.loc 1 66 25 is_stmt 0 view .LVU25
 107 0024 0392     		str	r2, [sp, #12]
  65:Src/usart.c   ****   GPIO_InitStruct.Speed = LL_GPIO_SPEED_FREQ_HIGH;
 108              		.loc 1 65 24 view .LVU26
 109 0026 CDE90161 		strd	r6, r1, [sp, #4]
  66:Src/usart.c   ****   GPIO_InitStruct.OutputType = LL_GPIO_OUTPUT_PUSHPULL;
 110              		.loc 1 66 3 is_stmt 1 view .LVU27
  67:Src/usart.c   ****   GPIO_InitStruct.Pull = LL_GPIO_PULL_NO;
 111              		.loc 1 67 3 view .LVU28
  70:Src/usart.c   **** 
 112              		.loc 1 70 3 is_stmt 0 view .LVU29
 113 002a 4FF09040 		mov	r0, #1207959552
 114 002e 01A9     		add	r1, sp, #4
  69:Src/usart.c   ****   LL_GPIO_Init(GPIOA, &GPIO_InitStruct);
 115              		.loc 1 69 29 view .LVU30
 116 0030 0693     		str	r3, [sp, #24]
  68:Src/usart.c   ****   GPIO_InitStruct.Alternate = LL_GPIO_AF_7;
 117              		.loc 1 68 24 view .LVU31
 118 0032 CDE90455 		strd	r5, r5, [sp, #16]
  69:Src/usart.c   ****   LL_GPIO_Init(GPIOA, &GPIO_InitStruct);
 119              		.loc 1 69 3 is_stmt 1 view .LVU32
  70:Src/usart.c   **** 
 120              		.loc 1 70 3 view .LVU33
 121 0036 FFF7FEFF 		bl	LL_GPIO_Init
 122              	.LVL2:
  75:Src/usart.c   **** 
ARM GAS  /tmp/ccMxhqvP.s 			page 15


 123              		.loc 1 75 3 view .LVU34
 124              	.LBB44:
 125              	.LBI44:
 126              		.file 3 "Drivers/STM32F3xx_HAL_Driver/Inc/stm32f3xx_ll_dma.h"
   1:Drivers/STM32F3xx_HAL_Driver/Inc/stm32f3xx_ll_dma.h **** /**
   2:Drivers/STM32F3xx_HAL_Driver/Inc/stm32f3xx_ll_dma.h ****   ******************************************************************************
   3:Drivers/STM32F3xx_HAL_Driver/Inc/stm32f3xx_ll_dma.h ****   * @file    stm32f3xx_ll_dma.h
   4:Drivers/STM32F3xx_HAL_Driver/Inc/stm32f3xx_ll_dma.h ****   * @author  MCD Application Team
   5:Drivers/STM32F3xx_HAL_Driver/Inc/stm32f3xx_ll_dma.h ****   * @brief   Header file of DMA LL module.
   6:Drivers/STM32F3xx_HAL_Driver/Inc/stm32f3xx_ll_dma.h ****   ******************************************************************************
   7:Drivers/STM32F3xx_HAL_Driver/Inc/stm32f3xx_ll_dma.h ****   * @attention
   8:Drivers/STM32F3xx_HAL_Driver/Inc/stm32f3xx_ll_dma.h ****   *
   9:Drivers/STM32F3xx_HAL_Driver/Inc/stm32f3xx_ll_dma.h ****   * <h2><center>&copy; COPYRIGHT(c) 2016 STMicroelectronics</center></h2>
  10:Drivers/STM32F3xx_HAL_Driver/Inc/stm32f3xx_ll_dma.h ****   *
  11:Drivers/STM32F3xx_HAL_Driver/Inc/stm32f3xx_ll_dma.h ****   * Redistribution and use in source and binary forms, with or without modification,
  12:Drivers/STM32F3xx_HAL_Driver/Inc/stm32f3xx_ll_dma.h ****   * are permitted provided that the following conditions are met:
  13:Drivers/STM32F3xx_HAL_Driver/Inc/stm32f3xx_ll_dma.h ****   *   1. Redistributions of source code must retain the above copyright notice,
  14:Drivers/STM32F3xx_HAL_Driver/Inc/stm32f3xx_ll_dma.h ****   *      this list of conditions and the following disclaimer.
  15:Drivers/STM32F3xx_HAL_Driver/Inc/stm32f3xx_ll_dma.h ****   *   2. Redistributions in binary form must reproduce the above copyright notice,
  16:Drivers/STM32F3xx_HAL_Driver/Inc/stm32f3xx_ll_dma.h ****   *      this list of conditions and the following disclaimer in the documentation
  17:Drivers/STM32F3xx_HAL_Driver/Inc/stm32f3xx_ll_dma.h ****   *      and/or other materials provided with the distribution.
  18:Drivers/STM32F3xx_HAL_Driver/Inc/stm32f3xx_ll_dma.h ****   *   3. Neither the name of STMicroelectronics nor the names of its contributors
  19:Drivers/STM32F3xx_HAL_Driver/Inc/stm32f3xx_ll_dma.h ****   *      may be used to endorse or promote products derived from this software
  20:Drivers/STM32F3xx_HAL_Driver/Inc/stm32f3xx_ll_dma.h ****   *      without specific prior written permission.
  21:Drivers/STM32F3xx_HAL_Driver/Inc/stm32f3xx_ll_dma.h ****   *
  22:Drivers/STM32F3xx_HAL_Driver/Inc/stm32f3xx_ll_dma.h ****   * THIS SOFTWARE IS PROVIDED BY THE COPYRIGHT HOLDERS AND CONTRIBUTORS "AS IS"
  23:Drivers/STM32F3xx_HAL_Driver/Inc/stm32f3xx_ll_dma.h ****   * AND ANY EXPRESS OR IMPLIED WARRANTIES, INCLUDING, BUT NOT LIMITED TO, THE
  24:Drivers/STM32F3xx_HAL_Driver/Inc/stm32f3xx_ll_dma.h ****   * IMPLIED WARRANTIES OF MERCHANTABILITY AND FITNESS FOR A PARTICULAR PURPOSE ARE
  25:Drivers/STM32F3xx_HAL_Driver/Inc/stm32f3xx_ll_dma.h ****   * DISCLAIMED. IN NO EVENT SHALL THE COPYRIGHT HOLDER OR CONTRIBUTORS BE LIABLE
  26:Drivers/STM32F3xx_HAL_Driver/Inc/stm32f3xx_ll_dma.h ****   * FOR ANY DIRECT, INDIRECT, INCIDENTAL, SPECIAL, EXEMPLARY, OR CONSEQUENTIAL
  27:Drivers/STM32F3xx_HAL_Driver/Inc/stm32f3xx_ll_dma.h ****   * DAMAGES (INCLUDING, BUT NOT LIMITED TO, PROCUREMENT OF SUBSTITUTE GOODS OR
  28:Drivers/STM32F3xx_HAL_Driver/Inc/stm32f3xx_ll_dma.h ****   * SERVICES; LOSS OF USE, DATA, OR PROFITS; OR BUSINESS INTERRUPTION) HOWEVER
  29:Drivers/STM32F3xx_HAL_Driver/Inc/stm32f3xx_ll_dma.h ****   * CAUSED AND ON ANY THEORY OF LIABILITY, WHETHER IN CONTRACT, STRICT LIABILITY,
  30:Drivers/STM32F3xx_HAL_Driver/Inc/stm32f3xx_ll_dma.h ****   * OR TORT (INCLUDING NEGLIGENCE OR OTHERWISE) ARISING IN ANY WAY OUT OF THE USE
  31:Drivers/STM32F3xx_HAL_Driver/Inc/stm32f3xx_ll_dma.h ****   * OF THIS SOFTWARE, EVEN IF ADVISED OF THE POSSIBILITY OF SUCH DAMAGE.
  32:Drivers/STM32F3xx_HAL_Driver/Inc/stm32f3xx_ll_dma.h ****   *
  33:Drivers/STM32F3xx_HAL_Driver/Inc/stm32f3xx_ll_dma.h ****   ******************************************************************************
  34:Drivers/STM32F3xx_HAL_Driver/Inc/stm32f3xx_ll_dma.h ****   */
  35:Drivers/STM32F3xx_HAL_Driver/Inc/stm32f3xx_ll_dma.h **** 
  36:Drivers/STM32F3xx_HAL_Driver/Inc/stm32f3xx_ll_dma.h **** /* Define to prevent recursive inclusion -------------------------------------*/
  37:Drivers/STM32F3xx_HAL_Driver/Inc/stm32f3xx_ll_dma.h **** #ifndef __STM32F3xx_LL_DMA_H
  38:Drivers/STM32F3xx_HAL_Driver/Inc/stm32f3xx_ll_dma.h **** #define __STM32F3xx_LL_DMA_H
  39:Drivers/STM32F3xx_HAL_Driver/Inc/stm32f3xx_ll_dma.h **** 
  40:Drivers/STM32F3xx_HAL_Driver/Inc/stm32f3xx_ll_dma.h **** #ifdef __cplusplus
  41:Drivers/STM32F3xx_HAL_Driver/Inc/stm32f3xx_ll_dma.h **** extern "C" {
  42:Drivers/STM32F3xx_HAL_Driver/Inc/stm32f3xx_ll_dma.h **** #endif
  43:Drivers/STM32F3xx_HAL_Driver/Inc/stm32f3xx_ll_dma.h **** 
  44:Drivers/STM32F3xx_HAL_Driver/Inc/stm32f3xx_ll_dma.h **** /* Includes ------------------------------------------------------------------*/
  45:Drivers/STM32F3xx_HAL_Driver/Inc/stm32f3xx_ll_dma.h **** #include "stm32f3xx.h"
  46:Drivers/STM32F3xx_HAL_Driver/Inc/stm32f3xx_ll_dma.h **** 
  47:Drivers/STM32F3xx_HAL_Driver/Inc/stm32f3xx_ll_dma.h **** /** @addtogroup STM32F3xx_LL_Driver
  48:Drivers/STM32F3xx_HAL_Driver/Inc/stm32f3xx_ll_dma.h ****   * @{
  49:Drivers/STM32F3xx_HAL_Driver/Inc/stm32f3xx_ll_dma.h ****   */
  50:Drivers/STM32F3xx_HAL_Driver/Inc/stm32f3xx_ll_dma.h **** 
  51:Drivers/STM32F3xx_HAL_Driver/Inc/stm32f3xx_ll_dma.h **** #if defined (DMA1) || defined (DMA2)
  52:Drivers/STM32F3xx_HAL_Driver/Inc/stm32f3xx_ll_dma.h **** 
  53:Drivers/STM32F3xx_HAL_Driver/Inc/stm32f3xx_ll_dma.h **** /** @defgroup DMA_LL DMA
ARM GAS  /tmp/ccMxhqvP.s 			page 16


  54:Drivers/STM32F3xx_HAL_Driver/Inc/stm32f3xx_ll_dma.h ****   * @{
  55:Drivers/STM32F3xx_HAL_Driver/Inc/stm32f3xx_ll_dma.h ****   */
  56:Drivers/STM32F3xx_HAL_Driver/Inc/stm32f3xx_ll_dma.h **** 
  57:Drivers/STM32F3xx_HAL_Driver/Inc/stm32f3xx_ll_dma.h **** /* Private types -------------------------------------------------------------*/
  58:Drivers/STM32F3xx_HAL_Driver/Inc/stm32f3xx_ll_dma.h **** /* Private variables ---------------------------------------------------------*/
  59:Drivers/STM32F3xx_HAL_Driver/Inc/stm32f3xx_ll_dma.h **** /** @defgroup DMA_LL_Private_Variables DMA Private Variables
  60:Drivers/STM32F3xx_HAL_Driver/Inc/stm32f3xx_ll_dma.h ****   * @{
  61:Drivers/STM32F3xx_HAL_Driver/Inc/stm32f3xx_ll_dma.h ****   */
  62:Drivers/STM32F3xx_HAL_Driver/Inc/stm32f3xx_ll_dma.h **** /* Array used to get the DMA channel register offset versus channel index LL_DMA_CHANNEL_x */
  63:Drivers/STM32F3xx_HAL_Driver/Inc/stm32f3xx_ll_dma.h **** static const uint8_t CHANNEL_OFFSET_TAB[] =
  64:Drivers/STM32F3xx_HAL_Driver/Inc/stm32f3xx_ll_dma.h **** {
  65:Drivers/STM32F3xx_HAL_Driver/Inc/stm32f3xx_ll_dma.h ****   (uint8_t)(DMA1_Channel1_BASE - DMA1_BASE),
  66:Drivers/STM32F3xx_HAL_Driver/Inc/stm32f3xx_ll_dma.h ****   (uint8_t)(DMA1_Channel2_BASE - DMA1_BASE),
  67:Drivers/STM32F3xx_HAL_Driver/Inc/stm32f3xx_ll_dma.h ****   (uint8_t)(DMA1_Channel3_BASE - DMA1_BASE),
  68:Drivers/STM32F3xx_HAL_Driver/Inc/stm32f3xx_ll_dma.h ****   (uint8_t)(DMA1_Channel4_BASE - DMA1_BASE),
  69:Drivers/STM32F3xx_HAL_Driver/Inc/stm32f3xx_ll_dma.h ****   (uint8_t)(DMA1_Channel5_BASE - DMA1_BASE),
  70:Drivers/STM32F3xx_HAL_Driver/Inc/stm32f3xx_ll_dma.h ****   (uint8_t)(DMA1_Channel6_BASE - DMA1_BASE),
  71:Drivers/STM32F3xx_HAL_Driver/Inc/stm32f3xx_ll_dma.h ****   (uint8_t)(DMA1_Channel7_BASE - DMA1_BASE)
  72:Drivers/STM32F3xx_HAL_Driver/Inc/stm32f3xx_ll_dma.h **** };
  73:Drivers/STM32F3xx_HAL_Driver/Inc/stm32f3xx_ll_dma.h **** /**
  74:Drivers/STM32F3xx_HAL_Driver/Inc/stm32f3xx_ll_dma.h ****   * @}
  75:Drivers/STM32F3xx_HAL_Driver/Inc/stm32f3xx_ll_dma.h ****   */
  76:Drivers/STM32F3xx_HAL_Driver/Inc/stm32f3xx_ll_dma.h **** 
  77:Drivers/STM32F3xx_HAL_Driver/Inc/stm32f3xx_ll_dma.h **** /* Private constants ---------------------------------------------------------*/
  78:Drivers/STM32F3xx_HAL_Driver/Inc/stm32f3xx_ll_dma.h **** /* Private macros ------------------------------------------------------------*/
  79:Drivers/STM32F3xx_HAL_Driver/Inc/stm32f3xx_ll_dma.h **** #if defined(USE_FULL_LL_DRIVER)
  80:Drivers/STM32F3xx_HAL_Driver/Inc/stm32f3xx_ll_dma.h **** /** @defgroup DMA_LL_Private_Macros DMA Private Macros
  81:Drivers/STM32F3xx_HAL_Driver/Inc/stm32f3xx_ll_dma.h ****   * @{
  82:Drivers/STM32F3xx_HAL_Driver/Inc/stm32f3xx_ll_dma.h ****   */
  83:Drivers/STM32F3xx_HAL_Driver/Inc/stm32f3xx_ll_dma.h **** /**
  84:Drivers/STM32F3xx_HAL_Driver/Inc/stm32f3xx_ll_dma.h ****   * @}
  85:Drivers/STM32F3xx_HAL_Driver/Inc/stm32f3xx_ll_dma.h ****   */
  86:Drivers/STM32F3xx_HAL_Driver/Inc/stm32f3xx_ll_dma.h **** #endif /*USE_FULL_LL_DRIVER*/
  87:Drivers/STM32F3xx_HAL_Driver/Inc/stm32f3xx_ll_dma.h **** 
  88:Drivers/STM32F3xx_HAL_Driver/Inc/stm32f3xx_ll_dma.h **** /* Exported types ------------------------------------------------------------*/
  89:Drivers/STM32F3xx_HAL_Driver/Inc/stm32f3xx_ll_dma.h **** #if defined(USE_FULL_LL_DRIVER)
  90:Drivers/STM32F3xx_HAL_Driver/Inc/stm32f3xx_ll_dma.h **** /** @defgroup DMA_LL_ES_INIT DMA Exported Init structure
  91:Drivers/STM32F3xx_HAL_Driver/Inc/stm32f3xx_ll_dma.h ****   * @{
  92:Drivers/STM32F3xx_HAL_Driver/Inc/stm32f3xx_ll_dma.h ****   */
  93:Drivers/STM32F3xx_HAL_Driver/Inc/stm32f3xx_ll_dma.h **** typedef struct
  94:Drivers/STM32F3xx_HAL_Driver/Inc/stm32f3xx_ll_dma.h **** {
  95:Drivers/STM32F3xx_HAL_Driver/Inc/stm32f3xx_ll_dma.h ****   uint32_t PeriphOrM2MSrcAddress;  /*!< Specifies the peripheral base address for DMA transfer
  96:Drivers/STM32F3xx_HAL_Driver/Inc/stm32f3xx_ll_dma.h ****                                         or as Source base address in case of memory to memory trans
  97:Drivers/STM32F3xx_HAL_Driver/Inc/stm32f3xx_ll_dma.h **** 
  98:Drivers/STM32F3xx_HAL_Driver/Inc/stm32f3xx_ll_dma.h ****                                         This parameter must be a value between Min_Data = 0 and Max
  99:Drivers/STM32F3xx_HAL_Driver/Inc/stm32f3xx_ll_dma.h **** 
 100:Drivers/STM32F3xx_HAL_Driver/Inc/stm32f3xx_ll_dma.h ****   uint32_t MemoryOrM2MDstAddress;  /*!< Specifies the memory base address for DMA transfer
 101:Drivers/STM32F3xx_HAL_Driver/Inc/stm32f3xx_ll_dma.h ****                                         or as Destination base address in case of memory to memory 
 102:Drivers/STM32F3xx_HAL_Driver/Inc/stm32f3xx_ll_dma.h **** 
 103:Drivers/STM32F3xx_HAL_Driver/Inc/stm32f3xx_ll_dma.h ****                                         This parameter must be a value between Min_Data = 0 and Max
 104:Drivers/STM32F3xx_HAL_Driver/Inc/stm32f3xx_ll_dma.h **** 
 105:Drivers/STM32F3xx_HAL_Driver/Inc/stm32f3xx_ll_dma.h ****   uint32_t Direction;              /*!< Specifies if the data will be transferred from memory to pe
 106:Drivers/STM32F3xx_HAL_Driver/Inc/stm32f3xx_ll_dma.h ****                                         from memory to memory or from peripheral to memory.
 107:Drivers/STM32F3xx_HAL_Driver/Inc/stm32f3xx_ll_dma.h ****                                         This parameter can be a value of @ref DMA_LL_EC_DIRECTION
 108:Drivers/STM32F3xx_HAL_Driver/Inc/stm32f3xx_ll_dma.h **** 
 109:Drivers/STM32F3xx_HAL_Driver/Inc/stm32f3xx_ll_dma.h ****                                         This feature can be modified afterwards using unitary funct
 110:Drivers/STM32F3xx_HAL_Driver/Inc/stm32f3xx_ll_dma.h **** 
ARM GAS  /tmp/ccMxhqvP.s 			page 17


 111:Drivers/STM32F3xx_HAL_Driver/Inc/stm32f3xx_ll_dma.h ****   uint32_t Mode;                   /*!< Specifies the normal or circular operation mode.
 112:Drivers/STM32F3xx_HAL_Driver/Inc/stm32f3xx_ll_dma.h ****                                         This parameter can be a value of @ref DMA_LL_EC_MODE
 113:Drivers/STM32F3xx_HAL_Driver/Inc/stm32f3xx_ll_dma.h ****                                         @note: The circular buffer mode cannot be used if the memor
 114:Drivers/STM32F3xx_HAL_Driver/Inc/stm32f3xx_ll_dma.h ****                                                data transfer direction is configured on the selecte
 115:Drivers/STM32F3xx_HAL_Driver/Inc/stm32f3xx_ll_dma.h **** 
 116:Drivers/STM32F3xx_HAL_Driver/Inc/stm32f3xx_ll_dma.h ****                                         This feature can be modified afterwards using unitary funct
 117:Drivers/STM32F3xx_HAL_Driver/Inc/stm32f3xx_ll_dma.h **** 
 118:Drivers/STM32F3xx_HAL_Driver/Inc/stm32f3xx_ll_dma.h ****   uint32_t PeriphOrM2MSrcIncMode;  /*!< Specifies whether the Peripheral address or Source address 
 119:Drivers/STM32F3xx_HAL_Driver/Inc/stm32f3xx_ll_dma.h ****                                         is incremented or not.
 120:Drivers/STM32F3xx_HAL_Driver/Inc/stm32f3xx_ll_dma.h ****                                         This parameter can be a value of @ref DMA_LL_EC_PERIPH
 121:Drivers/STM32F3xx_HAL_Driver/Inc/stm32f3xx_ll_dma.h **** 
 122:Drivers/STM32F3xx_HAL_Driver/Inc/stm32f3xx_ll_dma.h ****                                         This feature can be modified afterwards using unitary funct
 123:Drivers/STM32F3xx_HAL_Driver/Inc/stm32f3xx_ll_dma.h **** 
 124:Drivers/STM32F3xx_HAL_Driver/Inc/stm32f3xx_ll_dma.h ****   uint32_t MemoryOrM2MDstIncMode;  /*!< Specifies whether the Memory address or Destination address
 125:Drivers/STM32F3xx_HAL_Driver/Inc/stm32f3xx_ll_dma.h ****                                         is incremented or not.
 126:Drivers/STM32F3xx_HAL_Driver/Inc/stm32f3xx_ll_dma.h ****                                         This parameter can be a value of @ref DMA_LL_EC_MEMORY
 127:Drivers/STM32F3xx_HAL_Driver/Inc/stm32f3xx_ll_dma.h **** 
 128:Drivers/STM32F3xx_HAL_Driver/Inc/stm32f3xx_ll_dma.h ****                                         This feature can be modified afterwards using unitary funct
 129:Drivers/STM32F3xx_HAL_Driver/Inc/stm32f3xx_ll_dma.h **** 
 130:Drivers/STM32F3xx_HAL_Driver/Inc/stm32f3xx_ll_dma.h ****   uint32_t PeriphOrM2MSrcDataSize; /*!< Specifies the Peripheral data size alignment or Source data
 131:Drivers/STM32F3xx_HAL_Driver/Inc/stm32f3xx_ll_dma.h ****                                         in case of memory to memory transfer direction.
 132:Drivers/STM32F3xx_HAL_Driver/Inc/stm32f3xx_ll_dma.h ****                                         This parameter can be a value of @ref DMA_LL_EC_PDATAALIGN
 133:Drivers/STM32F3xx_HAL_Driver/Inc/stm32f3xx_ll_dma.h **** 
 134:Drivers/STM32F3xx_HAL_Driver/Inc/stm32f3xx_ll_dma.h ****                                         This feature can be modified afterwards using unitary funct
 135:Drivers/STM32F3xx_HAL_Driver/Inc/stm32f3xx_ll_dma.h **** 
 136:Drivers/STM32F3xx_HAL_Driver/Inc/stm32f3xx_ll_dma.h ****   uint32_t MemoryOrM2MDstDataSize; /*!< Specifies the Memory data size alignment or Destination dat
 137:Drivers/STM32F3xx_HAL_Driver/Inc/stm32f3xx_ll_dma.h ****                                         in case of memory to memory transfer direction.
 138:Drivers/STM32F3xx_HAL_Driver/Inc/stm32f3xx_ll_dma.h ****                                         This parameter can be a value of @ref DMA_LL_EC_MDATAALIGN
 139:Drivers/STM32F3xx_HAL_Driver/Inc/stm32f3xx_ll_dma.h **** 
 140:Drivers/STM32F3xx_HAL_Driver/Inc/stm32f3xx_ll_dma.h ****                                         This feature can be modified afterwards using unitary funct
 141:Drivers/STM32F3xx_HAL_Driver/Inc/stm32f3xx_ll_dma.h **** 
 142:Drivers/STM32F3xx_HAL_Driver/Inc/stm32f3xx_ll_dma.h ****   uint32_t NbData;                 /*!< Specifies the number of data to transfer, in data unit.
 143:Drivers/STM32F3xx_HAL_Driver/Inc/stm32f3xx_ll_dma.h ****                                         The data unit is equal to the source buffer configuration s
 144:Drivers/STM32F3xx_HAL_Driver/Inc/stm32f3xx_ll_dma.h ****                                         or MemorySize parameters depending in the transfer directio
 145:Drivers/STM32F3xx_HAL_Driver/Inc/stm32f3xx_ll_dma.h ****                                         This parameter must be a value between Min_Data = 0 and Max
 146:Drivers/STM32F3xx_HAL_Driver/Inc/stm32f3xx_ll_dma.h **** 
 147:Drivers/STM32F3xx_HAL_Driver/Inc/stm32f3xx_ll_dma.h ****                                         This feature can be modified afterwards using unitary funct
 148:Drivers/STM32F3xx_HAL_Driver/Inc/stm32f3xx_ll_dma.h **** 
 149:Drivers/STM32F3xx_HAL_Driver/Inc/stm32f3xx_ll_dma.h ****   uint32_t Priority;               /*!< Specifies the channel priority level.
 150:Drivers/STM32F3xx_HAL_Driver/Inc/stm32f3xx_ll_dma.h ****                                         This parameter can be a value of @ref DMA_LL_EC_PRIORITY
 151:Drivers/STM32F3xx_HAL_Driver/Inc/stm32f3xx_ll_dma.h **** 
 152:Drivers/STM32F3xx_HAL_Driver/Inc/stm32f3xx_ll_dma.h ****                                         This feature can be modified afterwards using unitary funct
 153:Drivers/STM32F3xx_HAL_Driver/Inc/stm32f3xx_ll_dma.h **** 
 154:Drivers/STM32F3xx_HAL_Driver/Inc/stm32f3xx_ll_dma.h **** } LL_DMA_InitTypeDef;
 155:Drivers/STM32F3xx_HAL_Driver/Inc/stm32f3xx_ll_dma.h **** /**
 156:Drivers/STM32F3xx_HAL_Driver/Inc/stm32f3xx_ll_dma.h ****   * @}
 157:Drivers/STM32F3xx_HAL_Driver/Inc/stm32f3xx_ll_dma.h ****   */
 158:Drivers/STM32F3xx_HAL_Driver/Inc/stm32f3xx_ll_dma.h **** #endif /*USE_FULL_LL_DRIVER*/
 159:Drivers/STM32F3xx_HAL_Driver/Inc/stm32f3xx_ll_dma.h **** 
 160:Drivers/STM32F3xx_HAL_Driver/Inc/stm32f3xx_ll_dma.h **** /* Exported constants --------------------------------------------------------*/
 161:Drivers/STM32F3xx_HAL_Driver/Inc/stm32f3xx_ll_dma.h **** /** @defgroup DMA_LL_Exported_Constants DMA Exported Constants
 162:Drivers/STM32F3xx_HAL_Driver/Inc/stm32f3xx_ll_dma.h ****   * @{
 163:Drivers/STM32F3xx_HAL_Driver/Inc/stm32f3xx_ll_dma.h ****   */
 164:Drivers/STM32F3xx_HAL_Driver/Inc/stm32f3xx_ll_dma.h **** /** @defgroup DMA_LL_EC_CLEAR_FLAG Clear Flags Defines
 165:Drivers/STM32F3xx_HAL_Driver/Inc/stm32f3xx_ll_dma.h ****   * @brief    Flags defines which can be used with LL_DMA_WriteReg function
 166:Drivers/STM32F3xx_HAL_Driver/Inc/stm32f3xx_ll_dma.h ****   * @{
 167:Drivers/STM32F3xx_HAL_Driver/Inc/stm32f3xx_ll_dma.h ****   */
ARM GAS  /tmp/ccMxhqvP.s 			page 18


 168:Drivers/STM32F3xx_HAL_Driver/Inc/stm32f3xx_ll_dma.h **** #define LL_DMA_IFCR_CGIF1                 DMA_IFCR_CGIF1        /*!< Channel 1 global flag         
 169:Drivers/STM32F3xx_HAL_Driver/Inc/stm32f3xx_ll_dma.h **** #define LL_DMA_IFCR_CTCIF1                DMA_IFCR_CTCIF1       /*!< Channel 1 transfer complete fl
 170:Drivers/STM32F3xx_HAL_Driver/Inc/stm32f3xx_ll_dma.h **** #define LL_DMA_IFCR_CHTIF1                DMA_IFCR_CHTIF1       /*!< Channel 1 half transfer flag  
 171:Drivers/STM32F3xx_HAL_Driver/Inc/stm32f3xx_ll_dma.h **** #define LL_DMA_IFCR_CTEIF1                DMA_IFCR_CTEIF1       /*!< Channel 1 transfer error flag 
 172:Drivers/STM32F3xx_HAL_Driver/Inc/stm32f3xx_ll_dma.h **** #define LL_DMA_IFCR_CGIF2                 DMA_IFCR_CGIF2        /*!< Channel 2 global flag         
 173:Drivers/STM32F3xx_HAL_Driver/Inc/stm32f3xx_ll_dma.h **** #define LL_DMA_IFCR_CTCIF2                DMA_IFCR_CTCIF2       /*!< Channel 2 transfer complete fl
 174:Drivers/STM32F3xx_HAL_Driver/Inc/stm32f3xx_ll_dma.h **** #define LL_DMA_IFCR_CHTIF2                DMA_IFCR_CHTIF2       /*!< Channel 2 half transfer flag  
 175:Drivers/STM32F3xx_HAL_Driver/Inc/stm32f3xx_ll_dma.h **** #define LL_DMA_IFCR_CTEIF2                DMA_IFCR_CTEIF2       /*!< Channel 2 transfer error flag 
 176:Drivers/STM32F3xx_HAL_Driver/Inc/stm32f3xx_ll_dma.h **** #define LL_DMA_IFCR_CGIF3                 DMA_IFCR_CGIF3        /*!< Channel 3 global flag         
 177:Drivers/STM32F3xx_HAL_Driver/Inc/stm32f3xx_ll_dma.h **** #define LL_DMA_IFCR_CTCIF3                DMA_IFCR_CTCIF3       /*!< Channel 3 transfer complete fl
 178:Drivers/STM32F3xx_HAL_Driver/Inc/stm32f3xx_ll_dma.h **** #define LL_DMA_IFCR_CHTIF3                DMA_IFCR_CHTIF3       /*!< Channel 3 half transfer flag  
 179:Drivers/STM32F3xx_HAL_Driver/Inc/stm32f3xx_ll_dma.h **** #define LL_DMA_IFCR_CTEIF3                DMA_IFCR_CTEIF3       /*!< Channel 3 transfer error flag 
 180:Drivers/STM32F3xx_HAL_Driver/Inc/stm32f3xx_ll_dma.h **** #define LL_DMA_IFCR_CGIF4                 DMA_IFCR_CGIF4        /*!< Channel 4 global flag         
 181:Drivers/STM32F3xx_HAL_Driver/Inc/stm32f3xx_ll_dma.h **** #define LL_DMA_IFCR_CTCIF4                DMA_IFCR_CTCIF4       /*!< Channel 4 transfer complete fl
 182:Drivers/STM32F3xx_HAL_Driver/Inc/stm32f3xx_ll_dma.h **** #define LL_DMA_IFCR_CHTIF4                DMA_IFCR_CHTIF4       /*!< Channel 4 half transfer flag  
 183:Drivers/STM32F3xx_HAL_Driver/Inc/stm32f3xx_ll_dma.h **** #define LL_DMA_IFCR_CTEIF4                DMA_IFCR_CTEIF4       /*!< Channel 4 transfer error flag 
 184:Drivers/STM32F3xx_HAL_Driver/Inc/stm32f3xx_ll_dma.h **** #define LL_DMA_IFCR_CGIF5                 DMA_IFCR_CGIF5        /*!< Channel 5 global flag         
 185:Drivers/STM32F3xx_HAL_Driver/Inc/stm32f3xx_ll_dma.h **** #define LL_DMA_IFCR_CTCIF5                DMA_IFCR_CTCIF5       /*!< Channel 5 transfer complete fl
 186:Drivers/STM32F3xx_HAL_Driver/Inc/stm32f3xx_ll_dma.h **** #define LL_DMA_IFCR_CHTIF5                DMA_IFCR_CHTIF5       /*!< Channel 5 half transfer flag  
 187:Drivers/STM32F3xx_HAL_Driver/Inc/stm32f3xx_ll_dma.h **** #define LL_DMA_IFCR_CTEIF5                DMA_IFCR_CTEIF5       /*!< Channel 5 transfer error flag 
 188:Drivers/STM32F3xx_HAL_Driver/Inc/stm32f3xx_ll_dma.h **** #define LL_DMA_IFCR_CGIF6                 DMA_IFCR_CGIF6        /*!< Channel 6 global flag         
 189:Drivers/STM32F3xx_HAL_Driver/Inc/stm32f3xx_ll_dma.h **** #define LL_DMA_IFCR_CTCIF6                DMA_IFCR_CTCIF6       /*!< Channel 6 transfer complete fl
 190:Drivers/STM32F3xx_HAL_Driver/Inc/stm32f3xx_ll_dma.h **** #define LL_DMA_IFCR_CHTIF6                DMA_IFCR_CHTIF6       /*!< Channel 6 half transfer flag  
 191:Drivers/STM32F3xx_HAL_Driver/Inc/stm32f3xx_ll_dma.h **** #define LL_DMA_IFCR_CTEIF6                DMA_IFCR_CTEIF6       /*!< Channel 6 transfer error flag 
 192:Drivers/STM32F3xx_HAL_Driver/Inc/stm32f3xx_ll_dma.h **** #define LL_DMA_IFCR_CGIF7                 DMA_IFCR_CGIF7        /*!< Channel 7 global flag         
 193:Drivers/STM32F3xx_HAL_Driver/Inc/stm32f3xx_ll_dma.h **** #define LL_DMA_IFCR_CTCIF7                DMA_IFCR_CTCIF7       /*!< Channel 7 transfer complete fl
 194:Drivers/STM32F3xx_HAL_Driver/Inc/stm32f3xx_ll_dma.h **** #define LL_DMA_IFCR_CHTIF7                DMA_IFCR_CHTIF7       /*!< Channel 7 half transfer flag  
 195:Drivers/STM32F3xx_HAL_Driver/Inc/stm32f3xx_ll_dma.h **** #define LL_DMA_IFCR_CTEIF7                DMA_IFCR_CTEIF7       /*!< Channel 7 transfer error flag 
 196:Drivers/STM32F3xx_HAL_Driver/Inc/stm32f3xx_ll_dma.h **** /**
 197:Drivers/STM32F3xx_HAL_Driver/Inc/stm32f3xx_ll_dma.h ****   * @}
 198:Drivers/STM32F3xx_HAL_Driver/Inc/stm32f3xx_ll_dma.h ****   */
 199:Drivers/STM32F3xx_HAL_Driver/Inc/stm32f3xx_ll_dma.h **** 
 200:Drivers/STM32F3xx_HAL_Driver/Inc/stm32f3xx_ll_dma.h **** /** @defgroup DMA_LL_EC_GET_FLAG Get Flags Defines
 201:Drivers/STM32F3xx_HAL_Driver/Inc/stm32f3xx_ll_dma.h ****   * @brief    Flags defines which can be used with LL_DMA_ReadReg function
 202:Drivers/STM32F3xx_HAL_Driver/Inc/stm32f3xx_ll_dma.h ****   * @{
 203:Drivers/STM32F3xx_HAL_Driver/Inc/stm32f3xx_ll_dma.h ****   */
 204:Drivers/STM32F3xx_HAL_Driver/Inc/stm32f3xx_ll_dma.h **** #define LL_DMA_ISR_GIF1                   DMA_ISR_GIF1          /*!< Channel 1 global flag         
 205:Drivers/STM32F3xx_HAL_Driver/Inc/stm32f3xx_ll_dma.h **** #define LL_DMA_ISR_TCIF1                  DMA_ISR_TCIF1         /*!< Channel 1 transfer complete fl
 206:Drivers/STM32F3xx_HAL_Driver/Inc/stm32f3xx_ll_dma.h **** #define LL_DMA_ISR_HTIF1                  DMA_ISR_HTIF1         /*!< Channel 1 half transfer flag  
 207:Drivers/STM32F3xx_HAL_Driver/Inc/stm32f3xx_ll_dma.h **** #define LL_DMA_ISR_TEIF1                  DMA_ISR_TEIF1         /*!< Channel 1 transfer error flag 
 208:Drivers/STM32F3xx_HAL_Driver/Inc/stm32f3xx_ll_dma.h **** #define LL_DMA_ISR_GIF2                   DMA_ISR_GIF2          /*!< Channel 2 global flag         
 209:Drivers/STM32F3xx_HAL_Driver/Inc/stm32f3xx_ll_dma.h **** #define LL_DMA_ISR_TCIF2                  DMA_ISR_TCIF2         /*!< Channel 2 transfer complete fl
 210:Drivers/STM32F3xx_HAL_Driver/Inc/stm32f3xx_ll_dma.h **** #define LL_DMA_ISR_HTIF2                  DMA_ISR_HTIF2         /*!< Channel 2 half transfer flag  
 211:Drivers/STM32F3xx_HAL_Driver/Inc/stm32f3xx_ll_dma.h **** #define LL_DMA_ISR_TEIF2                  DMA_ISR_TEIF2         /*!< Channel 2 transfer error flag 
 212:Drivers/STM32F3xx_HAL_Driver/Inc/stm32f3xx_ll_dma.h **** #define LL_DMA_ISR_GIF3                   DMA_ISR_GIF3          /*!< Channel 3 global flag         
 213:Drivers/STM32F3xx_HAL_Driver/Inc/stm32f3xx_ll_dma.h **** #define LL_DMA_ISR_TCIF3                  DMA_ISR_TCIF3         /*!< Channel 3 transfer complete fl
 214:Drivers/STM32F3xx_HAL_Driver/Inc/stm32f3xx_ll_dma.h **** #define LL_DMA_ISR_HTIF3                  DMA_ISR_HTIF3         /*!< Channel 3 half transfer flag  
 215:Drivers/STM32F3xx_HAL_Driver/Inc/stm32f3xx_ll_dma.h **** #define LL_DMA_ISR_TEIF3                  DMA_ISR_TEIF3         /*!< Channel 3 transfer error flag 
 216:Drivers/STM32F3xx_HAL_Driver/Inc/stm32f3xx_ll_dma.h **** #define LL_DMA_ISR_GIF4                   DMA_ISR_GIF4          /*!< Channel 4 global flag         
 217:Drivers/STM32F3xx_HAL_Driver/Inc/stm32f3xx_ll_dma.h **** #define LL_DMA_ISR_TCIF4                  DMA_ISR_TCIF4         /*!< Channel 4 transfer complete fl
 218:Drivers/STM32F3xx_HAL_Driver/Inc/stm32f3xx_ll_dma.h **** #define LL_DMA_ISR_HTIF4                  DMA_ISR_HTIF4         /*!< Channel 4 half transfer flag  
 219:Drivers/STM32F3xx_HAL_Driver/Inc/stm32f3xx_ll_dma.h **** #define LL_DMA_ISR_TEIF4                  DMA_ISR_TEIF4         /*!< Channel 4 transfer error flag 
 220:Drivers/STM32F3xx_HAL_Driver/Inc/stm32f3xx_ll_dma.h **** #define LL_DMA_ISR_GIF5                   DMA_ISR_GIF5          /*!< Channel 5 global flag         
 221:Drivers/STM32F3xx_HAL_Driver/Inc/stm32f3xx_ll_dma.h **** #define LL_DMA_ISR_TCIF5                  DMA_ISR_TCIF5         /*!< Channel 5 transfer complete fl
 222:Drivers/STM32F3xx_HAL_Driver/Inc/stm32f3xx_ll_dma.h **** #define LL_DMA_ISR_HTIF5                  DMA_ISR_HTIF5         /*!< Channel 5 half transfer flag  
 223:Drivers/STM32F3xx_HAL_Driver/Inc/stm32f3xx_ll_dma.h **** #define LL_DMA_ISR_TEIF5                  DMA_ISR_TEIF5         /*!< Channel 5 transfer error flag 
 224:Drivers/STM32F3xx_HAL_Driver/Inc/stm32f3xx_ll_dma.h **** #define LL_DMA_ISR_GIF6                   DMA_ISR_GIF6          /*!< Channel 6 global flag         
ARM GAS  /tmp/ccMxhqvP.s 			page 19


 225:Drivers/STM32F3xx_HAL_Driver/Inc/stm32f3xx_ll_dma.h **** #define LL_DMA_ISR_TCIF6                  DMA_ISR_TCIF6         /*!< Channel 6 transfer complete fl
 226:Drivers/STM32F3xx_HAL_Driver/Inc/stm32f3xx_ll_dma.h **** #define LL_DMA_ISR_HTIF6                  DMA_ISR_HTIF6         /*!< Channel 6 half transfer flag  
 227:Drivers/STM32F3xx_HAL_Driver/Inc/stm32f3xx_ll_dma.h **** #define LL_DMA_ISR_TEIF6                  DMA_ISR_TEIF6         /*!< Channel 6 transfer error flag 
 228:Drivers/STM32F3xx_HAL_Driver/Inc/stm32f3xx_ll_dma.h **** #define LL_DMA_ISR_GIF7                   DMA_ISR_GIF7          /*!< Channel 7 global flag         
 229:Drivers/STM32F3xx_HAL_Driver/Inc/stm32f3xx_ll_dma.h **** #define LL_DMA_ISR_TCIF7                  DMA_ISR_TCIF7         /*!< Channel 7 transfer complete fl
 230:Drivers/STM32F3xx_HAL_Driver/Inc/stm32f3xx_ll_dma.h **** #define LL_DMA_ISR_HTIF7                  DMA_ISR_HTIF7         /*!< Channel 7 half transfer flag  
 231:Drivers/STM32F3xx_HAL_Driver/Inc/stm32f3xx_ll_dma.h **** #define LL_DMA_ISR_TEIF7                  DMA_ISR_TEIF7         /*!< Channel 7 transfer error flag 
 232:Drivers/STM32F3xx_HAL_Driver/Inc/stm32f3xx_ll_dma.h **** /**
 233:Drivers/STM32F3xx_HAL_Driver/Inc/stm32f3xx_ll_dma.h ****   * @}
 234:Drivers/STM32F3xx_HAL_Driver/Inc/stm32f3xx_ll_dma.h ****   */
 235:Drivers/STM32F3xx_HAL_Driver/Inc/stm32f3xx_ll_dma.h **** 
 236:Drivers/STM32F3xx_HAL_Driver/Inc/stm32f3xx_ll_dma.h **** /** @defgroup DMA_LL_EC_IT IT Defines
 237:Drivers/STM32F3xx_HAL_Driver/Inc/stm32f3xx_ll_dma.h ****   * @brief    IT defines which can be used with LL_DMA_ReadReg and  LL_DMA_WriteReg functions
 238:Drivers/STM32F3xx_HAL_Driver/Inc/stm32f3xx_ll_dma.h ****   * @{
 239:Drivers/STM32F3xx_HAL_Driver/Inc/stm32f3xx_ll_dma.h ****   */
 240:Drivers/STM32F3xx_HAL_Driver/Inc/stm32f3xx_ll_dma.h **** #define LL_DMA_CCR_TCIE                   DMA_CCR_TCIE          /*!< Transfer complete interrupt */
 241:Drivers/STM32F3xx_HAL_Driver/Inc/stm32f3xx_ll_dma.h **** #define LL_DMA_CCR_HTIE                   DMA_CCR_HTIE          /*!< Half Transfer interrupt     */
 242:Drivers/STM32F3xx_HAL_Driver/Inc/stm32f3xx_ll_dma.h **** #define LL_DMA_CCR_TEIE                   DMA_CCR_TEIE          /*!< Transfer error interrupt    */
 243:Drivers/STM32F3xx_HAL_Driver/Inc/stm32f3xx_ll_dma.h **** /**
 244:Drivers/STM32F3xx_HAL_Driver/Inc/stm32f3xx_ll_dma.h ****   * @}
 245:Drivers/STM32F3xx_HAL_Driver/Inc/stm32f3xx_ll_dma.h ****   */
 246:Drivers/STM32F3xx_HAL_Driver/Inc/stm32f3xx_ll_dma.h **** 
 247:Drivers/STM32F3xx_HAL_Driver/Inc/stm32f3xx_ll_dma.h **** /** @defgroup DMA_LL_EC_CHANNEL CHANNEL
 248:Drivers/STM32F3xx_HAL_Driver/Inc/stm32f3xx_ll_dma.h ****   * @{
 249:Drivers/STM32F3xx_HAL_Driver/Inc/stm32f3xx_ll_dma.h ****   */
 250:Drivers/STM32F3xx_HAL_Driver/Inc/stm32f3xx_ll_dma.h **** #define LL_DMA_CHANNEL_1                  0x00000001U /*!< DMA Channel 1 */
 251:Drivers/STM32F3xx_HAL_Driver/Inc/stm32f3xx_ll_dma.h **** #define LL_DMA_CHANNEL_2                  0x00000002U /*!< DMA Channel 2 */
 252:Drivers/STM32F3xx_HAL_Driver/Inc/stm32f3xx_ll_dma.h **** #define LL_DMA_CHANNEL_3                  0x00000003U /*!< DMA Channel 3 */
 253:Drivers/STM32F3xx_HAL_Driver/Inc/stm32f3xx_ll_dma.h **** #define LL_DMA_CHANNEL_4                  0x00000004U /*!< DMA Channel 4 */
 254:Drivers/STM32F3xx_HAL_Driver/Inc/stm32f3xx_ll_dma.h **** #define LL_DMA_CHANNEL_5                  0x00000005U /*!< DMA Channel 5 */
 255:Drivers/STM32F3xx_HAL_Driver/Inc/stm32f3xx_ll_dma.h **** #define LL_DMA_CHANNEL_6                  0x00000006U /*!< DMA Channel 6 */
 256:Drivers/STM32F3xx_HAL_Driver/Inc/stm32f3xx_ll_dma.h **** #define LL_DMA_CHANNEL_7                  0x00000007U /*!< DMA Channel 7 */
 257:Drivers/STM32F3xx_HAL_Driver/Inc/stm32f3xx_ll_dma.h **** #if defined(USE_FULL_LL_DRIVER)
 258:Drivers/STM32F3xx_HAL_Driver/Inc/stm32f3xx_ll_dma.h **** #define LL_DMA_CHANNEL_ALL                0xFFFF0000U /*!< DMA Channel all (used only for function 
 259:Drivers/STM32F3xx_HAL_Driver/Inc/stm32f3xx_ll_dma.h **** #endif /*USE_FULL_LL_DRIVER*/
 260:Drivers/STM32F3xx_HAL_Driver/Inc/stm32f3xx_ll_dma.h **** /**
 261:Drivers/STM32F3xx_HAL_Driver/Inc/stm32f3xx_ll_dma.h ****   * @}
 262:Drivers/STM32F3xx_HAL_Driver/Inc/stm32f3xx_ll_dma.h ****   */
 263:Drivers/STM32F3xx_HAL_Driver/Inc/stm32f3xx_ll_dma.h **** 
 264:Drivers/STM32F3xx_HAL_Driver/Inc/stm32f3xx_ll_dma.h **** /** @defgroup DMA_LL_EC_DIRECTION Transfer Direction
 265:Drivers/STM32F3xx_HAL_Driver/Inc/stm32f3xx_ll_dma.h ****   * @{
 266:Drivers/STM32F3xx_HAL_Driver/Inc/stm32f3xx_ll_dma.h ****   */
 267:Drivers/STM32F3xx_HAL_Driver/Inc/stm32f3xx_ll_dma.h **** #define LL_DMA_DIRECTION_PERIPH_TO_MEMORY 0x00000000U             /*!< Peripheral to memory directi
 268:Drivers/STM32F3xx_HAL_Driver/Inc/stm32f3xx_ll_dma.h **** #define LL_DMA_DIRECTION_MEMORY_TO_PERIPH DMA_CCR_DIR             /*!< Memory to peripheral directi
 269:Drivers/STM32F3xx_HAL_Driver/Inc/stm32f3xx_ll_dma.h **** #define LL_DMA_DIRECTION_MEMORY_TO_MEMORY DMA_CCR_MEM2MEM         /*!< Memory to memory direction  
 270:Drivers/STM32F3xx_HAL_Driver/Inc/stm32f3xx_ll_dma.h **** /**
 271:Drivers/STM32F3xx_HAL_Driver/Inc/stm32f3xx_ll_dma.h ****   * @}
 272:Drivers/STM32F3xx_HAL_Driver/Inc/stm32f3xx_ll_dma.h ****   */
 273:Drivers/STM32F3xx_HAL_Driver/Inc/stm32f3xx_ll_dma.h **** 
 274:Drivers/STM32F3xx_HAL_Driver/Inc/stm32f3xx_ll_dma.h **** /** @defgroup DMA_LL_EC_MODE Transfer mode
 275:Drivers/STM32F3xx_HAL_Driver/Inc/stm32f3xx_ll_dma.h ****   * @{
 276:Drivers/STM32F3xx_HAL_Driver/Inc/stm32f3xx_ll_dma.h ****   */
 277:Drivers/STM32F3xx_HAL_Driver/Inc/stm32f3xx_ll_dma.h **** #define LL_DMA_MODE_NORMAL                0x00000000U             /*!< Normal Mode                 
 278:Drivers/STM32F3xx_HAL_Driver/Inc/stm32f3xx_ll_dma.h **** #define LL_DMA_MODE_CIRCULAR              DMA_CCR_CIRC            /*!< Circular Mode               
 279:Drivers/STM32F3xx_HAL_Driver/Inc/stm32f3xx_ll_dma.h **** /**
 280:Drivers/STM32F3xx_HAL_Driver/Inc/stm32f3xx_ll_dma.h ****   * @}
 281:Drivers/STM32F3xx_HAL_Driver/Inc/stm32f3xx_ll_dma.h ****   */
ARM GAS  /tmp/ccMxhqvP.s 			page 20


 282:Drivers/STM32F3xx_HAL_Driver/Inc/stm32f3xx_ll_dma.h **** 
 283:Drivers/STM32F3xx_HAL_Driver/Inc/stm32f3xx_ll_dma.h **** /** @defgroup DMA_LL_EC_PERIPH Peripheral increment mode
 284:Drivers/STM32F3xx_HAL_Driver/Inc/stm32f3xx_ll_dma.h ****   * @{
 285:Drivers/STM32F3xx_HAL_Driver/Inc/stm32f3xx_ll_dma.h ****   */
 286:Drivers/STM32F3xx_HAL_Driver/Inc/stm32f3xx_ll_dma.h **** #define LL_DMA_PERIPH_INCREMENT           DMA_CCR_PINC            /*!< Peripheral increment mode En
 287:Drivers/STM32F3xx_HAL_Driver/Inc/stm32f3xx_ll_dma.h **** #define LL_DMA_PERIPH_NOINCREMENT         0x00000000U             /*!< Peripheral increment mode Di
 288:Drivers/STM32F3xx_HAL_Driver/Inc/stm32f3xx_ll_dma.h **** /**
 289:Drivers/STM32F3xx_HAL_Driver/Inc/stm32f3xx_ll_dma.h ****   * @}
 290:Drivers/STM32F3xx_HAL_Driver/Inc/stm32f3xx_ll_dma.h ****   */
 291:Drivers/STM32F3xx_HAL_Driver/Inc/stm32f3xx_ll_dma.h **** 
 292:Drivers/STM32F3xx_HAL_Driver/Inc/stm32f3xx_ll_dma.h **** /** @defgroup DMA_LL_EC_MEMORY Memory increment mode
 293:Drivers/STM32F3xx_HAL_Driver/Inc/stm32f3xx_ll_dma.h ****   * @{
 294:Drivers/STM32F3xx_HAL_Driver/Inc/stm32f3xx_ll_dma.h ****   */
 295:Drivers/STM32F3xx_HAL_Driver/Inc/stm32f3xx_ll_dma.h **** #define LL_DMA_MEMORY_INCREMENT           DMA_CCR_MINC            /*!< Memory increment mode Enable
 296:Drivers/STM32F3xx_HAL_Driver/Inc/stm32f3xx_ll_dma.h **** #define LL_DMA_MEMORY_NOINCREMENT         0x00000000U             /*!< Memory increment mode Disabl
 297:Drivers/STM32F3xx_HAL_Driver/Inc/stm32f3xx_ll_dma.h **** /**
 298:Drivers/STM32F3xx_HAL_Driver/Inc/stm32f3xx_ll_dma.h ****   * @}
 299:Drivers/STM32F3xx_HAL_Driver/Inc/stm32f3xx_ll_dma.h ****   */
 300:Drivers/STM32F3xx_HAL_Driver/Inc/stm32f3xx_ll_dma.h **** 
 301:Drivers/STM32F3xx_HAL_Driver/Inc/stm32f3xx_ll_dma.h **** /** @defgroup DMA_LL_EC_PDATAALIGN Peripheral data alignment
 302:Drivers/STM32F3xx_HAL_Driver/Inc/stm32f3xx_ll_dma.h ****   * @{
 303:Drivers/STM32F3xx_HAL_Driver/Inc/stm32f3xx_ll_dma.h ****   */
 304:Drivers/STM32F3xx_HAL_Driver/Inc/stm32f3xx_ll_dma.h **** #define LL_DMA_PDATAALIGN_BYTE            0x00000000U             /*!< Peripheral data alignment : 
 305:Drivers/STM32F3xx_HAL_Driver/Inc/stm32f3xx_ll_dma.h **** #define LL_DMA_PDATAALIGN_HALFWORD        DMA_CCR_PSIZE_0         /*!< Peripheral data alignment : 
 306:Drivers/STM32F3xx_HAL_Driver/Inc/stm32f3xx_ll_dma.h **** #define LL_DMA_PDATAALIGN_WORD            DMA_CCR_PSIZE_1         /*!< Peripheral data alignment : 
 307:Drivers/STM32F3xx_HAL_Driver/Inc/stm32f3xx_ll_dma.h **** /**
 308:Drivers/STM32F3xx_HAL_Driver/Inc/stm32f3xx_ll_dma.h ****   * @}
 309:Drivers/STM32F3xx_HAL_Driver/Inc/stm32f3xx_ll_dma.h ****   */
 310:Drivers/STM32F3xx_HAL_Driver/Inc/stm32f3xx_ll_dma.h **** 
 311:Drivers/STM32F3xx_HAL_Driver/Inc/stm32f3xx_ll_dma.h **** /** @defgroup DMA_LL_EC_MDATAALIGN Memory data alignment
 312:Drivers/STM32F3xx_HAL_Driver/Inc/stm32f3xx_ll_dma.h ****   * @{
 313:Drivers/STM32F3xx_HAL_Driver/Inc/stm32f3xx_ll_dma.h ****   */
 314:Drivers/STM32F3xx_HAL_Driver/Inc/stm32f3xx_ll_dma.h **** #define LL_DMA_MDATAALIGN_BYTE            0x00000000U             /*!< Memory data alignment : Byte
 315:Drivers/STM32F3xx_HAL_Driver/Inc/stm32f3xx_ll_dma.h **** #define LL_DMA_MDATAALIGN_HALFWORD        DMA_CCR_MSIZE_0         /*!< Memory data alignment : Half
 316:Drivers/STM32F3xx_HAL_Driver/Inc/stm32f3xx_ll_dma.h **** #define LL_DMA_MDATAALIGN_WORD            DMA_CCR_MSIZE_1         /*!< Memory data alignment : Word
 317:Drivers/STM32F3xx_HAL_Driver/Inc/stm32f3xx_ll_dma.h **** /**
 318:Drivers/STM32F3xx_HAL_Driver/Inc/stm32f3xx_ll_dma.h ****   * @}
 319:Drivers/STM32F3xx_HAL_Driver/Inc/stm32f3xx_ll_dma.h ****   */
 320:Drivers/STM32F3xx_HAL_Driver/Inc/stm32f3xx_ll_dma.h **** 
 321:Drivers/STM32F3xx_HAL_Driver/Inc/stm32f3xx_ll_dma.h **** /** @defgroup DMA_LL_EC_PRIORITY Transfer Priority level
 322:Drivers/STM32F3xx_HAL_Driver/Inc/stm32f3xx_ll_dma.h ****   * @{
 323:Drivers/STM32F3xx_HAL_Driver/Inc/stm32f3xx_ll_dma.h ****   */
 324:Drivers/STM32F3xx_HAL_Driver/Inc/stm32f3xx_ll_dma.h **** #define LL_DMA_PRIORITY_LOW               0x00000000U             /*!< Priority level : Low       *
 325:Drivers/STM32F3xx_HAL_Driver/Inc/stm32f3xx_ll_dma.h **** #define LL_DMA_PRIORITY_MEDIUM            DMA_CCR_PL_0            /*!< Priority level : Medium    *
 326:Drivers/STM32F3xx_HAL_Driver/Inc/stm32f3xx_ll_dma.h **** #define LL_DMA_PRIORITY_HIGH              DMA_CCR_PL_1            /*!< Priority level : High      *
 327:Drivers/STM32F3xx_HAL_Driver/Inc/stm32f3xx_ll_dma.h **** #define LL_DMA_PRIORITY_VERYHIGH          DMA_CCR_PL              /*!< Priority level : Very_High *
 328:Drivers/STM32F3xx_HAL_Driver/Inc/stm32f3xx_ll_dma.h **** /**
 329:Drivers/STM32F3xx_HAL_Driver/Inc/stm32f3xx_ll_dma.h ****   * @}
 330:Drivers/STM32F3xx_HAL_Driver/Inc/stm32f3xx_ll_dma.h ****   */
 331:Drivers/STM32F3xx_HAL_Driver/Inc/stm32f3xx_ll_dma.h **** 
 332:Drivers/STM32F3xx_HAL_Driver/Inc/stm32f3xx_ll_dma.h **** 
 333:Drivers/STM32F3xx_HAL_Driver/Inc/stm32f3xx_ll_dma.h **** /**
 334:Drivers/STM32F3xx_HAL_Driver/Inc/stm32f3xx_ll_dma.h ****   * @}
 335:Drivers/STM32F3xx_HAL_Driver/Inc/stm32f3xx_ll_dma.h ****   */
 336:Drivers/STM32F3xx_HAL_Driver/Inc/stm32f3xx_ll_dma.h **** 
 337:Drivers/STM32F3xx_HAL_Driver/Inc/stm32f3xx_ll_dma.h **** /* Exported macro ------------------------------------------------------------*/
 338:Drivers/STM32F3xx_HAL_Driver/Inc/stm32f3xx_ll_dma.h **** /** @defgroup DMA_LL_Exported_Macros DMA Exported Macros
ARM GAS  /tmp/ccMxhqvP.s 			page 21


 339:Drivers/STM32F3xx_HAL_Driver/Inc/stm32f3xx_ll_dma.h ****   * @{
 340:Drivers/STM32F3xx_HAL_Driver/Inc/stm32f3xx_ll_dma.h ****   */
 341:Drivers/STM32F3xx_HAL_Driver/Inc/stm32f3xx_ll_dma.h **** 
 342:Drivers/STM32F3xx_HAL_Driver/Inc/stm32f3xx_ll_dma.h **** /** @defgroup DMA_LL_EM_WRITE_READ Common Write and read registers macros
 343:Drivers/STM32F3xx_HAL_Driver/Inc/stm32f3xx_ll_dma.h ****   * @{
 344:Drivers/STM32F3xx_HAL_Driver/Inc/stm32f3xx_ll_dma.h ****   */
 345:Drivers/STM32F3xx_HAL_Driver/Inc/stm32f3xx_ll_dma.h **** /**
 346:Drivers/STM32F3xx_HAL_Driver/Inc/stm32f3xx_ll_dma.h ****   * @brief  Write a value in DMA register
 347:Drivers/STM32F3xx_HAL_Driver/Inc/stm32f3xx_ll_dma.h ****   * @param  __INSTANCE__ DMA Instance
 348:Drivers/STM32F3xx_HAL_Driver/Inc/stm32f3xx_ll_dma.h ****   * @param  __REG__ Register to be written
 349:Drivers/STM32F3xx_HAL_Driver/Inc/stm32f3xx_ll_dma.h ****   * @param  __VALUE__ Value to be written in the register
 350:Drivers/STM32F3xx_HAL_Driver/Inc/stm32f3xx_ll_dma.h ****   * @retval None
 351:Drivers/STM32F3xx_HAL_Driver/Inc/stm32f3xx_ll_dma.h ****   */
 352:Drivers/STM32F3xx_HAL_Driver/Inc/stm32f3xx_ll_dma.h **** #define LL_DMA_WriteReg(__INSTANCE__, __REG__, __VALUE__) WRITE_REG(__INSTANCE__->__REG__, (__VALUE
 353:Drivers/STM32F3xx_HAL_Driver/Inc/stm32f3xx_ll_dma.h **** 
 354:Drivers/STM32F3xx_HAL_Driver/Inc/stm32f3xx_ll_dma.h **** /**
 355:Drivers/STM32F3xx_HAL_Driver/Inc/stm32f3xx_ll_dma.h ****   * @brief  Read a value in DMA register
 356:Drivers/STM32F3xx_HAL_Driver/Inc/stm32f3xx_ll_dma.h ****   * @param  __INSTANCE__ DMA Instance
 357:Drivers/STM32F3xx_HAL_Driver/Inc/stm32f3xx_ll_dma.h ****   * @param  __REG__ Register to be read
 358:Drivers/STM32F3xx_HAL_Driver/Inc/stm32f3xx_ll_dma.h ****   * @retval Register value
 359:Drivers/STM32F3xx_HAL_Driver/Inc/stm32f3xx_ll_dma.h ****   */
 360:Drivers/STM32F3xx_HAL_Driver/Inc/stm32f3xx_ll_dma.h **** #define LL_DMA_ReadReg(__INSTANCE__, __REG__) READ_REG(__INSTANCE__->__REG__)
 361:Drivers/STM32F3xx_HAL_Driver/Inc/stm32f3xx_ll_dma.h **** /**
 362:Drivers/STM32F3xx_HAL_Driver/Inc/stm32f3xx_ll_dma.h ****   * @}
 363:Drivers/STM32F3xx_HAL_Driver/Inc/stm32f3xx_ll_dma.h ****   */
 364:Drivers/STM32F3xx_HAL_Driver/Inc/stm32f3xx_ll_dma.h **** 
 365:Drivers/STM32F3xx_HAL_Driver/Inc/stm32f3xx_ll_dma.h **** /** @defgroup DMA_LL_EM_CONVERT_DMAxCHANNELy Convert DMAxChannely
 366:Drivers/STM32F3xx_HAL_Driver/Inc/stm32f3xx_ll_dma.h ****   * @{
 367:Drivers/STM32F3xx_HAL_Driver/Inc/stm32f3xx_ll_dma.h ****   */
 368:Drivers/STM32F3xx_HAL_Driver/Inc/stm32f3xx_ll_dma.h **** /**
 369:Drivers/STM32F3xx_HAL_Driver/Inc/stm32f3xx_ll_dma.h ****   * @brief  Convert DMAx_Channely into DMAx
 370:Drivers/STM32F3xx_HAL_Driver/Inc/stm32f3xx_ll_dma.h ****   * @param  __CHANNEL_INSTANCE__ DMAx_Channely
 371:Drivers/STM32F3xx_HAL_Driver/Inc/stm32f3xx_ll_dma.h ****   * @retval DMAx
 372:Drivers/STM32F3xx_HAL_Driver/Inc/stm32f3xx_ll_dma.h ****   */
 373:Drivers/STM32F3xx_HAL_Driver/Inc/stm32f3xx_ll_dma.h **** #if defined(DMA2)
 374:Drivers/STM32F3xx_HAL_Driver/Inc/stm32f3xx_ll_dma.h **** #define __LL_DMA_GET_INSTANCE(__CHANNEL_INSTANCE__)   \
 375:Drivers/STM32F3xx_HAL_Driver/Inc/stm32f3xx_ll_dma.h **** (((uint32_t)(__CHANNEL_INSTANCE__) > ((uint32_t)DMA1_Channel7)) ?  DMA2 : DMA1)
 376:Drivers/STM32F3xx_HAL_Driver/Inc/stm32f3xx_ll_dma.h **** #else
 377:Drivers/STM32F3xx_HAL_Driver/Inc/stm32f3xx_ll_dma.h **** #define __LL_DMA_GET_INSTANCE(__CHANNEL_INSTANCE__)  (DMA1)
 378:Drivers/STM32F3xx_HAL_Driver/Inc/stm32f3xx_ll_dma.h **** #endif
 379:Drivers/STM32F3xx_HAL_Driver/Inc/stm32f3xx_ll_dma.h **** 
 380:Drivers/STM32F3xx_HAL_Driver/Inc/stm32f3xx_ll_dma.h **** /**
 381:Drivers/STM32F3xx_HAL_Driver/Inc/stm32f3xx_ll_dma.h ****   * @brief  Convert DMAx_Channely into LL_DMA_CHANNEL_y
 382:Drivers/STM32F3xx_HAL_Driver/Inc/stm32f3xx_ll_dma.h ****   * @param  __CHANNEL_INSTANCE__ DMAx_Channely
 383:Drivers/STM32F3xx_HAL_Driver/Inc/stm32f3xx_ll_dma.h ****   * @retval LL_DMA_CHANNEL_y
 384:Drivers/STM32F3xx_HAL_Driver/Inc/stm32f3xx_ll_dma.h ****   */
 385:Drivers/STM32F3xx_HAL_Driver/Inc/stm32f3xx_ll_dma.h **** #if defined (DMA2)
 386:Drivers/STM32F3xx_HAL_Driver/Inc/stm32f3xx_ll_dma.h **** #if defined (DMA2_Channel6) && defined (DMA2_Channel7)
 387:Drivers/STM32F3xx_HAL_Driver/Inc/stm32f3xx_ll_dma.h **** #define __LL_DMA_GET_CHANNEL(__CHANNEL_INSTANCE__)   \
 388:Drivers/STM32F3xx_HAL_Driver/Inc/stm32f3xx_ll_dma.h **** (((uint32_t)(__CHANNEL_INSTANCE__) == ((uint32_t)DMA1_Channel1)) ? LL_DMA_CHANNEL_1 : \
 389:Drivers/STM32F3xx_HAL_Driver/Inc/stm32f3xx_ll_dma.h ****  ((uint32_t)(__CHANNEL_INSTANCE__) == ((uint32_t)DMA2_Channel1)) ? LL_DMA_CHANNEL_1 : \
 390:Drivers/STM32F3xx_HAL_Driver/Inc/stm32f3xx_ll_dma.h ****  ((uint32_t)(__CHANNEL_INSTANCE__) == ((uint32_t)DMA1_Channel2)) ? LL_DMA_CHANNEL_2 : \
 391:Drivers/STM32F3xx_HAL_Driver/Inc/stm32f3xx_ll_dma.h ****  ((uint32_t)(__CHANNEL_INSTANCE__) == ((uint32_t)DMA2_Channel2)) ? LL_DMA_CHANNEL_2 : \
 392:Drivers/STM32F3xx_HAL_Driver/Inc/stm32f3xx_ll_dma.h ****  ((uint32_t)(__CHANNEL_INSTANCE__) == ((uint32_t)DMA1_Channel3)) ? LL_DMA_CHANNEL_3 : \
 393:Drivers/STM32F3xx_HAL_Driver/Inc/stm32f3xx_ll_dma.h ****  ((uint32_t)(__CHANNEL_INSTANCE__) == ((uint32_t)DMA2_Channel3)) ? LL_DMA_CHANNEL_3 : \
 394:Drivers/STM32F3xx_HAL_Driver/Inc/stm32f3xx_ll_dma.h ****  ((uint32_t)(__CHANNEL_INSTANCE__) == ((uint32_t)DMA1_Channel4)) ? LL_DMA_CHANNEL_4 : \
 395:Drivers/STM32F3xx_HAL_Driver/Inc/stm32f3xx_ll_dma.h ****  ((uint32_t)(__CHANNEL_INSTANCE__) == ((uint32_t)DMA2_Channel4)) ? LL_DMA_CHANNEL_4 : \
ARM GAS  /tmp/ccMxhqvP.s 			page 22


 396:Drivers/STM32F3xx_HAL_Driver/Inc/stm32f3xx_ll_dma.h ****  ((uint32_t)(__CHANNEL_INSTANCE__) == ((uint32_t)DMA1_Channel5)) ? LL_DMA_CHANNEL_5 : \
 397:Drivers/STM32F3xx_HAL_Driver/Inc/stm32f3xx_ll_dma.h ****  ((uint32_t)(__CHANNEL_INSTANCE__) == ((uint32_t)DMA2_Channel5)) ? LL_DMA_CHANNEL_5 : \
 398:Drivers/STM32F3xx_HAL_Driver/Inc/stm32f3xx_ll_dma.h ****  ((uint32_t)(__CHANNEL_INSTANCE__) == ((uint32_t)DMA1_Channel6)) ? LL_DMA_CHANNEL_6 : \
 399:Drivers/STM32F3xx_HAL_Driver/Inc/stm32f3xx_ll_dma.h ****  ((uint32_t)(__CHANNEL_INSTANCE__) == ((uint32_t)DMA2_Channel6)) ? LL_DMA_CHANNEL_6 : \
 400:Drivers/STM32F3xx_HAL_Driver/Inc/stm32f3xx_ll_dma.h ****  LL_DMA_CHANNEL_7)
 401:Drivers/STM32F3xx_HAL_Driver/Inc/stm32f3xx_ll_dma.h **** #else
 402:Drivers/STM32F3xx_HAL_Driver/Inc/stm32f3xx_ll_dma.h **** #define __LL_DMA_GET_CHANNEL(__CHANNEL_INSTANCE__)   \
 403:Drivers/STM32F3xx_HAL_Driver/Inc/stm32f3xx_ll_dma.h **** (((uint32_t)(__CHANNEL_INSTANCE__) == ((uint32_t)DMA1_Channel1)) ? LL_DMA_CHANNEL_1 : \
 404:Drivers/STM32F3xx_HAL_Driver/Inc/stm32f3xx_ll_dma.h ****  ((uint32_t)(__CHANNEL_INSTANCE__) == ((uint32_t)DMA2_Channel1)) ? LL_DMA_CHANNEL_1 : \
 405:Drivers/STM32F3xx_HAL_Driver/Inc/stm32f3xx_ll_dma.h ****  ((uint32_t)(__CHANNEL_INSTANCE__) == ((uint32_t)DMA1_Channel2)) ? LL_DMA_CHANNEL_2 : \
 406:Drivers/STM32F3xx_HAL_Driver/Inc/stm32f3xx_ll_dma.h ****  ((uint32_t)(__CHANNEL_INSTANCE__) == ((uint32_t)DMA2_Channel2)) ? LL_DMA_CHANNEL_2 : \
 407:Drivers/STM32F3xx_HAL_Driver/Inc/stm32f3xx_ll_dma.h ****  ((uint32_t)(__CHANNEL_INSTANCE__) == ((uint32_t)DMA1_Channel3)) ? LL_DMA_CHANNEL_3 : \
 408:Drivers/STM32F3xx_HAL_Driver/Inc/stm32f3xx_ll_dma.h ****  ((uint32_t)(__CHANNEL_INSTANCE__) == ((uint32_t)DMA2_Channel3)) ? LL_DMA_CHANNEL_3 : \
 409:Drivers/STM32F3xx_HAL_Driver/Inc/stm32f3xx_ll_dma.h ****  ((uint32_t)(__CHANNEL_INSTANCE__) == ((uint32_t)DMA1_Channel4)) ? LL_DMA_CHANNEL_4 : \
 410:Drivers/STM32F3xx_HAL_Driver/Inc/stm32f3xx_ll_dma.h ****  ((uint32_t)(__CHANNEL_INSTANCE__) == ((uint32_t)DMA2_Channel4)) ? LL_DMA_CHANNEL_4 : \
 411:Drivers/STM32F3xx_HAL_Driver/Inc/stm32f3xx_ll_dma.h ****  ((uint32_t)(__CHANNEL_INSTANCE__) == ((uint32_t)DMA1_Channel5)) ? LL_DMA_CHANNEL_5 : \
 412:Drivers/STM32F3xx_HAL_Driver/Inc/stm32f3xx_ll_dma.h ****  ((uint32_t)(__CHANNEL_INSTANCE__) == ((uint32_t)DMA2_Channel5)) ? LL_DMA_CHANNEL_5 : \
 413:Drivers/STM32F3xx_HAL_Driver/Inc/stm32f3xx_ll_dma.h ****  ((uint32_t)(__CHANNEL_INSTANCE__) == ((uint32_t)DMA1_Channel6)) ? LL_DMA_CHANNEL_6 : \
 414:Drivers/STM32F3xx_HAL_Driver/Inc/stm32f3xx_ll_dma.h ****  LL_DMA_CHANNEL_7)
 415:Drivers/STM32F3xx_HAL_Driver/Inc/stm32f3xx_ll_dma.h **** #endif
 416:Drivers/STM32F3xx_HAL_Driver/Inc/stm32f3xx_ll_dma.h **** #else
 417:Drivers/STM32F3xx_HAL_Driver/Inc/stm32f3xx_ll_dma.h **** #define __LL_DMA_GET_CHANNEL(__CHANNEL_INSTANCE__)   \
 418:Drivers/STM32F3xx_HAL_Driver/Inc/stm32f3xx_ll_dma.h **** (((uint32_t)(__CHANNEL_INSTANCE__) == ((uint32_t)DMA1_Channel1)) ? LL_DMA_CHANNEL_1 : \
 419:Drivers/STM32F3xx_HAL_Driver/Inc/stm32f3xx_ll_dma.h ****  ((uint32_t)(__CHANNEL_INSTANCE__) == ((uint32_t)DMA1_Channel2)) ? LL_DMA_CHANNEL_2 : \
 420:Drivers/STM32F3xx_HAL_Driver/Inc/stm32f3xx_ll_dma.h ****  ((uint32_t)(__CHANNEL_INSTANCE__) == ((uint32_t)DMA1_Channel3)) ? LL_DMA_CHANNEL_3 : \
 421:Drivers/STM32F3xx_HAL_Driver/Inc/stm32f3xx_ll_dma.h ****  ((uint32_t)(__CHANNEL_INSTANCE__) == ((uint32_t)DMA1_Channel4)) ? LL_DMA_CHANNEL_4 : \
 422:Drivers/STM32F3xx_HAL_Driver/Inc/stm32f3xx_ll_dma.h ****  ((uint32_t)(__CHANNEL_INSTANCE__) == ((uint32_t)DMA1_Channel5)) ? LL_DMA_CHANNEL_5 : \
 423:Drivers/STM32F3xx_HAL_Driver/Inc/stm32f3xx_ll_dma.h ****  ((uint32_t)(__CHANNEL_INSTANCE__) == ((uint32_t)DMA1_Channel6)) ? LL_DMA_CHANNEL_6 : \
 424:Drivers/STM32F3xx_HAL_Driver/Inc/stm32f3xx_ll_dma.h ****  LL_DMA_CHANNEL_7)
 425:Drivers/STM32F3xx_HAL_Driver/Inc/stm32f3xx_ll_dma.h **** #endif
 426:Drivers/STM32F3xx_HAL_Driver/Inc/stm32f3xx_ll_dma.h **** 
 427:Drivers/STM32F3xx_HAL_Driver/Inc/stm32f3xx_ll_dma.h **** /**
 428:Drivers/STM32F3xx_HAL_Driver/Inc/stm32f3xx_ll_dma.h ****   * @brief  Convert DMA Instance DMAx and LL_DMA_CHANNEL_y into DMAx_Channely
 429:Drivers/STM32F3xx_HAL_Driver/Inc/stm32f3xx_ll_dma.h ****   * @param  __DMA_INSTANCE__ DMAx
 430:Drivers/STM32F3xx_HAL_Driver/Inc/stm32f3xx_ll_dma.h ****   * @param  __CHANNEL__ LL_DMA_CHANNEL_y
 431:Drivers/STM32F3xx_HAL_Driver/Inc/stm32f3xx_ll_dma.h ****   * @retval DMAx_Channely
 432:Drivers/STM32F3xx_HAL_Driver/Inc/stm32f3xx_ll_dma.h ****   */
 433:Drivers/STM32F3xx_HAL_Driver/Inc/stm32f3xx_ll_dma.h **** #if defined (DMA2)
 434:Drivers/STM32F3xx_HAL_Driver/Inc/stm32f3xx_ll_dma.h **** #if defined (DMA2_Channel6) && defined (DMA2_Channel7)
 435:Drivers/STM32F3xx_HAL_Driver/Inc/stm32f3xx_ll_dma.h **** #define __LL_DMA_GET_CHANNEL_INSTANCE(__DMA_INSTANCE__, __CHANNEL__)   \
 436:Drivers/STM32F3xx_HAL_Driver/Inc/stm32f3xx_ll_dma.h **** ((((uint32_t)(__DMA_INSTANCE__) == ((uint32_t)DMA1)) && ((uint32_t)(__CHANNEL__) == ((uint32_t)LL_D
 437:Drivers/STM32F3xx_HAL_Driver/Inc/stm32f3xx_ll_dma.h ****  (((uint32_t)(__DMA_INSTANCE__) == ((uint32_t)DMA2)) && ((uint32_t)(__CHANNEL__) == ((uint32_t)LL_D
 438:Drivers/STM32F3xx_HAL_Driver/Inc/stm32f3xx_ll_dma.h ****  (((uint32_t)(__DMA_INSTANCE__) == ((uint32_t)DMA1)) && ((uint32_t)(__CHANNEL__) == ((uint32_t)LL_D
 439:Drivers/STM32F3xx_HAL_Driver/Inc/stm32f3xx_ll_dma.h ****  (((uint32_t)(__DMA_INSTANCE__) == ((uint32_t)DMA2)) && ((uint32_t)(__CHANNEL__) == ((uint32_t)LL_D
 440:Drivers/STM32F3xx_HAL_Driver/Inc/stm32f3xx_ll_dma.h ****  (((uint32_t)(__DMA_INSTANCE__) == ((uint32_t)DMA1)) && ((uint32_t)(__CHANNEL__) == ((uint32_t)LL_D
 441:Drivers/STM32F3xx_HAL_Driver/Inc/stm32f3xx_ll_dma.h ****  (((uint32_t)(__DMA_INSTANCE__) == ((uint32_t)DMA2)) && ((uint32_t)(__CHANNEL__) == ((uint32_t)LL_D
 442:Drivers/STM32F3xx_HAL_Driver/Inc/stm32f3xx_ll_dma.h ****  (((uint32_t)(__DMA_INSTANCE__) == ((uint32_t)DMA1)) && ((uint32_t)(__CHANNEL__) == ((uint32_t)LL_D
 443:Drivers/STM32F3xx_HAL_Driver/Inc/stm32f3xx_ll_dma.h ****  (((uint32_t)(__DMA_INSTANCE__) == ((uint32_t)DMA2)) && ((uint32_t)(__CHANNEL__) == ((uint32_t)LL_D
 444:Drivers/STM32F3xx_HAL_Driver/Inc/stm32f3xx_ll_dma.h ****  (((uint32_t)(__DMA_INSTANCE__) == ((uint32_t)DMA1)) && ((uint32_t)(__CHANNEL__) == ((uint32_t)LL_D
 445:Drivers/STM32F3xx_HAL_Driver/Inc/stm32f3xx_ll_dma.h ****  (((uint32_t)(__DMA_INSTANCE__) == ((uint32_t)DMA2)) && ((uint32_t)(__CHANNEL__) == ((uint32_t)LL_D
 446:Drivers/STM32F3xx_HAL_Driver/Inc/stm32f3xx_ll_dma.h ****  (((uint32_t)(__DMA_INSTANCE__) == ((uint32_t)DMA1)) && ((uint32_t)(__CHANNEL__) == ((uint32_t)LL_D
 447:Drivers/STM32F3xx_HAL_Driver/Inc/stm32f3xx_ll_dma.h ****  (((uint32_t)(__DMA_INSTANCE__) == ((uint32_t)DMA2)) && ((uint32_t)(__CHANNEL__) == ((uint32_t)LL_D
 448:Drivers/STM32F3xx_HAL_Driver/Inc/stm32f3xx_ll_dma.h ****  (((uint32_t)(__DMA_INSTANCE__) == ((uint32_t)DMA1)) && ((uint32_t)(__CHANNEL__) == ((uint32_t)LL_D
 449:Drivers/STM32F3xx_HAL_Driver/Inc/stm32f3xx_ll_dma.h ****  DMA2_Channel7)
 450:Drivers/STM32F3xx_HAL_Driver/Inc/stm32f3xx_ll_dma.h **** #else
 451:Drivers/STM32F3xx_HAL_Driver/Inc/stm32f3xx_ll_dma.h **** #define __LL_DMA_GET_CHANNEL_INSTANCE(__DMA_INSTANCE__, __CHANNEL__)   \
 452:Drivers/STM32F3xx_HAL_Driver/Inc/stm32f3xx_ll_dma.h **** ((((uint32_t)(__DMA_INSTANCE__) == ((uint32_t)DMA1)) && ((uint32_t)(__CHANNEL__) == ((uint32_t)LL_D
ARM GAS  /tmp/ccMxhqvP.s 			page 23


 453:Drivers/STM32F3xx_HAL_Driver/Inc/stm32f3xx_ll_dma.h ****  (((uint32_t)(__DMA_INSTANCE__) == ((uint32_t)DMA2)) && ((uint32_t)(__CHANNEL__) == ((uint32_t)LL_D
 454:Drivers/STM32F3xx_HAL_Driver/Inc/stm32f3xx_ll_dma.h ****  (((uint32_t)(__DMA_INSTANCE__) == ((uint32_t)DMA1)) && ((uint32_t)(__CHANNEL__) == ((uint32_t)LL_D
 455:Drivers/STM32F3xx_HAL_Driver/Inc/stm32f3xx_ll_dma.h ****  (((uint32_t)(__DMA_INSTANCE__) == ((uint32_t)DMA2)) && ((uint32_t)(__CHANNEL__) == ((uint32_t)LL_D
 456:Drivers/STM32F3xx_HAL_Driver/Inc/stm32f3xx_ll_dma.h ****  (((uint32_t)(__DMA_INSTANCE__) == ((uint32_t)DMA1)) && ((uint32_t)(__CHANNEL__) == ((uint32_t)LL_D
 457:Drivers/STM32F3xx_HAL_Driver/Inc/stm32f3xx_ll_dma.h ****  (((uint32_t)(__DMA_INSTANCE__) == ((uint32_t)DMA2)) && ((uint32_t)(__CHANNEL__) == ((uint32_t)LL_D
 458:Drivers/STM32F3xx_HAL_Driver/Inc/stm32f3xx_ll_dma.h ****  (((uint32_t)(__DMA_INSTANCE__) == ((uint32_t)DMA1)) && ((uint32_t)(__CHANNEL__) == ((uint32_t)LL_D
 459:Drivers/STM32F3xx_HAL_Driver/Inc/stm32f3xx_ll_dma.h ****  (((uint32_t)(__DMA_INSTANCE__) == ((uint32_t)DMA2)) && ((uint32_t)(__CHANNEL__) == ((uint32_t)LL_D
 460:Drivers/STM32F3xx_HAL_Driver/Inc/stm32f3xx_ll_dma.h ****  (((uint32_t)(__DMA_INSTANCE__) == ((uint32_t)DMA1)) && ((uint32_t)(__CHANNEL__) == ((uint32_t)LL_D
 461:Drivers/STM32F3xx_HAL_Driver/Inc/stm32f3xx_ll_dma.h ****  (((uint32_t)(__DMA_INSTANCE__) == ((uint32_t)DMA2)) && ((uint32_t)(__CHANNEL__) == ((uint32_t)LL_D
 462:Drivers/STM32F3xx_HAL_Driver/Inc/stm32f3xx_ll_dma.h ****  (((uint32_t)(__DMA_INSTANCE__) == ((uint32_t)DMA1)) && ((uint32_t)(__CHANNEL__) == ((uint32_t)LL_D
 463:Drivers/STM32F3xx_HAL_Driver/Inc/stm32f3xx_ll_dma.h ****  DMA1_Channel7)
 464:Drivers/STM32F3xx_HAL_Driver/Inc/stm32f3xx_ll_dma.h **** #endif
 465:Drivers/STM32F3xx_HAL_Driver/Inc/stm32f3xx_ll_dma.h **** #else
 466:Drivers/STM32F3xx_HAL_Driver/Inc/stm32f3xx_ll_dma.h **** #define __LL_DMA_GET_CHANNEL_INSTANCE(__DMA_INSTANCE__, __CHANNEL__)   \
 467:Drivers/STM32F3xx_HAL_Driver/Inc/stm32f3xx_ll_dma.h **** ((((uint32_t)(__DMA_INSTANCE__) == ((uint32_t)DMA1)) && ((uint32_t)(__CHANNEL__) == ((uint32_t)LL_D
 468:Drivers/STM32F3xx_HAL_Driver/Inc/stm32f3xx_ll_dma.h ****  (((uint32_t)(__DMA_INSTANCE__) == ((uint32_t)DMA1)) && ((uint32_t)(__CHANNEL__) == ((uint32_t)LL_D
 469:Drivers/STM32F3xx_HAL_Driver/Inc/stm32f3xx_ll_dma.h ****  (((uint32_t)(__DMA_INSTANCE__) == ((uint32_t)DMA1)) && ((uint32_t)(__CHANNEL__) == ((uint32_t)LL_D
 470:Drivers/STM32F3xx_HAL_Driver/Inc/stm32f3xx_ll_dma.h ****  (((uint32_t)(__DMA_INSTANCE__) == ((uint32_t)DMA1)) && ((uint32_t)(__CHANNEL__) == ((uint32_t)LL_D
 471:Drivers/STM32F3xx_HAL_Driver/Inc/stm32f3xx_ll_dma.h ****  (((uint32_t)(__DMA_INSTANCE__) == ((uint32_t)DMA1)) && ((uint32_t)(__CHANNEL__) == ((uint32_t)LL_D
 472:Drivers/STM32F3xx_HAL_Driver/Inc/stm32f3xx_ll_dma.h ****  (((uint32_t)(__DMA_INSTANCE__) == ((uint32_t)DMA1)) && ((uint32_t)(__CHANNEL__) == ((uint32_t)LL_D
 473:Drivers/STM32F3xx_HAL_Driver/Inc/stm32f3xx_ll_dma.h ****  DMA1_Channel7)
 474:Drivers/STM32F3xx_HAL_Driver/Inc/stm32f3xx_ll_dma.h **** #endif
 475:Drivers/STM32F3xx_HAL_Driver/Inc/stm32f3xx_ll_dma.h **** 
 476:Drivers/STM32F3xx_HAL_Driver/Inc/stm32f3xx_ll_dma.h **** /**
 477:Drivers/STM32F3xx_HAL_Driver/Inc/stm32f3xx_ll_dma.h ****   * @}
 478:Drivers/STM32F3xx_HAL_Driver/Inc/stm32f3xx_ll_dma.h ****   */
 479:Drivers/STM32F3xx_HAL_Driver/Inc/stm32f3xx_ll_dma.h **** 
 480:Drivers/STM32F3xx_HAL_Driver/Inc/stm32f3xx_ll_dma.h **** /**
 481:Drivers/STM32F3xx_HAL_Driver/Inc/stm32f3xx_ll_dma.h ****   * @}
 482:Drivers/STM32F3xx_HAL_Driver/Inc/stm32f3xx_ll_dma.h ****   */
 483:Drivers/STM32F3xx_HAL_Driver/Inc/stm32f3xx_ll_dma.h **** 
 484:Drivers/STM32F3xx_HAL_Driver/Inc/stm32f3xx_ll_dma.h **** /* Exported functions --------------------------------------------------------*/
 485:Drivers/STM32F3xx_HAL_Driver/Inc/stm32f3xx_ll_dma.h **** /** @defgroup DMA_LL_Exported_Functions DMA Exported Functions
 486:Drivers/STM32F3xx_HAL_Driver/Inc/stm32f3xx_ll_dma.h ****  * @{
 487:Drivers/STM32F3xx_HAL_Driver/Inc/stm32f3xx_ll_dma.h ****  */
 488:Drivers/STM32F3xx_HAL_Driver/Inc/stm32f3xx_ll_dma.h **** 
 489:Drivers/STM32F3xx_HAL_Driver/Inc/stm32f3xx_ll_dma.h **** /** @defgroup DMA_LL_EF_Configuration Configuration
 490:Drivers/STM32F3xx_HAL_Driver/Inc/stm32f3xx_ll_dma.h ****   * @{
 491:Drivers/STM32F3xx_HAL_Driver/Inc/stm32f3xx_ll_dma.h ****   */
 492:Drivers/STM32F3xx_HAL_Driver/Inc/stm32f3xx_ll_dma.h **** /**
 493:Drivers/STM32F3xx_HAL_Driver/Inc/stm32f3xx_ll_dma.h ****   * @brief  Enable DMA channel.
 494:Drivers/STM32F3xx_HAL_Driver/Inc/stm32f3xx_ll_dma.h ****   * @rmtoll CCR          EN            LL_DMA_EnableChannel
 495:Drivers/STM32F3xx_HAL_Driver/Inc/stm32f3xx_ll_dma.h ****   * @param  DMAx DMAx Instance
 496:Drivers/STM32F3xx_HAL_Driver/Inc/stm32f3xx_ll_dma.h ****   * @param  Channel This parameter can be one of the following values:
 497:Drivers/STM32F3xx_HAL_Driver/Inc/stm32f3xx_ll_dma.h ****   *         @arg @ref LL_DMA_CHANNEL_1
 498:Drivers/STM32F3xx_HAL_Driver/Inc/stm32f3xx_ll_dma.h ****   *         @arg @ref LL_DMA_CHANNEL_2
 499:Drivers/STM32F3xx_HAL_Driver/Inc/stm32f3xx_ll_dma.h ****   *         @arg @ref LL_DMA_CHANNEL_3
 500:Drivers/STM32F3xx_HAL_Driver/Inc/stm32f3xx_ll_dma.h ****   *         @arg @ref LL_DMA_CHANNEL_4
 501:Drivers/STM32F3xx_HAL_Driver/Inc/stm32f3xx_ll_dma.h ****   *         @arg @ref LL_DMA_CHANNEL_5
 502:Drivers/STM32F3xx_HAL_Driver/Inc/stm32f3xx_ll_dma.h ****   *         @arg @ref LL_DMA_CHANNEL_6
 503:Drivers/STM32F3xx_HAL_Driver/Inc/stm32f3xx_ll_dma.h ****   *         @arg @ref LL_DMA_CHANNEL_7
 504:Drivers/STM32F3xx_HAL_Driver/Inc/stm32f3xx_ll_dma.h ****   * @retval None
 505:Drivers/STM32F3xx_HAL_Driver/Inc/stm32f3xx_ll_dma.h ****   */
 506:Drivers/STM32F3xx_HAL_Driver/Inc/stm32f3xx_ll_dma.h **** __STATIC_INLINE void LL_DMA_EnableChannel(DMA_TypeDef *DMAx, uint32_t Channel)
 507:Drivers/STM32F3xx_HAL_Driver/Inc/stm32f3xx_ll_dma.h **** {
 508:Drivers/STM32F3xx_HAL_Driver/Inc/stm32f3xx_ll_dma.h ****   SET_BIT(((DMA_Channel_TypeDef *)((uint32_t)((uint32_t)DMAx + CHANNEL_OFFSET_TAB[Channel - 1U])))-
 509:Drivers/STM32F3xx_HAL_Driver/Inc/stm32f3xx_ll_dma.h **** }
ARM GAS  /tmp/ccMxhqvP.s 			page 24


 510:Drivers/STM32F3xx_HAL_Driver/Inc/stm32f3xx_ll_dma.h **** 
 511:Drivers/STM32F3xx_HAL_Driver/Inc/stm32f3xx_ll_dma.h **** /**
 512:Drivers/STM32F3xx_HAL_Driver/Inc/stm32f3xx_ll_dma.h ****   * @brief  Disable DMA channel.
 513:Drivers/STM32F3xx_HAL_Driver/Inc/stm32f3xx_ll_dma.h ****   * @rmtoll CCR          EN            LL_DMA_DisableChannel
 514:Drivers/STM32F3xx_HAL_Driver/Inc/stm32f3xx_ll_dma.h ****   * @param  DMAx DMAx Instance
 515:Drivers/STM32F3xx_HAL_Driver/Inc/stm32f3xx_ll_dma.h ****   * @param  Channel This parameter can be one of the following values:
 516:Drivers/STM32F3xx_HAL_Driver/Inc/stm32f3xx_ll_dma.h ****   *         @arg @ref LL_DMA_CHANNEL_1
 517:Drivers/STM32F3xx_HAL_Driver/Inc/stm32f3xx_ll_dma.h ****   *         @arg @ref LL_DMA_CHANNEL_2
 518:Drivers/STM32F3xx_HAL_Driver/Inc/stm32f3xx_ll_dma.h ****   *         @arg @ref LL_DMA_CHANNEL_3
 519:Drivers/STM32F3xx_HAL_Driver/Inc/stm32f3xx_ll_dma.h ****   *         @arg @ref LL_DMA_CHANNEL_4
 520:Drivers/STM32F3xx_HAL_Driver/Inc/stm32f3xx_ll_dma.h ****   *         @arg @ref LL_DMA_CHANNEL_5
 521:Drivers/STM32F3xx_HAL_Driver/Inc/stm32f3xx_ll_dma.h ****   *         @arg @ref LL_DMA_CHANNEL_6
 522:Drivers/STM32F3xx_HAL_Driver/Inc/stm32f3xx_ll_dma.h ****   *         @arg @ref LL_DMA_CHANNEL_7
 523:Drivers/STM32F3xx_HAL_Driver/Inc/stm32f3xx_ll_dma.h ****   * @retval None
 524:Drivers/STM32F3xx_HAL_Driver/Inc/stm32f3xx_ll_dma.h ****   */
 525:Drivers/STM32F3xx_HAL_Driver/Inc/stm32f3xx_ll_dma.h **** __STATIC_INLINE void LL_DMA_DisableChannel(DMA_TypeDef *DMAx, uint32_t Channel)
 526:Drivers/STM32F3xx_HAL_Driver/Inc/stm32f3xx_ll_dma.h **** {
 527:Drivers/STM32F3xx_HAL_Driver/Inc/stm32f3xx_ll_dma.h ****   CLEAR_BIT(((DMA_Channel_TypeDef *)((uint32_t)((uint32_t)DMAx + CHANNEL_OFFSET_TAB[Channel - 1U]))
 528:Drivers/STM32F3xx_HAL_Driver/Inc/stm32f3xx_ll_dma.h **** }
 529:Drivers/STM32F3xx_HAL_Driver/Inc/stm32f3xx_ll_dma.h **** 
 530:Drivers/STM32F3xx_HAL_Driver/Inc/stm32f3xx_ll_dma.h **** /**
 531:Drivers/STM32F3xx_HAL_Driver/Inc/stm32f3xx_ll_dma.h ****   * @brief  Check if DMA channel is enabled or disabled.
 532:Drivers/STM32F3xx_HAL_Driver/Inc/stm32f3xx_ll_dma.h ****   * @rmtoll CCR          EN            LL_DMA_IsEnabledChannel
 533:Drivers/STM32F3xx_HAL_Driver/Inc/stm32f3xx_ll_dma.h ****   * @param  DMAx DMAx Instance
 534:Drivers/STM32F3xx_HAL_Driver/Inc/stm32f3xx_ll_dma.h ****   * @param  Channel This parameter can be one of the following values:
 535:Drivers/STM32F3xx_HAL_Driver/Inc/stm32f3xx_ll_dma.h ****   *         @arg @ref LL_DMA_CHANNEL_1
 536:Drivers/STM32F3xx_HAL_Driver/Inc/stm32f3xx_ll_dma.h ****   *         @arg @ref LL_DMA_CHANNEL_2
 537:Drivers/STM32F3xx_HAL_Driver/Inc/stm32f3xx_ll_dma.h ****   *         @arg @ref LL_DMA_CHANNEL_3
 538:Drivers/STM32F3xx_HAL_Driver/Inc/stm32f3xx_ll_dma.h ****   *         @arg @ref LL_DMA_CHANNEL_4
 539:Drivers/STM32F3xx_HAL_Driver/Inc/stm32f3xx_ll_dma.h ****   *         @arg @ref LL_DMA_CHANNEL_5
 540:Drivers/STM32F3xx_HAL_Driver/Inc/stm32f3xx_ll_dma.h ****   *         @arg @ref LL_DMA_CHANNEL_6
 541:Drivers/STM32F3xx_HAL_Driver/Inc/stm32f3xx_ll_dma.h ****   *         @arg @ref LL_DMA_CHANNEL_7
 542:Drivers/STM32F3xx_HAL_Driver/Inc/stm32f3xx_ll_dma.h ****   * @retval State of bit (1 or 0).
 543:Drivers/STM32F3xx_HAL_Driver/Inc/stm32f3xx_ll_dma.h ****   */
 544:Drivers/STM32F3xx_HAL_Driver/Inc/stm32f3xx_ll_dma.h **** __STATIC_INLINE uint32_t LL_DMA_IsEnabledChannel(DMA_TypeDef *DMAx, uint32_t Channel)
 545:Drivers/STM32F3xx_HAL_Driver/Inc/stm32f3xx_ll_dma.h **** {
 546:Drivers/STM32F3xx_HAL_Driver/Inc/stm32f3xx_ll_dma.h ****   return (READ_BIT(((DMA_Channel_TypeDef *)((uint32_t)((uint32_t)DMAx + CHANNEL_OFFSET_TAB[Channel 
 547:Drivers/STM32F3xx_HAL_Driver/Inc/stm32f3xx_ll_dma.h ****                    DMA_CCR_EN) == (DMA_CCR_EN));
 548:Drivers/STM32F3xx_HAL_Driver/Inc/stm32f3xx_ll_dma.h **** }
 549:Drivers/STM32F3xx_HAL_Driver/Inc/stm32f3xx_ll_dma.h **** 
 550:Drivers/STM32F3xx_HAL_Driver/Inc/stm32f3xx_ll_dma.h **** /**
 551:Drivers/STM32F3xx_HAL_Driver/Inc/stm32f3xx_ll_dma.h ****   * @brief  Configure all parameters link to DMA transfer.
 552:Drivers/STM32F3xx_HAL_Driver/Inc/stm32f3xx_ll_dma.h ****   * @rmtoll CCR          DIR           LL_DMA_ConfigTransfer\n
 553:Drivers/STM32F3xx_HAL_Driver/Inc/stm32f3xx_ll_dma.h ****   *         CCR          MEM2MEM       LL_DMA_ConfigTransfer\n
 554:Drivers/STM32F3xx_HAL_Driver/Inc/stm32f3xx_ll_dma.h ****   *         CCR          CIRC          LL_DMA_ConfigTransfer\n
 555:Drivers/STM32F3xx_HAL_Driver/Inc/stm32f3xx_ll_dma.h ****   *         CCR          PINC          LL_DMA_ConfigTransfer\n
 556:Drivers/STM32F3xx_HAL_Driver/Inc/stm32f3xx_ll_dma.h ****   *         CCR          MINC          LL_DMA_ConfigTransfer\n
 557:Drivers/STM32F3xx_HAL_Driver/Inc/stm32f3xx_ll_dma.h ****   *         CCR          PSIZE         LL_DMA_ConfigTransfer\n
 558:Drivers/STM32F3xx_HAL_Driver/Inc/stm32f3xx_ll_dma.h ****   *         CCR          MSIZE         LL_DMA_ConfigTransfer\n
 559:Drivers/STM32F3xx_HAL_Driver/Inc/stm32f3xx_ll_dma.h ****   *         CCR          PL            LL_DMA_ConfigTransfer
 560:Drivers/STM32F3xx_HAL_Driver/Inc/stm32f3xx_ll_dma.h ****   * @param  DMAx DMAx Instance
 561:Drivers/STM32F3xx_HAL_Driver/Inc/stm32f3xx_ll_dma.h ****   * @param  Channel This parameter can be one of the following values:
 562:Drivers/STM32F3xx_HAL_Driver/Inc/stm32f3xx_ll_dma.h ****   *         @arg @ref LL_DMA_CHANNEL_1
 563:Drivers/STM32F3xx_HAL_Driver/Inc/stm32f3xx_ll_dma.h ****   *         @arg @ref LL_DMA_CHANNEL_2
 564:Drivers/STM32F3xx_HAL_Driver/Inc/stm32f3xx_ll_dma.h ****   *         @arg @ref LL_DMA_CHANNEL_3
 565:Drivers/STM32F3xx_HAL_Driver/Inc/stm32f3xx_ll_dma.h ****   *         @arg @ref LL_DMA_CHANNEL_4
 566:Drivers/STM32F3xx_HAL_Driver/Inc/stm32f3xx_ll_dma.h ****   *         @arg @ref LL_DMA_CHANNEL_5
ARM GAS  /tmp/ccMxhqvP.s 			page 25


 567:Drivers/STM32F3xx_HAL_Driver/Inc/stm32f3xx_ll_dma.h ****   *         @arg @ref LL_DMA_CHANNEL_6
 568:Drivers/STM32F3xx_HAL_Driver/Inc/stm32f3xx_ll_dma.h ****   *         @arg @ref LL_DMA_CHANNEL_7
 569:Drivers/STM32F3xx_HAL_Driver/Inc/stm32f3xx_ll_dma.h ****   * @param  Configuration This parameter must be a combination of all the following values:
 570:Drivers/STM32F3xx_HAL_Driver/Inc/stm32f3xx_ll_dma.h ****   *         @arg @ref LL_DMA_DIRECTION_PERIPH_TO_MEMORY or @ref LL_DMA_DIRECTION_MEMORY_TO_PERIPH o
 571:Drivers/STM32F3xx_HAL_Driver/Inc/stm32f3xx_ll_dma.h ****   *         @arg @ref LL_DMA_MODE_NORMAL or @ref LL_DMA_MODE_CIRCULAR
 572:Drivers/STM32F3xx_HAL_Driver/Inc/stm32f3xx_ll_dma.h ****   *         @arg @ref LL_DMA_PERIPH_INCREMENT or @ref LL_DMA_PERIPH_NOINCREMENT
 573:Drivers/STM32F3xx_HAL_Driver/Inc/stm32f3xx_ll_dma.h ****   *         @arg @ref LL_DMA_MEMORY_INCREMENT or @ref LL_DMA_MEMORY_NOINCREMENT
 574:Drivers/STM32F3xx_HAL_Driver/Inc/stm32f3xx_ll_dma.h ****   *         @arg @ref LL_DMA_PDATAALIGN_BYTE or @ref LL_DMA_PDATAALIGN_HALFWORD or @ref LL_DMA_PDAT
 575:Drivers/STM32F3xx_HAL_Driver/Inc/stm32f3xx_ll_dma.h ****   *         @arg @ref LL_DMA_MDATAALIGN_BYTE or @ref LL_DMA_MDATAALIGN_HALFWORD or @ref LL_DMA_MDAT
 576:Drivers/STM32F3xx_HAL_Driver/Inc/stm32f3xx_ll_dma.h ****   *         @arg @ref LL_DMA_PRIORITY_LOW or @ref LL_DMA_PRIORITY_MEDIUM or @ref LL_DMA_PRIORITY_HI
 577:Drivers/STM32F3xx_HAL_Driver/Inc/stm32f3xx_ll_dma.h ****   * @retval None
 578:Drivers/STM32F3xx_HAL_Driver/Inc/stm32f3xx_ll_dma.h ****   */
 579:Drivers/STM32F3xx_HAL_Driver/Inc/stm32f3xx_ll_dma.h **** __STATIC_INLINE void LL_DMA_ConfigTransfer(DMA_TypeDef *DMAx, uint32_t Channel, uint32_t Configurat
 580:Drivers/STM32F3xx_HAL_Driver/Inc/stm32f3xx_ll_dma.h **** {
 581:Drivers/STM32F3xx_HAL_Driver/Inc/stm32f3xx_ll_dma.h ****   MODIFY_REG(((DMA_Channel_TypeDef *)((uint32_t)((uint32_t)DMAx + CHANNEL_OFFSET_TAB[Channel - 1U])
 582:Drivers/STM32F3xx_HAL_Driver/Inc/stm32f3xx_ll_dma.h ****              DMA_CCR_DIR | DMA_CCR_MEM2MEM | DMA_CCR_CIRC | DMA_CCR_PINC | DMA_CCR_MINC | DMA_CCR_P
 583:Drivers/STM32F3xx_HAL_Driver/Inc/stm32f3xx_ll_dma.h ****              Configuration);
 584:Drivers/STM32F3xx_HAL_Driver/Inc/stm32f3xx_ll_dma.h **** }
 585:Drivers/STM32F3xx_HAL_Driver/Inc/stm32f3xx_ll_dma.h **** 
 586:Drivers/STM32F3xx_HAL_Driver/Inc/stm32f3xx_ll_dma.h **** /**
 587:Drivers/STM32F3xx_HAL_Driver/Inc/stm32f3xx_ll_dma.h ****   * @brief  Set Data transfer direction (read from peripheral or from memory).
 588:Drivers/STM32F3xx_HAL_Driver/Inc/stm32f3xx_ll_dma.h ****   * @rmtoll CCR          DIR           LL_DMA_SetDataTransferDirection\n
 589:Drivers/STM32F3xx_HAL_Driver/Inc/stm32f3xx_ll_dma.h ****   *         CCR          MEM2MEM       LL_DMA_SetDataTransferDirection
 590:Drivers/STM32F3xx_HAL_Driver/Inc/stm32f3xx_ll_dma.h ****   * @param  DMAx DMAx Instance
 591:Drivers/STM32F3xx_HAL_Driver/Inc/stm32f3xx_ll_dma.h ****   * @param  Channel This parameter can be one of the following values:
 592:Drivers/STM32F3xx_HAL_Driver/Inc/stm32f3xx_ll_dma.h ****   *         @arg @ref LL_DMA_CHANNEL_1
 593:Drivers/STM32F3xx_HAL_Driver/Inc/stm32f3xx_ll_dma.h ****   *         @arg @ref LL_DMA_CHANNEL_2
 594:Drivers/STM32F3xx_HAL_Driver/Inc/stm32f3xx_ll_dma.h ****   *         @arg @ref LL_DMA_CHANNEL_3
 595:Drivers/STM32F3xx_HAL_Driver/Inc/stm32f3xx_ll_dma.h ****   *         @arg @ref LL_DMA_CHANNEL_4
 596:Drivers/STM32F3xx_HAL_Driver/Inc/stm32f3xx_ll_dma.h ****   *         @arg @ref LL_DMA_CHANNEL_5
 597:Drivers/STM32F3xx_HAL_Driver/Inc/stm32f3xx_ll_dma.h ****   *         @arg @ref LL_DMA_CHANNEL_6
 598:Drivers/STM32F3xx_HAL_Driver/Inc/stm32f3xx_ll_dma.h ****   *         @arg @ref LL_DMA_CHANNEL_7
 599:Drivers/STM32F3xx_HAL_Driver/Inc/stm32f3xx_ll_dma.h ****   * @param  Direction This parameter can be one of the following values:
 600:Drivers/STM32F3xx_HAL_Driver/Inc/stm32f3xx_ll_dma.h ****   *         @arg @ref LL_DMA_DIRECTION_PERIPH_TO_MEMORY
 601:Drivers/STM32F3xx_HAL_Driver/Inc/stm32f3xx_ll_dma.h ****   *         @arg @ref LL_DMA_DIRECTION_MEMORY_TO_PERIPH
 602:Drivers/STM32F3xx_HAL_Driver/Inc/stm32f3xx_ll_dma.h ****   *         @arg @ref LL_DMA_DIRECTION_MEMORY_TO_MEMORY
 603:Drivers/STM32F3xx_HAL_Driver/Inc/stm32f3xx_ll_dma.h ****   * @retval None
 604:Drivers/STM32F3xx_HAL_Driver/Inc/stm32f3xx_ll_dma.h ****   */
 605:Drivers/STM32F3xx_HAL_Driver/Inc/stm32f3xx_ll_dma.h **** __STATIC_INLINE void LL_DMA_SetDataTransferDirection(DMA_TypeDef *DMAx, uint32_t Channel, uint32_t 
 127              		.loc 3 605 22 view .LVU35
 128              	.LBB45:
 606:Drivers/STM32F3xx_HAL_Driver/Inc/stm32f3xx_ll_dma.h **** {
 607:Drivers/STM32F3xx_HAL_Driver/Inc/stm32f3xx_ll_dma.h ****   MODIFY_REG(((DMA_Channel_TypeDef *)((uint32_t)((uint32_t)DMAx + CHANNEL_OFFSET_TAB[Channel - 1U])
 129              		.loc 3 607 3 view .LVU36
 130 003a 264B     		ldr	r3, .L4+8
 131              	.LBE45:
 132              	.LBE44:
 133              	.LBB48:
 134              	.LBB49:
 135              		.file 4 "Drivers/CMSIS/Include/core_cm4.h"
   1:Drivers/CMSIS/Include/core_cm4.h **** /**************************************************************************//**
   2:Drivers/CMSIS/Include/core_cm4.h ****  * @file     core_cm4.h
   3:Drivers/CMSIS/Include/core_cm4.h ****  * @brief    CMSIS Cortex-M4 Core Peripheral Access Layer Header File
   4:Drivers/CMSIS/Include/core_cm4.h ****  * @version  V4.30
   5:Drivers/CMSIS/Include/core_cm4.h ****  * @date     20. October 2015
   6:Drivers/CMSIS/Include/core_cm4.h ****  ******************************************************************************/
   7:Drivers/CMSIS/Include/core_cm4.h **** /* Copyright (c) 2009 - 2015 ARM LIMITED
ARM GAS  /tmp/ccMxhqvP.s 			page 26


   8:Drivers/CMSIS/Include/core_cm4.h **** 
   9:Drivers/CMSIS/Include/core_cm4.h ****    All rights reserved.
  10:Drivers/CMSIS/Include/core_cm4.h ****    Redistribution and use in source and binary forms, with or without
  11:Drivers/CMSIS/Include/core_cm4.h ****    modification, are permitted provided that the following conditions are met:
  12:Drivers/CMSIS/Include/core_cm4.h ****    - Redistributions of source code must retain the above copyright
  13:Drivers/CMSIS/Include/core_cm4.h ****      notice, this list of conditions and the following disclaimer.
  14:Drivers/CMSIS/Include/core_cm4.h ****    - Redistributions in binary form must reproduce the above copyright
  15:Drivers/CMSIS/Include/core_cm4.h ****      notice, this list of conditions and the following disclaimer in the
  16:Drivers/CMSIS/Include/core_cm4.h ****      documentation and/or other materials provided with the distribution.
  17:Drivers/CMSIS/Include/core_cm4.h ****    - Neither the name of ARM nor the names of its contributors may be used
  18:Drivers/CMSIS/Include/core_cm4.h ****      to endorse or promote products derived from this software without
  19:Drivers/CMSIS/Include/core_cm4.h ****      specific prior written permission.
  20:Drivers/CMSIS/Include/core_cm4.h ****    *
  21:Drivers/CMSIS/Include/core_cm4.h ****    THIS SOFTWARE IS PROVIDED BY THE COPYRIGHT HOLDERS AND CONTRIBUTORS "AS IS"
  22:Drivers/CMSIS/Include/core_cm4.h ****    AND ANY EXPRESS OR IMPLIED WARRANTIES, INCLUDING, BUT NOT LIMITED TO, THE
  23:Drivers/CMSIS/Include/core_cm4.h ****    IMPLIED WARRANTIES OF MERCHANTABILITY AND FITNESS FOR A PARTICULAR PURPOSE
  24:Drivers/CMSIS/Include/core_cm4.h ****    ARE DISCLAIMED. IN NO EVENT SHALL COPYRIGHT HOLDERS AND CONTRIBUTORS BE
  25:Drivers/CMSIS/Include/core_cm4.h ****    LIABLE FOR ANY DIRECT, INDIRECT, INCIDENTAL, SPECIAL, EXEMPLARY, OR
  26:Drivers/CMSIS/Include/core_cm4.h ****    CONSEQUENTIAL DAMAGES (INCLUDING, BUT NOT LIMITED TO, PROCUREMENT OF
  27:Drivers/CMSIS/Include/core_cm4.h ****    SUBSTITUTE GOODS OR SERVICES; LOSS OF USE, DATA, OR PROFITS; OR BUSINESS
  28:Drivers/CMSIS/Include/core_cm4.h ****    INTERRUPTION) HOWEVER CAUSED AND ON ANY THEORY OF LIABILITY, WHETHER IN
  29:Drivers/CMSIS/Include/core_cm4.h ****    CONTRACT, STRICT LIABILITY, OR TORT (INCLUDING NEGLIGENCE OR OTHERWISE)
  30:Drivers/CMSIS/Include/core_cm4.h ****    ARISING IN ANY WAY OUT OF THE USE OF THIS SOFTWARE, EVEN IF ADVISED OF THE
  31:Drivers/CMSIS/Include/core_cm4.h ****    POSSIBILITY OF SUCH DAMAGE.
  32:Drivers/CMSIS/Include/core_cm4.h ****    ---------------------------------------------------------------------------*/
  33:Drivers/CMSIS/Include/core_cm4.h **** 
  34:Drivers/CMSIS/Include/core_cm4.h **** 
  35:Drivers/CMSIS/Include/core_cm4.h **** #if   defined ( __ICCARM__ )
  36:Drivers/CMSIS/Include/core_cm4.h ****  #pragma system_include         /* treat file as system include file for MISRA check */
  37:Drivers/CMSIS/Include/core_cm4.h **** #elif defined(__ARMCC_VERSION) && (__ARMCC_VERSION >= 6010050)
  38:Drivers/CMSIS/Include/core_cm4.h ****   #pragma clang system_header   /* treat file as system include file */
  39:Drivers/CMSIS/Include/core_cm4.h **** #endif
  40:Drivers/CMSIS/Include/core_cm4.h **** 
  41:Drivers/CMSIS/Include/core_cm4.h **** #ifndef __CORE_CM4_H_GENERIC
  42:Drivers/CMSIS/Include/core_cm4.h **** #define __CORE_CM4_H_GENERIC
  43:Drivers/CMSIS/Include/core_cm4.h **** 
  44:Drivers/CMSIS/Include/core_cm4.h **** #include <stdint.h>
  45:Drivers/CMSIS/Include/core_cm4.h **** 
  46:Drivers/CMSIS/Include/core_cm4.h **** #ifdef __cplusplus
  47:Drivers/CMSIS/Include/core_cm4.h ****  extern "C" {
  48:Drivers/CMSIS/Include/core_cm4.h **** #endif
  49:Drivers/CMSIS/Include/core_cm4.h **** 
  50:Drivers/CMSIS/Include/core_cm4.h **** /**
  51:Drivers/CMSIS/Include/core_cm4.h ****   \page CMSIS_MISRA_Exceptions  MISRA-C:2004 Compliance Exceptions
  52:Drivers/CMSIS/Include/core_cm4.h ****   CMSIS violates the following MISRA-C:2004 rules:
  53:Drivers/CMSIS/Include/core_cm4.h **** 
  54:Drivers/CMSIS/Include/core_cm4.h ****    \li Required Rule 8.5, object/function definition in header file.<br>
  55:Drivers/CMSIS/Include/core_cm4.h ****      Function definitions in header files are used to allow 'inlining'.
  56:Drivers/CMSIS/Include/core_cm4.h **** 
  57:Drivers/CMSIS/Include/core_cm4.h ****    \li Required Rule 18.4, declaration of union type or object of union type: '{...}'.<br>
  58:Drivers/CMSIS/Include/core_cm4.h ****      Unions are used for effective representation of core registers.
  59:Drivers/CMSIS/Include/core_cm4.h **** 
  60:Drivers/CMSIS/Include/core_cm4.h ****    \li Advisory Rule 19.7, Function-like macro defined.<br>
  61:Drivers/CMSIS/Include/core_cm4.h ****      Function-like macros are used to allow more efficient code.
  62:Drivers/CMSIS/Include/core_cm4.h ****  */
  63:Drivers/CMSIS/Include/core_cm4.h **** 
  64:Drivers/CMSIS/Include/core_cm4.h **** 
ARM GAS  /tmp/ccMxhqvP.s 			page 27


  65:Drivers/CMSIS/Include/core_cm4.h **** /*******************************************************************************
  66:Drivers/CMSIS/Include/core_cm4.h ****  *                 CMSIS definitions
  67:Drivers/CMSIS/Include/core_cm4.h ****  ******************************************************************************/
  68:Drivers/CMSIS/Include/core_cm4.h **** /**
  69:Drivers/CMSIS/Include/core_cm4.h ****   \ingroup Cortex_M4
  70:Drivers/CMSIS/Include/core_cm4.h ****   @{
  71:Drivers/CMSIS/Include/core_cm4.h ****  */
  72:Drivers/CMSIS/Include/core_cm4.h **** 
  73:Drivers/CMSIS/Include/core_cm4.h **** /*  CMSIS CM4 definitions */
  74:Drivers/CMSIS/Include/core_cm4.h **** #define __CM4_CMSIS_VERSION_MAIN  (0x04U)                                      /*!< [31:16] CMSIS H
  75:Drivers/CMSIS/Include/core_cm4.h **** #define __CM4_CMSIS_VERSION_SUB   (0x1EU)                                      /*!< [15:0]  CMSIS H
  76:Drivers/CMSIS/Include/core_cm4.h **** #define __CM4_CMSIS_VERSION       ((__CM4_CMSIS_VERSION_MAIN << 16U) | \
  77:Drivers/CMSIS/Include/core_cm4.h ****                                     __CM4_CMSIS_VERSION_SUB           )        /*!< CMSIS HAL versi
  78:Drivers/CMSIS/Include/core_cm4.h **** 
  79:Drivers/CMSIS/Include/core_cm4.h **** #define __CORTEX_M                (0x04U)                                      /*!< Cortex-M Core *
  80:Drivers/CMSIS/Include/core_cm4.h **** 
  81:Drivers/CMSIS/Include/core_cm4.h **** 
  82:Drivers/CMSIS/Include/core_cm4.h **** #if   defined ( __CC_ARM )
  83:Drivers/CMSIS/Include/core_cm4.h ****   #define __ASM            __asm                                      /*!< asm keyword for ARM Comp
  84:Drivers/CMSIS/Include/core_cm4.h ****   #define __INLINE         __inline                                   /*!< inline keyword for ARM C
  85:Drivers/CMSIS/Include/core_cm4.h ****   #define __STATIC_INLINE  static __inline
  86:Drivers/CMSIS/Include/core_cm4.h **** 
  87:Drivers/CMSIS/Include/core_cm4.h **** #elif defined(__ARMCC_VERSION) && (__ARMCC_VERSION >= 6010050)
  88:Drivers/CMSIS/Include/core_cm4.h ****   #define __ASM            __asm                                      /*!< asm keyword for ARM Comp
  89:Drivers/CMSIS/Include/core_cm4.h ****   #define __INLINE         __inline                                   /*!< inline keyword for ARM C
  90:Drivers/CMSIS/Include/core_cm4.h ****   #define __STATIC_INLINE  static __inline
  91:Drivers/CMSIS/Include/core_cm4.h **** 
  92:Drivers/CMSIS/Include/core_cm4.h **** #elif defined ( __GNUC__ )
  93:Drivers/CMSIS/Include/core_cm4.h ****   #define __ASM            __asm                                      /*!< asm keyword for GNU Comp
  94:Drivers/CMSIS/Include/core_cm4.h ****   #define __INLINE         inline                                     /*!< inline keyword for GNU C
  95:Drivers/CMSIS/Include/core_cm4.h ****   #define __STATIC_INLINE  static inline
  96:Drivers/CMSIS/Include/core_cm4.h **** 
  97:Drivers/CMSIS/Include/core_cm4.h **** #elif defined ( __ICCARM__ )
  98:Drivers/CMSIS/Include/core_cm4.h ****   #define __ASM            __asm                                      /*!< asm keyword for IAR Comp
  99:Drivers/CMSIS/Include/core_cm4.h ****   #define __INLINE         inline                                     /*!< inline keyword for IAR C
 100:Drivers/CMSIS/Include/core_cm4.h ****   #define __STATIC_INLINE  static inline
 101:Drivers/CMSIS/Include/core_cm4.h **** 
 102:Drivers/CMSIS/Include/core_cm4.h **** #elif defined ( __TMS470__ )
 103:Drivers/CMSIS/Include/core_cm4.h ****   #define __ASM            __asm                                      /*!< asm keyword for TI CCS C
 104:Drivers/CMSIS/Include/core_cm4.h ****   #define __STATIC_INLINE  static inline
 105:Drivers/CMSIS/Include/core_cm4.h **** 
 106:Drivers/CMSIS/Include/core_cm4.h **** #elif defined ( __TASKING__ )
 107:Drivers/CMSIS/Include/core_cm4.h ****   #define __ASM            __asm                                      /*!< asm keyword for TASKING 
 108:Drivers/CMSIS/Include/core_cm4.h ****   #define __INLINE         inline                                     /*!< inline keyword for TASKI
 109:Drivers/CMSIS/Include/core_cm4.h ****   #define __STATIC_INLINE  static inline
 110:Drivers/CMSIS/Include/core_cm4.h **** 
 111:Drivers/CMSIS/Include/core_cm4.h **** #elif defined ( __CSMC__ )
 112:Drivers/CMSIS/Include/core_cm4.h ****   #define __packed
 113:Drivers/CMSIS/Include/core_cm4.h ****   #define __ASM            _asm                                      /*!< asm keyword for COSMIC Co
 114:Drivers/CMSIS/Include/core_cm4.h ****   #define __INLINE         inline                                    /*!< inline keyword for COSMIC
 115:Drivers/CMSIS/Include/core_cm4.h ****   #define __STATIC_INLINE  static inline
 116:Drivers/CMSIS/Include/core_cm4.h **** 
 117:Drivers/CMSIS/Include/core_cm4.h **** #else
 118:Drivers/CMSIS/Include/core_cm4.h ****   #error Unknown compiler
 119:Drivers/CMSIS/Include/core_cm4.h **** #endif
 120:Drivers/CMSIS/Include/core_cm4.h **** 
 121:Drivers/CMSIS/Include/core_cm4.h **** /** __FPU_USED indicates whether an FPU is used or not.
ARM GAS  /tmp/ccMxhqvP.s 			page 28


 122:Drivers/CMSIS/Include/core_cm4.h ****     For this, __FPU_PRESENT has to be checked prior to making use of FPU specific registers and fun
 123:Drivers/CMSIS/Include/core_cm4.h **** */
 124:Drivers/CMSIS/Include/core_cm4.h **** #if defined ( __CC_ARM )
 125:Drivers/CMSIS/Include/core_cm4.h ****   #if defined __TARGET_FPU_VFP
 126:Drivers/CMSIS/Include/core_cm4.h ****     #if (__FPU_PRESENT == 1U)
 127:Drivers/CMSIS/Include/core_cm4.h ****       #define __FPU_USED       1U
 128:Drivers/CMSIS/Include/core_cm4.h ****     #else
 129:Drivers/CMSIS/Include/core_cm4.h ****       #error "Compiler generates FPU instructions for a device without an FPU (check __FPU_PRESENT)
 130:Drivers/CMSIS/Include/core_cm4.h ****       #define __FPU_USED       0U
 131:Drivers/CMSIS/Include/core_cm4.h ****     #endif
 132:Drivers/CMSIS/Include/core_cm4.h ****   #else
 133:Drivers/CMSIS/Include/core_cm4.h ****     #define __FPU_USED         0U
 134:Drivers/CMSIS/Include/core_cm4.h ****   #endif
 135:Drivers/CMSIS/Include/core_cm4.h **** 
 136:Drivers/CMSIS/Include/core_cm4.h **** #elif defined(__ARMCC_VERSION) && (__ARMCC_VERSION >= 6010050)
 137:Drivers/CMSIS/Include/core_cm4.h ****   #if defined __ARM_PCS_VFP
 138:Drivers/CMSIS/Include/core_cm4.h ****     #if (__FPU_PRESENT == 1)
 139:Drivers/CMSIS/Include/core_cm4.h ****       #define __FPU_USED       1U
 140:Drivers/CMSIS/Include/core_cm4.h ****     #else
 141:Drivers/CMSIS/Include/core_cm4.h ****       #warning "Compiler generates FPU instructions for a device without an FPU (check __FPU_PRESEN
 142:Drivers/CMSIS/Include/core_cm4.h ****       #define __FPU_USED       0U
 143:Drivers/CMSIS/Include/core_cm4.h ****     #endif
 144:Drivers/CMSIS/Include/core_cm4.h ****   #else
 145:Drivers/CMSIS/Include/core_cm4.h ****     #define __FPU_USED         0U
 146:Drivers/CMSIS/Include/core_cm4.h ****   #endif
 147:Drivers/CMSIS/Include/core_cm4.h **** 
 148:Drivers/CMSIS/Include/core_cm4.h **** #elif defined ( __GNUC__ )
 149:Drivers/CMSIS/Include/core_cm4.h ****   #if defined (__VFP_FP__) && !defined(__SOFTFP__)
 150:Drivers/CMSIS/Include/core_cm4.h ****     #if (__FPU_PRESENT == 1U)
 151:Drivers/CMSIS/Include/core_cm4.h ****       #define __FPU_USED       1U
 152:Drivers/CMSIS/Include/core_cm4.h ****     #else
 153:Drivers/CMSIS/Include/core_cm4.h ****       #error "Compiler generates FPU instructions for a device without an FPU (check __FPU_PRESENT)
 154:Drivers/CMSIS/Include/core_cm4.h ****       #define __FPU_USED       0U
 155:Drivers/CMSIS/Include/core_cm4.h ****     #endif
 156:Drivers/CMSIS/Include/core_cm4.h ****   #else
 157:Drivers/CMSIS/Include/core_cm4.h ****     #define __FPU_USED         0U
 158:Drivers/CMSIS/Include/core_cm4.h ****   #endif
 159:Drivers/CMSIS/Include/core_cm4.h **** 
 160:Drivers/CMSIS/Include/core_cm4.h **** #elif defined ( __ICCARM__ )
 161:Drivers/CMSIS/Include/core_cm4.h ****   #if defined __ARMVFP__
 162:Drivers/CMSIS/Include/core_cm4.h ****     #if (__FPU_PRESENT == 1U)
 163:Drivers/CMSIS/Include/core_cm4.h ****       #define __FPU_USED       1U
 164:Drivers/CMSIS/Include/core_cm4.h ****     #else
 165:Drivers/CMSIS/Include/core_cm4.h ****       #error "Compiler generates FPU instructions for a device without an FPU (check __FPU_PRESENT)
 166:Drivers/CMSIS/Include/core_cm4.h ****       #define __FPU_USED       0U
 167:Drivers/CMSIS/Include/core_cm4.h ****     #endif
 168:Drivers/CMSIS/Include/core_cm4.h ****   #else
 169:Drivers/CMSIS/Include/core_cm4.h ****     #define __FPU_USED         0U
 170:Drivers/CMSIS/Include/core_cm4.h ****   #endif
 171:Drivers/CMSIS/Include/core_cm4.h **** 
 172:Drivers/CMSIS/Include/core_cm4.h **** #elif defined ( __TMS470__ )
 173:Drivers/CMSIS/Include/core_cm4.h ****   #if defined __TI_VFP_SUPPORT__
 174:Drivers/CMSIS/Include/core_cm4.h ****     #if (__FPU_PRESENT == 1U)
 175:Drivers/CMSIS/Include/core_cm4.h ****       #define __FPU_USED       1U
 176:Drivers/CMSIS/Include/core_cm4.h ****     #else
 177:Drivers/CMSIS/Include/core_cm4.h ****       #error "Compiler generates FPU instructions for a device without an FPU (check __FPU_PRESENT)
 178:Drivers/CMSIS/Include/core_cm4.h ****       #define __FPU_USED       0U
ARM GAS  /tmp/ccMxhqvP.s 			page 29


 179:Drivers/CMSIS/Include/core_cm4.h ****     #endif
 180:Drivers/CMSIS/Include/core_cm4.h ****   #else
 181:Drivers/CMSIS/Include/core_cm4.h ****     #define __FPU_USED         0U
 182:Drivers/CMSIS/Include/core_cm4.h ****   #endif
 183:Drivers/CMSIS/Include/core_cm4.h **** 
 184:Drivers/CMSIS/Include/core_cm4.h **** #elif defined ( __TASKING__ )
 185:Drivers/CMSIS/Include/core_cm4.h ****   #if defined __FPU_VFP__
 186:Drivers/CMSIS/Include/core_cm4.h ****     #if (__FPU_PRESENT == 1U)
 187:Drivers/CMSIS/Include/core_cm4.h ****       #define __FPU_USED       1U
 188:Drivers/CMSIS/Include/core_cm4.h ****     #else
 189:Drivers/CMSIS/Include/core_cm4.h ****       #error "Compiler generates FPU instructions for a device without an FPU (check __FPU_PRESENT)
 190:Drivers/CMSIS/Include/core_cm4.h ****       #define __FPU_USED       0U
 191:Drivers/CMSIS/Include/core_cm4.h ****     #endif
 192:Drivers/CMSIS/Include/core_cm4.h ****   #else
 193:Drivers/CMSIS/Include/core_cm4.h ****     #define __FPU_USED         0U
 194:Drivers/CMSIS/Include/core_cm4.h ****   #endif
 195:Drivers/CMSIS/Include/core_cm4.h **** 
 196:Drivers/CMSIS/Include/core_cm4.h **** #elif defined ( __CSMC__ )
 197:Drivers/CMSIS/Include/core_cm4.h ****   #if ( __CSMC__ & 0x400U)
 198:Drivers/CMSIS/Include/core_cm4.h ****     #if (__FPU_PRESENT == 1U)
 199:Drivers/CMSIS/Include/core_cm4.h ****       #define __FPU_USED       1U
 200:Drivers/CMSIS/Include/core_cm4.h ****     #else
 201:Drivers/CMSIS/Include/core_cm4.h ****       #error "Compiler generates FPU instructions for a device without an FPU (check __FPU_PRESENT)
 202:Drivers/CMSIS/Include/core_cm4.h ****       #define __FPU_USED       0U
 203:Drivers/CMSIS/Include/core_cm4.h ****     #endif
 204:Drivers/CMSIS/Include/core_cm4.h ****   #else
 205:Drivers/CMSIS/Include/core_cm4.h ****     #define __FPU_USED         0U
 206:Drivers/CMSIS/Include/core_cm4.h ****   #endif
 207:Drivers/CMSIS/Include/core_cm4.h **** 
 208:Drivers/CMSIS/Include/core_cm4.h **** #endif
 209:Drivers/CMSIS/Include/core_cm4.h **** 
 210:Drivers/CMSIS/Include/core_cm4.h **** #include "core_cmInstr.h"                /* Core Instruction Access */
 211:Drivers/CMSIS/Include/core_cm4.h **** #include "core_cmFunc.h"                 /* Core Function Access */
 212:Drivers/CMSIS/Include/core_cm4.h **** #include "core_cmSimd.h"                 /* Compiler specific SIMD Intrinsics */
 213:Drivers/CMSIS/Include/core_cm4.h **** 
 214:Drivers/CMSIS/Include/core_cm4.h **** #ifdef __cplusplus
 215:Drivers/CMSIS/Include/core_cm4.h **** }
 216:Drivers/CMSIS/Include/core_cm4.h **** #endif
 217:Drivers/CMSIS/Include/core_cm4.h **** 
 218:Drivers/CMSIS/Include/core_cm4.h **** #endif /* __CORE_CM4_H_GENERIC */
 219:Drivers/CMSIS/Include/core_cm4.h **** 
 220:Drivers/CMSIS/Include/core_cm4.h **** #ifndef __CMSIS_GENERIC
 221:Drivers/CMSIS/Include/core_cm4.h **** 
 222:Drivers/CMSIS/Include/core_cm4.h **** #ifndef __CORE_CM4_H_DEPENDANT
 223:Drivers/CMSIS/Include/core_cm4.h **** #define __CORE_CM4_H_DEPENDANT
 224:Drivers/CMSIS/Include/core_cm4.h **** 
 225:Drivers/CMSIS/Include/core_cm4.h **** #ifdef __cplusplus
 226:Drivers/CMSIS/Include/core_cm4.h ****  extern "C" {
 227:Drivers/CMSIS/Include/core_cm4.h **** #endif
 228:Drivers/CMSIS/Include/core_cm4.h **** 
 229:Drivers/CMSIS/Include/core_cm4.h **** /* check device defines and use defaults */
 230:Drivers/CMSIS/Include/core_cm4.h **** #if defined __CHECK_DEVICE_DEFINES
 231:Drivers/CMSIS/Include/core_cm4.h ****   #ifndef __CM4_REV
 232:Drivers/CMSIS/Include/core_cm4.h ****     #define __CM4_REV               0x0000U
 233:Drivers/CMSIS/Include/core_cm4.h ****     #warning "__CM4_REV not defined in device header file; using default!"
 234:Drivers/CMSIS/Include/core_cm4.h ****   #endif
 235:Drivers/CMSIS/Include/core_cm4.h **** 
ARM GAS  /tmp/ccMxhqvP.s 			page 30


 236:Drivers/CMSIS/Include/core_cm4.h ****   #ifndef __FPU_PRESENT
 237:Drivers/CMSIS/Include/core_cm4.h ****     #define __FPU_PRESENT             0U
 238:Drivers/CMSIS/Include/core_cm4.h ****     #warning "__FPU_PRESENT not defined in device header file; using default!"
 239:Drivers/CMSIS/Include/core_cm4.h ****   #endif
 240:Drivers/CMSIS/Include/core_cm4.h **** 
 241:Drivers/CMSIS/Include/core_cm4.h ****   #ifndef __MPU_PRESENT
 242:Drivers/CMSIS/Include/core_cm4.h ****     #define __MPU_PRESENT             0U
 243:Drivers/CMSIS/Include/core_cm4.h ****     #warning "__MPU_PRESENT not defined in device header file; using default!"
 244:Drivers/CMSIS/Include/core_cm4.h ****   #endif
 245:Drivers/CMSIS/Include/core_cm4.h **** 
 246:Drivers/CMSIS/Include/core_cm4.h ****   #ifndef __NVIC_PRIO_BITS
 247:Drivers/CMSIS/Include/core_cm4.h ****     #define __NVIC_PRIO_BITS          4U
 248:Drivers/CMSIS/Include/core_cm4.h ****     #warning "__NVIC_PRIO_BITS not defined in device header file; using default!"
 249:Drivers/CMSIS/Include/core_cm4.h ****   #endif
 250:Drivers/CMSIS/Include/core_cm4.h **** 
 251:Drivers/CMSIS/Include/core_cm4.h ****   #ifndef __Vendor_SysTickConfig
 252:Drivers/CMSIS/Include/core_cm4.h ****     #define __Vendor_SysTickConfig    0U
 253:Drivers/CMSIS/Include/core_cm4.h ****     #warning "__Vendor_SysTickConfig not defined in device header file; using default!"
 254:Drivers/CMSIS/Include/core_cm4.h ****   #endif
 255:Drivers/CMSIS/Include/core_cm4.h **** #endif
 256:Drivers/CMSIS/Include/core_cm4.h **** 
 257:Drivers/CMSIS/Include/core_cm4.h **** /* IO definitions (access restrictions to peripheral registers) */
 258:Drivers/CMSIS/Include/core_cm4.h **** /**
 259:Drivers/CMSIS/Include/core_cm4.h ****     \defgroup CMSIS_glob_defs CMSIS Global Defines
 260:Drivers/CMSIS/Include/core_cm4.h **** 
 261:Drivers/CMSIS/Include/core_cm4.h ****     <strong>IO Type Qualifiers</strong> are used
 262:Drivers/CMSIS/Include/core_cm4.h ****     \li to specify the access to peripheral variables.
 263:Drivers/CMSIS/Include/core_cm4.h ****     \li for automatic generation of peripheral register debug information.
 264:Drivers/CMSIS/Include/core_cm4.h **** */
 265:Drivers/CMSIS/Include/core_cm4.h **** #ifdef __cplusplus
 266:Drivers/CMSIS/Include/core_cm4.h ****   #define   __I     volatile             /*!< Defines 'read only' permissions */
 267:Drivers/CMSIS/Include/core_cm4.h **** #else
 268:Drivers/CMSIS/Include/core_cm4.h ****   #define   __I     volatile const       /*!< Defines 'read only' permissions */
 269:Drivers/CMSIS/Include/core_cm4.h **** #endif
 270:Drivers/CMSIS/Include/core_cm4.h **** #define     __O     volatile             /*!< Defines 'write only' permissions */
 271:Drivers/CMSIS/Include/core_cm4.h **** #define     __IO    volatile             /*!< Defines 'read / write' permissions */
 272:Drivers/CMSIS/Include/core_cm4.h **** 
 273:Drivers/CMSIS/Include/core_cm4.h **** /* following defines should be used for structure members */
 274:Drivers/CMSIS/Include/core_cm4.h **** #define     __IM     volatile const      /*! Defines 'read only' structure member permissions */
 275:Drivers/CMSIS/Include/core_cm4.h **** #define     __OM     volatile            /*! Defines 'write only' structure member permissions */
 276:Drivers/CMSIS/Include/core_cm4.h **** #define     __IOM    volatile            /*! Defines 'read / write' structure member permissions */
 277:Drivers/CMSIS/Include/core_cm4.h **** 
 278:Drivers/CMSIS/Include/core_cm4.h **** /*@} end of group Cortex_M4 */
 279:Drivers/CMSIS/Include/core_cm4.h **** 
 280:Drivers/CMSIS/Include/core_cm4.h **** 
 281:Drivers/CMSIS/Include/core_cm4.h **** 
 282:Drivers/CMSIS/Include/core_cm4.h **** /*******************************************************************************
 283:Drivers/CMSIS/Include/core_cm4.h ****  *                 Register Abstraction
 284:Drivers/CMSIS/Include/core_cm4.h ****   Core Register contain:
 285:Drivers/CMSIS/Include/core_cm4.h ****   - Core Register
 286:Drivers/CMSIS/Include/core_cm4.h ****   - Core NVIC Register
 287:Drivers/CMSIS/Include/core_cm4.h ****   - Core SCB Register
 288:Drivers/CMSIS/Include/core_cm4.h ****   - Core SysTick Register
 289:Drivers/CMSIS/Include/core_cm4.h ****   - Core Debug Register
 290:Drivers/CMSIS/Include/core_cm4.h ****   - Core MPU Register
 291:Drivers/CMSIS/Include/core_cm4.h ****   - Core FPU Register
 292:Drivers/CMSIS/Include/core_cm4.h ****  ******************************************************************************/
ARM GAS  /tmp/ccMxhqvP.s 			page 31


 293:Drivers/CMSIS/Include/core_cm4.h **** /**
 294:Drivers/CMSIS/Include/core_cm4.h ****   \defgroup CMSIS_core_register Defines and Type Definitions
 295:Drivers/CMSIS/Include/core_cm4.h ****   \brief Type definitions and defines for Cortex-M processor based devices.
 296:Drivers/CMSIS/Include/core_cm4.h **** */
 297:Drivers/CMSIS/Include/core_cm4.h **** 
 298:Drivers/CMSIS/Include/core_cm4.h **** /**
 299:Drivers/CMSIS/Include/core_cm4.h ****   \ingroup    CMSIS_core_register
 300:Drivers/CMSIS/Include/core_cm4.h ****   \defgroup   CMSIS_CORE  Status and Control Registers
 301:Drivers/CMSIS/Include/core_cm4.h ****   \brief      Core Register type definitions.
 302:Drivers/CMSIS/Include/core_cm4.h ****   @{
 303:Drivers/CMSIS/Include/core_cm4.h ****  */
 304:Drivers/CMSIS/Include/core_cm4.h **** 
 305:Drivers/CMSIS/Include/core_cm4.h **** /**
 306:Drivers/CMSIS/Include/core_cm4.h ****   \brief  Union type to access the Application Program Status Register (APSR).
 307:Drivers/CMSIS/Include/core_cm4.h ****  */
 308:Drivers/CMSIS/Include/core_cm4.h **** typedef union
 309:Drivers/CMSIS/Include/core_cm4.h **** {
 310:Drivers/CMSIS/Include/core_cm4.h ****   struct
 311:Drivers/CMSIS/Include/core_cm4.h ****   {
 312:Drivers/CMSIS/Include/core_cm4.h ****     uint32_t _reserved0:16;              /*!< bit:  0..15  Reserved */
 313:Drivers/CMSIS/Include/core_cm4.h ****     uint32_t GE:4;                       /*!< bit: 16..19  Greater than or Equal flags */
 314:Drivers/CMSIS/Include/core_cm4.h ****     uint32_t _reserved1:7;               /*!< bit: 20..26  Reserved */
 315:Drivers/CMSIS/Include/core_cm4.h ****     uint32_t Q:1;                        /*!< bit:     27  Saturation condition flag */
 316:Drivers/CMSIS/Include/core_cm4.h ****     uint32_t V:1;                        /*!< bit:     28  Overflow condition code flag */
 317:Drivers/CMSIS/Include/core_cm4.h ****     uint32_t C:1;                        /*!< bit:     29  Carry condition code flag */
 318:Drivers/CMSIS/Include/core_cm4.h ****     uint32_t Z:1;                        /*!< bit:     30  Zero condition code flag */
 319:Drivers/CMSIS/Include/core_cm4.h ****     uint32_t N:1;                        /*!< bit:     31  Negative condition code flag */
 320:Drivers/CMSIS/Include/core_cm4.h ****   } b;                                   /*!< Structure used for bit  access */
 321:Drivers/CMSIS/Include/core_cm4.h ****   uint32_t w;                            /*!< Type      used for word access */
 322:Drivers/CMSIS/Include/core_cm4.h **** } APSR_Type;
 323:Drivers/CMSIS/Include/core_cm4.h **** 
 324:Drivers/CMSIS/Include/core_cm4.h **** /* APSR Register Definitions */
 325:Drivers/CMSIS/Include/core_cm4.h **** #define APSR_N_Pos                         31U                                            /*!< APSR
 326:Drivers/CMSIS/Include/core_cm4.h **** #define APSR_N_Msk                         (1UL << APSR_N_Pos)                            /*!< APSR
 327:Drivers/CMSIS/Include/core_cm4.h **** 
 328:Drivers/CMSIS/Include/core_cm4.h **** #define APSR_Z_Pos                         30U                                            /*!< APSR
 329:Drivers/CMSIS/Include/core_cm4.h **** #define APSR_Z_Msk                         (1UL << APSR_Z_Pos)                            /*!< APSR
 330:Drivers/CMSIS/Include/core_cm4.h **** 
 331:Drivers/CMSIS/Include/core_cm4.h **** #define APSR_C_Pos                         29U                                            /*!< APSR
 332:Drivers/CMSIS/Include/core_cm4.h **** #define APSR_C_Msk                         (1UL << APSR_C_Pos)                            /*!< APSR
 333:Drivers/CMSIS/Include/core_cm4.h **** 
 334:Drivers/CMSIS/Include/core_cm4.h **** #define APSR_V_Pos                         28U                                            /*!< APSR
 335:Drivers/CMSIS/Include/core_cm4.h **** #define APSR_V_Msk                         (1UL << APSR_V_Pos)                            /*!< APSR
 336:Drivers/CMSIS/Include/core_cm4.h **** 
 337:Drivers/CMSIS/Include/core_cm4.h **** #define APSR_Q_Pos                         27U                                            /*!< APSR
 338:Drivers/CMSIS/Include/core_cm4.h **** #define APSR_Q_Msk                         (1UL << APSR_Q_Pos)                            /*!< APSR
 339:Drivers/CMSIS/Include/core_cm4.h **** 
 340:Drivers/CMSIS/Include/core_cm4.h **** #define APSR_GE_Pos                        16U                                            /*!< APSR
 341:Drivers/CMSIS/Include/core_cm4.h **** #define APSR_GE_Msk                        (0xFUL << APSR_GE_Pos)                         /*!< APSR
 342:Drivers/CMSIS/Include/core_cm4.h **** 
 343:Drivers/CMSIS/Include/core_cm4.h **** 
 344:Drivers/CMSIS/Include/core_cm4.h **** /**
 345:Drivers/CMSIS/Include/core_cm4.h ****   \brief  Union type to access the Interrupt Program Status Register (IPSR).
 346:Drivers/CMSIS/Include/core_cm4.h ****  */
 347:Drivers/CMSIS/Include/core_cm4.h **** typedef union
 348:Drivers/CMSIS/Include/core_cm4.h **** {
 349:Drivers/CMSIS/Include/core_cm4.h ****   struct
ARM GAS  /tmp/ccMxhqvP.s 			page 32


 350:Drivers/CMSIS/Include/core_cm4.h ****   {
 351:Drivers/CMSIS/Include/core_cm4.h ****     uint32_t ISR:9;                      /*!< bit:  0.. 8  Exception number */
 352:Drivers/CMSIS/Include/core_cm4.h ****     uint32_t _reserved0:23;              /*!< bit:  9..31  Reserved */
 353:Drivers/CMSIS/Include/core_cm4.h ****   } b;                                   /*!< Structure used for bit  access */
 354:Drivers/CMSIS/Include/core_cm4.h ****   uint32_t w;                            /*!< Type      used for word access */
 355:Drivers/CMSIS/Include/core_cm4.h **** } IPSR_Type;
 356:Drivers/CMSIS/Include/core_cm4.h **** 
 357:Drivers/CMSIS/Include/core_cm4.h **** /* IPSR Register Definitions */
 358:Drivers/CMSIS/Include/core_cm4.h **** #define IPSR_ISR_Pos                        0U                                            /*!< IPSR
 359:Drivers/CMSIS/Include/core_cm4.h **** #define IPSR_ISR_Msk                       (0x1FFUL /*<< IPSR_ISR_Pos*/)                  /*!< IPSR
 360:Drivers/CMSIS/Include/core_cm4.h **** 
 361:Drivers/CMSIS/Include/core_cm4.h **** 
 362:Drivers/CMSIS/Include/core_cm4.h **** /**
 363:Drivers/CMSIS/Include/core_cm4.h ****   \brief  Union type to access the Special-Purpose Program Status Registers (xPSR).
 364:Drivers/CMSIS/Include/core_cm4.h ****  */
 365:Drivers/CMSIS/Include/core_cm4.h **** typedef union
 366:Drivers/CMSIS/Include/core_cm4.h **** {
 367:Drivers/CMSIS/Include/core_cm4.h ****   struct
 368:Drivers/CMSIS/Include/core_cm4.h ****   {
 369:Drivers/CMSIS/Include/core_cm4.h ****     uint32_t ISR:9;                      /*!< bit:  0.. 8  Exception number */
 370:Drivers/CMSIS/Include/core_cm4.h ****     uint32_t _reserved0:7;               /*!< bit:  9..15  Reserved */
 371:Drivers/CMSIS/Include/core_cm4.h ****     uint32_t GE:4;                       /*!< bit: 16..19  Greater than or Equal flags */
 372:Drivers/CMSIS/Include/core_cm4.h ****     uint32_t _reserved1:4;               /*!< bit: 20..23  Reserved */
 373:Drivers/CMSIS/Include/core_cm4.h ****     uint32_t T:1;                        /*!< bit:     24  Thumb bit        (read 0) */
 374:Drivers/CMSIS/Include/core_cm4.h ****     uint32_t IT:2;                       /*!< bit: 25..26  saved IT state   (read 0) */
 375:Drivers/CMSIS/Include/core_cm4.h ****     uint32_t Q:1;                        /*!< bit:     27  Saturation condition flag */
 376:Drivers/CMSIS/Include/core_cm4.h ****     uint32_t V:1;                        /*!< bit:     28  Overflow condition code flag */
 377:Drivers/CMSIS/Include/core_cm4.h ****     uint32_t C:1;                        /*!< bit:     29  Carry condition code flag */
 378:Drivers/CMSIS/Include/core_cm4.h ****     uint32_t Z:1;                        /*!< bit:     30  Zero condition code flag */
 379:Drivers/CMSIS/Include/core_cm4.h ****     uint32_t N:1;                        /*!< bit:     31  Negative condition code flag */
 380:Drivers/CMSIS/Include/core_cm4.h ****   } b;                                   /*!< Structure used for bit  access */
 381:Drivers/CMSIS/Include/core_cm4.h ****   uint32_t w;                            /*!< Type      used for word access */
 382:Drivers/CMSIS/Include/core_cm4.h **** } xPSR_Type;
 383:Drivers/CMSIS/Include/core_cm4.h **** 
 384:Drivers/CMSIS/Include/core_cm4.h **** /* xPSR Register Definitions */
 385:Drivers/CMSIS/Include/core_cm4.h **** #define xPSR_N_Pos                         31U                                            /*!< xPSR
 386:Drivers/CMSIS/Include/core_cm4.h **** #define xPSR_N_Msk                         (1UL << xPSR_N_Pos)                            /*!< xPSR
 387:Drivers/CMSIS/Include/core_cm4.h **** 
 388:Drivers/CMSIS/Include/core_cm4.h **** #define xPSR_Z_Pos                         30U                                            /*!< xPSR
 389:Drivers/CMSIS/Include/core_cm4.h **** #define xPSR_Z_Msk                         (1UL << xPSR_Z_Pos)                            /*!< xPSR
 390:Drivers/CMSIS/Include/core_cm4.h **** 
 391:Drivers/CMSIS/Include/core_cm4.h **** #define xPSR_C_Pos                         29U                                            /*!< xPSR
 392:Drivers/CMSIS/Include/core_cm4.h **** #define xPSR_C_Msk                         (1UL << xPSR_C_Pos)                            /*!< xPSR
 393:Drivers/CMSIS/Include/core_cm4.h **** 
 394:Drivers/CMSIS/Include/core_cm4.h **** #define xPSR_V_Pos                         28U                                            /*!< xPSR
 395:Drivers/CMSIS/Include/core_cm4.h **** #define xPSR_V_Msk                         (1UL << xPSR_V_Pos)                            /*!< xPSR
 396:Drivers/CMSIS/Include/core_cm4.h **** 
 397:Drivers/CMSIS/Include/core_cm4.h **** #define xPSR_Q_Pos                         27U                                            /*!< xPSR
 398:Drivers/CMSIS/Include/core_cm4.h **** #define xPSR_Q_Msk                         (1UL << xPSR_Q_Pos)                            /*!< xPSR
 399:Drivers/CMSIS/Include/core_cm4.h **** 
 400:Drivers/CMSIS/Include/core_cm4.h **** #define xPSR_IT_Pos                        25U                                            /*!< xPSR
 401:Drivers/CMSIS/Include/core_cm4.h **** #define xPSR_IT_Msk                        (3UL << xPSR_IT_Pos)                           /*!< xPSR
 402:Drivers/CMSIS/Include/core_cm4.h **** 
 403:Drivers/CMSIS/Include/core_cm4.h **** #define xPSR_T_Pos                         24U                                            /*!< xPSR
 404:Drivers/CMSIS/Include/core_cm4.h **** #define xPSR_T_Msk                         (1UL << xPSR_T_Pos)                            /*!< xPSR
 405:Drivers/CMSIS/Include/core_cm4.h **** 
 406:Drivers/CMSIS/Include/core_cm4.h **** #define xPSR_GE_Pos                        16U                                            /*!< xPSR
ARM GAS  /tmp/ccMxhqvP.s 			page 33


 407:Drivers/CMSIS/Include/core_cm4.h **** #define xPSR_GE_Msk                        (0xFUL << xPSR_GE_Pos)                         /*!< xPSR
 408:Drivers/CMSIS/Include/core_cm4.h **** 
 409:Drivers/CMSIS/Include/core_cm4.h **** #define xPSR_ISR_Pos                        0U                                            /*!< xPSR
 410:Drivers/CMSIS/Include/core_cm4.h **** #define xPSR_ISR_Msk                       (0x1FFUL /*<< xPSR_ISR_Pos*/)                  /*!< xPSR
 411:Drivers/CMSIS/Include/core_cm4.h **** 
 412:Drivers/CMSIS/Include/core_cm4.h **** 
 413:Drivers/CMSIS/Include/core_cm4.h **** /**
 414:Drivers/CMSIS/Include/core_cm4.h ****   \brief  Union type to access the Control Registers (CONTROL).
 415:Drivers/CMSIS/Include/core_cm4.h ****  */
 416:Drivers/CMSIS/Include/core_cm4.h **** typedef union
 417:Drivers/CMSIS/Include/core_cm4.h **** {
 418:Drivers/CMSIS/Include/core_cm4.h ****   struct
 419:Drivers/CMSIS/Include/core_cm4.h ****   {
 420:Drivers/CMSIS/Include/core_cm4.h ****     uint32_t nPRIV:1;                    /*!< bit:      0  Execution privilege in Thread mode */
 421:Drivers/CMSIS/Include/core_cm4.h ****     uint32_t SPSEL:1;                    /*!< bit:      1  Stack to be used */
 422:Drivers/CMSIS/Include/core_cm4.h ****     uint32_t FPCA:1;                     /*!< bit:      2  FP extension active flag */
 423:Drivers/CMSIS/Include/core_cm4.h ****     uint32_t _reserved0:29;              /*!< bit:  3..31  Reserved */
 424:Drivers/CMSIS/Include/core_cm4.h ****   } b;                                   /*!< Structure used for bit  access */
 425:Drivers/CMSIS/Include/core_cm4.h ****   uint32_t w;                            /*!< Type      used for word access */
 426:Drivers/CMSIS/Include/core_cm4.h **** } CONTROL_Type;
 427:Drivers/CMSIS/Include/core_cm4.h **** 
 428:Drivers/CMSIS/Include/core_cm4.h **** /* CONTROL Register Definitions */
 429:Drivers/CMSIS/Include/core_cm4.h **** #define CONTROL_FPCA_Pos                    2U                                            /*!< CONT
 430:Drivers/CMSIS/Include/core_cm4.h **** #define CONTROL_FPCA_Msk                   (1UL << CONTROL_FPCA_Pos)                      /*!< CONT
 431:Drivers/CMSIS/Include/core_cm4.h **** 
 432:Drivers/CMSIS/Include/core_cm4.h **** #define CONTROL_SPSEL_Pos                   1U                                            /*!< CONT
 433:Drivers/CMSIS/Include/core_cm4.h **** #define CONTROL_SPSEL_Msk                  (1UL << CONTROL_SPSEL_Pos)                     /*!< CONT
 434:Drivers/CMSIS/Include/core_cm4.h **** 
 435:Drivers/CMSIS/Include/core_cm4.h **** #define CONTROL_nPRIV_Pos                   0U                                            /*!< CONT
 436:Drivers/CMSIS/Include/core_cm4.h **** #define CONTROL_nPRIV_Msk                  (1UL /*<< CONTROL_nPRIV_Pos*/)                 /*!< CONT
 437:Drivers/CMSIS/Include/core_cm4.h **** 
 438:Drivers/CMSIS/Include/core_cm4.h **** /*@} end of group CMSIS_CORE */
 439:Drivers/CMSIS/Include/core_cm4.h **** 
 440:Drivers/CMSIS/Include/core_cm4.h **** 
 441:Drivers/CMSIS/Include/core_cm4.h **** /**
 442:Drivers/CMSIS/Include/core_cm4.h ****   \ingroup    CMSIS_core_register
 443:Drivers/CMSIS/Include/core_cm4.h ****   \defgroup   CMSIS_NVIC  Nested Vectored Interrupt Controller (NVIC)
 444:Drivers/CMSIS/Include/core_cm4.h ****   \brief      Type definitions for the NVIC Registers
 445:Drivers/CMSIS/Include/core_cm4.h ****   @{
 446:Drivers/CMSIS/Include/core_cm4.h ****  */
 447:Drivers/CMSIS/Include/core_cm4.h **** 
 448:Drivers/CMSIS/Include/core_cm4.h **** /**
 449:Drivers/CMSIS/Include/core_cm4.h ****   \brief  Structure type to access the Nested Vectored Interrupt Controller (NVIC).
 450:Drivers/CMSIS/Include/core_cm4.h ****  */
 451:Drivers/CMSIS/Include/core_cm4.h **** typedef struct
 452:Drivers/CMSIS/Include/core_cm4.h **** {
 453:Drivers/CMSIS/Include/core_cm4.h ****   __IOM uint32_t ISER[8U];               /*!< Offset: 0x000 (R/W)  Interrupt Set Enable Register */
 454:Drivers/CMSIS/Include/core_cm4.h ****         uint32_t RESERVED0[24U];
 455:Drivers/CMSIS/Include/core_cm4.h ****   __IOM uint32_t ICER[8U];               /*!< Offset: 0x080 (R/W)  Interrupt Clear Enable Register 
 456:Drivers/CMSIS/Include/core_cm4.h ****         uint32_t RSERVED1[24U];
 457:Drivers/CMSIS/Include/core_cm4.h ****   __IOM uint32_t ISPR[8U];               /*!< Offset: 0x100 (R/W)  Interrupt Set Pending Register *
 458:Drivers/CMSIS/Include/core_cm4.h ****         uint32_t RESERVED2[24U];
 459:Drivers/CMSIS/Include/core_cm4.h ****   __IOM uint32_t ICPR[8U];               /*!< Offset: 0x180 (R/W)  Interrupt Clear Pending Register
 460:Drivers/CMSIS/Include/core_cm4.h ****         uint32_t RESERVED3[24U];
 461:Drivers/CMSIS/Include/core_cm4.h ****   __IOM uint32_t IABR[8U];               /*!< Offset: 0x200 (R/W)  Interrupt Active bit Register */
 462:Drivers/CMSIS/Include/core_cm4.h ****         uint32_t RESERVED4[56U];
 463:Drivers/CMSIS/Include/core_cm4.h ****   __IOM uint8_t  IP[240U];               /*!< Offset: 0x300 (R/W)  Interrupt Priority Register (8Bi
ARM GAS  /tmp/ccMxhqvP.s 			page 34


 464:Drivers/CMSIS/Include/core_cm4.h ****         uint32_t RESERVED5[644U];
 465:Drivers/CMSIS/Include/core_cm4.h ****   __OM  uint32_t STIR;                   /*!< Offset: 0xE00 ( /W)  Software Trigger Interrupt Regis
 466:Drivers/CMSIS/Include/core_cm4.h **** }  NVIC_Type;
 467:Drivers/CMSIS/Include/core_cm4.h **** 
 468:Drivers/CMSIS/Include/core_cm4.h **** /* Software Triggered Interrupt Register Definitions */
 469:Drivers/CMSIS/Include/core_cm4.h **** #define NVIC_STIR_INTID_Pos                 0U                                         /*!< STIR: I
 470:Drivers/CMSIS/Include/core_cm4.h **** #define NVIC_STIR_INTID_Msk                (0x1FFUL /*<< NVIC_STIR_INTID_Pos*/)        /*!< STIR: I
 471:Drivers/CMSIS/Include/core_cm4.h **** 
 472:Drivers/CMSIS/Include/core_cm4.h **** /*@} end of group CMSIS_NVIC */
 473:Drivers/CMSIS/Include/core_cm4.h **** 
 474:Drivers/CMSIS/Include/core_cm4.h **** 
 475:Drivers/CMSIS/Include/core_cm4.h **** /**
 476:Drivers/CMSIS/Include/core_cm4.h ****   \ingroup  CMSIS_core_register
 477:Drivers/CMSIS/Include/core_cm4.h ****   \defgroup CMSIS_SCB     System Control Block (SCB)
 478:Drivers/CMSIS/Include/core_cm4.h ****   \brief    Type definitions for the System Control Block Registers
 479:Drivers/CMSIS/Include/core_cm4.h ****   @{
 480:Drivers/CMSIS/Include/core_cm4.h ****  */
 481:Drivers/CMSIS/Include/core_cm4.h **** 
 482:Drivers/CMSIS/Include/core_cm4.h **** /**
 483:Drivers/CMSIS/Include/core_cm4.h ****   \brief  Structure type to access the System Control Block (SCB).
 484:Drivers/CMSIS/Include/core_cm4.h ****  */
 485:Drivers/CMSIS/Include/core_cm4.h **** typedef struct
 486:Drivers/CMSIS/Include/core_cm4.h **** {
 487:Drivers/CMSIS/Include/core_cm4.h ****   __IM  uint32_t CPUID;                  /*!< Offset: 0x000 (R/ )  CPUID Base Register */
 488:Drivers/CMSIS/Include/core_cm4.h ****   __IOM uint32_t ICSR;                   /*!< Offset: 0x004 (R/W)  Interrupt Control and State Regi
 489:Drivers/CMSIS/Include/core_cm4.h ****   __IOM uint32_t VTOR;                   /*!< Offset: 0x008 (R/W)  Vector Table Offset Register */
 490:Drivers/CMSIS/Include/core_cm4.h ****   __IOM uint32_t AIRCR;                  /*!< Offset: 0x00C (R/W)  Application Interrupt and Reset 
 491:Drivers/CMSIS/Include/core_cm4.h ****   __IOM uint32_t SCR;                    /*!< Offset: 0x010 (R/W)  System Control Register */
 492:Drivers/CMSIS/Include/core_cm4.h ****   __IOM uint32_t CCR;                    /*!< Offset: 0x014 (R/W)  Configuration Control Register *
 493:Drivers/CMSIS/Include/core_cm4.h ****   __IOM uint8_t  SHP[12U];               /*!< Offset: 0x018 (R/W)  System Handlers Priority Registe
 494:Drivers/CMSIS/Include/core_cm4.h ****   __IOM uint32_t SHCSR;                  /*!< Offset: 0x024 (R/W)  System Handler Control and State
 495:Drivers/CMSIS/Include/core_cm4.h ****   __IOM uint32_t CFSR;                   /*!< Offset: 0x028 (R/W)  Configurable Fault Status Regist
 496:Drivers/CMSIS/Include/core_cm4.h ****   __IOM uint32_t HFSR;                   /*!< Offset: 0x02C (R/W)  HardFault Status Register */
 497:Drivers/CMSIS/Include/core_cm4.h ****   __IOM uint32_t DFSR;                   /*!< Offset: 0x030 (R/W)  Debug Fault Status Register */
 498:Drivers/CMSIS/Include/core_cm4.h ****   __IOM uint32_t MMFAR;                  /*!< Offset: 0x034 (R/W)  MemManage Fault Address Register
 499:Drivers/CMSIS/Include/core_cm4.h ****   __IOM uint32_t BFAR;                   /*!< Offset: 0x038 (R/W)  BusFault Address Register */
 500:Drivers/CMSIS/Include/core_cm4.h ****   __IOM uint32_t AFSR;                   /*!< Offset: 0x03C (R/W)  Auxiliary Fault Status Register 
 501:Drivers/CMSIS/Include/core_cm4.h ****   __IM  uint32_t PFR[2U];                /*!< Offset: 0x040 (R/ )  Processor Feature Register */
 502:Drivers/CMSIS/Include/core_cm4.h ****   __IM  uint32_t DFR;                    /*!< Offset: 0x048 (R/ )  Debug Feature Register */
 503:Drivers/CMSIS/Include/core_cm4.h ****   __IM  uint32_t ADR;                    /*!< Offset: 0x04C (R/ )  Auxiliary Feature Register */
 504:Drivers/CMSIS/Include/core_cm4.h ****   __IM  uint32_t MMFR[4U];               /*!< Offset: 0x050 (R/ )  Memory Model Feature Register */
 505:Drivers/CMSIS/Include/core_cm4.h ****   __IM  uint32_t ISAR[5U];               /*!< Offset: 0x060 (R/ )  Instruction Set Attributes Regis
 506:Drivers/CMSIS/Include/core_cm4.h ****         uint32_t RESERVED0[5U];
 507:Drivers/CMSIS/Include/core_cm4.h ****   __IOM uint32_t CPACR;                  /*!< Offset: 0x088 (R/W)  Coprocessor Access Control Regis
 508:Drivers/CMSIS/Include/core_cm4.h **** } SCB_Type;
 509:Drivers/CMSIS/Include/core_cm4.h **** 
 510:Drivers/CMSIS/Include/core_cm4.h **** /* SCB CPUID Register Definitions */
 511:Drivers/CMSIS/Include/core_cm4.h **** #define SCB_CPUID_IMPLEMENTER_Pos          24U                                            /*!< SCB 
 512:Drivers/CMSIS/Include/core_cm4.h **** #define SCB_CPUID_IMPLEMENTER_Msk          (0xFFUL << SCB_CPUID_IMPLEMENTER_Pos)          /*!< SCB 
 513:Drivers/CMSIS/Include/core_cm4.h **** 
 514:Drivers/CMSIS/Include/core_cm4.h **** #define SCB_CPUID_VARIANT_Pos              20U                                            /*!< SCB 
 515:Drivers/CMSIS/Include/core_cm4.h **** #define SCB_CPUID_VARIANT_Msk              (0xFUL << SCB_CPUID_VARIANT_Pos)               /*!< SCB 
 516:Drivers/CMSIS/Include/core_cm4.h **** 
 517:Drivers/CMSIS/Include/core_cm4.h **** #define SCB_CPUID_ARCHITECTURE_Pos         16U                                            /*!< SCB 
 518:Drivers/CMSIS/Include/core_cm4.h **** #define SCB_CPUID_ARCHITECTURE_Msk         (0xFUL << SCB_CPUID_ARCHITECTURE_Pos)          /*!< SCB 
 519:Drivers/CMSIS/Include/core_cm4.h **** 
 520:Drivers/CMSIS/Include/core_cm4.h **** #define SCB_CPUID_PARTNO_Pos                4U                                            /*!< SCB 
ARM GAS  /tmp/ccMxhqvP.s 			page 35


 521:Drivers/CMSIS/Include/core_cm4.h **** #define SCB_CPUID_PARTNO_Msk               (0xFFFUL << SCB_CPUID_PARTNO_Pos)              /*!< SCB 
 522:Drivers/CMSIS/Include/core_cm4.h **** 
 523:Drivers/CMSIS/Include/core_cm4.h **** #define SCB_CPUID_REVISION_Pos              0U                                            /*!< SCB 
 524:Drivers/CMSIS/Include/core_cm4.h **** #define SCB_CPUID_REVISION_Msk             (0xFUL /*<< SCB_CPUID_REVISION_Pos*/)          /*!< SCB 
 525:Drivers/CMSIS/Include/core_cm4.h **** 
 526:Drivers/CMSIS/Include/core_cm4.h **** /* SCB Interrupt Control State Register Definitions */
 527:Drivers/CMSIS/Include/core_cm4.h **** #define SCB_ICSR_NMIPENDSET_Pos            31U                                            /*!< SCB 
 528:Drivers/CMSIS/Include/core_cm4.h **** #define SCB_ICSR_NMIPENDSET_Msk            (1UL << SCB_ICSR_NMIPENDSET_Pos)               /*!< SCB 
 529:Drivers/CMSIS/Include/core_cm4.h **** 
 530:Drivers/CMSIS/Include/core_cm4.h **** #define SCB_ICSR_PENDSVSET_Pos             28U                                            /*!< SCB 
 531:Drivers/CMSIS/Include/core_cm4.h **** #define SCB_ICSR_PENDSVSET_Msk             (1UL << SCB_ICSR_PENDSVSET_Pos)                /*!< SCB 
 532:Drivers/CMSIS/Include/core_cm4.h **** 
 533:Drivers/CMSIS/Include/core_cm4.h **** #define SCB_ICSR_PENDSVCLR_Pos             27U                                            /*!< SCB 
 534:Drivers/CMSIS/Include/core_cm4.h **** #define SCB_ICSR_PENDSVCLR_Msk             (1UL << SCB_ICSR_PENDSVCLR_Pos)                /*!< SCB 
 535:Drivers/CMSIS/Include/core_cm4.h **** 
 536:Drivers/CMSIS/Include/core_cm4.h **** #define SCB_ICSR_PENDSTSET_Pos             26U                                            /*!< SCB 
 537:Drivers/CMSIS/Include/core_cm4.h **** #define SCB_ICSR_PENDSTSET_Msk             (1UL << SCB_ICSR_PENDSTSET_Pos)                /*!< SCB 
 538:Drivers/CMSIS/Include/core_cm4.h **** 
 539:Drivers/CMSIS/Include/core_cm4.h **** #define SCB_ICSR_PENDSTCLR_Pos             25U                                            /*!< SCB 
 540:Drivers/CMSIS/Include/core_cm4.h **** #define SCB_ICSR_PENDSTCLR_Msk             (1UL << SCB_ICSR_PENDSTCLR_Pos)                /*!< SCB 
 541:Drivers/CMSIS/Include/core_cm4.h **** 
 542:Drivers/CMSIS/Include/core_cm4.h **** #define SCB_ICSR_ISRPREEMPT_Pos            23U                                            /*!< SCB 
 543:Drivers/CMSIS/Include/core_cm4.h **** #define SCB_ICSR_ISRPREEMPT_Msk            (1UL << SCB_ICSR_ISRPREEMPT_Pos)               /*!< SCB 
 544:Drivers/CMSIS/Include/core_cm4.h **** 
 545:Drivers/CMSIS/Include/core_cm4.h **** #define SCB_ICSR_ISRPENDING_Pos            22U                                            /*!< SCB 
 546:Drivers/CMSIS/Include/core_cm4.h **** #define SCB_ICSR_ISRPENDING_Msk            (1UL << SCB_ICSR_ISRPENDING_Pos)               /*!< SCB 
 547:Drivers/CMSIS/Include/core_cm4.h **** 
 548:Drivers/CMSIS/Include/core_cm4.h **** #define SCB_ICSR_VECTPENDING_Pos           12U                                            /*!< SCB 
 549:Drivers/CMSIS/Include/core_cm4.h **** #define SCB_ICSR_VECTPENDING_Msk           (0x1FFUL << SCB_ICSR_VECTPENDING_Pos)          /*!< SCB 
 550:Drivers/CMSIS/Include/core_cm4.h **** 
 551:Drivers/CMSIS/Include/core_cm4.h **** #define SCB_ICSR_RETTOBASE_Pos             11U                                            /*!< SCB 
 552:Drivers/CMSIS/Include/core_cm4.h **** #define SCB_ICSR_RETTOBASE_Msk             (1UL << SCB_ICSR_RETTOBASE_Pos)                /*!< SCB 
 553:Drivers/CMSIS/Include/core_cm4.h **** 
 554:Drivers/CMSIS/Include/core_cm4.h **** #define SCB_ICSR_VECTACTIVE_Pos             0U                                            /*!< SCB 
 555:Drivers/CMSIS/Include/core_cm4.h **** #define SCB_ICSR_VECTACTIVE_Msk            (0x1FFUL /*<< SCB_ICSR_VECTACTIVE_Pos*/)       /*!< SCB 
 556:Drivers/CMSIS/Include/core_cm4.h **** 
 557:Drivers/CMSIS/Include/core_cm4.h **** /* SCB Vector Table Offset Register Definitions */
 558:Drivers/CMSIS/Include/core_cm4.h **** #define SCB_VTOR_TBLOFF_Pos                 7U                                            /*!< SCB 
 559:Drivers/CMSIS/Include/core_cm4.h **** #define SCB_VTOR_TBLOFF_Msk                (0x1FFFFFFUL << SCB_VTOR_TBLOFF_Pos)           /*!< SCB 
 560:Drivers/CMSIS/Include/core_cm4.h **** 
 561:Drivers/CMSIS/Include/core_cm4.h **** /* SCB Application Interrupt and Reset Control Register Definitions */
 562:Drivers/CMSIS/Include/core_cm4.h **** #define SCB_AIRCR_VECTKEY_Pos              16U                                            /*!< SCB 
 563:Drivers/CMSIS/Include/core_cm4.h **** #define SCB_AIRCR_VECTKEY_Msk              (0xFFFFUL << SCB_AIRCR_VECTKEY_Pos)            /*!< SCB 
 564:Drivers/CMSIS/Include/core_cm4.h **** 
 565:Drivers/CMSIS/Include/core_cm4.h **** #define SCB_AIRCR_VECTKEYSTAT_Pos          16U                                            /*!< SCB 
 566:Drivers/CMSIS/Include/core_cm4.h **** #define SCB_AIRCR_VECTKEYSTAT_Msk          (0xFFFFUL << SCB_AIRCR_VECTKEYSTAT_Pos)        /*!< SCB 
 567:Drivers/CMSIS/Include/core_cm4.h **** 
 568:Drivers/CMSIS/Include/core_cm4.h **** #define SCB_AIRCR_ENDIANESS_Pos            15U                                            /*!< SCB 
 569:Drivers/CMSIS/Include/core_cm4.h **** #define SCB_AIRCR_ENDIANESS_Msk            (1UL << SCB_AIRCR_ENDIANESS_Pos)               /*!< SCB 
 570:Drivers/CMSIS/Include/core_cm4.h **** 
 571:Drivers/CMSIS/Include/core_cm4.h **** #define SCB_AIRCR_PRIGROUP_Pos              8U                                            /*!< SCB 
 572:Drivers/CMSIS/Include/core_cm4.h **** #define SCB_AIRCR_PRIGROUP_Msk             (7UL << SCB_AIRCR_PRIGROUP_Pos)                /*!< SCB 
 573:Drivers/CMSIS/Include/core_cm4.h **** 
 574:Drivers/CMSIS/Include/core_cm4.h **** #define SCB_AIRCR_SYSRESETREQ_Pos           2U                                            /*!< SCB 
 575:Drivers/CMSIS/Include/core_cm4.h **** #define SCB_AIRCR_SYSRESETREQ_Msk          (1UL << SCB_AIRCR_SYSRESETREQ_Pos)             /*!< SCB 
 576:Drivers/CMSIS/Include/core_cm4.h **** 
 577:Drivers/CMSIS/Include/core_cm4.h **** #define SCB_AIRCR_VECTCLRACTIVE_Pos         1U                                            /*!< SCB 
ARM GAS  /tmp/ccMxhqvP.s 			page 36


 578:Drivers/CMSIS/Include/core_cm4.h **** #define SCB_AIRCR_VECTCLRACTIVE_Msk        (1UL << SCB_AIRCR_VECTCLRACTIVE_Pos)           /*!< SCB 
 579:Drivers/CMSIS/Include/core_cm4.h **** 
 580:Drivers/CMSIS/Include/core_cm4.h **** #define SCB_AIRCR_VECTRESET_Pos             0U                                            /*!< SCB 
 581:Drivers/CMSIS/Include/core_cm4.h **** #define SCB_AIRCR_VECTRESET_Msk            (1UL /*<< SCB_AIRCR_VECTRESET_Pos*/)           /*!< SCB 
 582:Drivers/CMSIS/Include/core_cm4.h **** 
 583:Drivers/CMSIS/Include/core_cm4.h **** /* SCB System Control Register Definitions */
 584:Drivers/CMSIS/Include/core_cm4.h **** #define SCB_SCR_SEVONPEND_Pos               4U                                            /*!< SCB 
 585:Drivers/CMSIS/Include/core_cm4.h **** #define SCB_SCR_SEVONPEND_Msk              (1UL << SCB_SCR_SEVONPEND_Pos)                 /*!< SCB 
 586:Drivers/CMSIS/Include/core_cm4.h **** 
 587:Drivers/CMSIS/Include/core_cm4.h **** #define SCB_SCR_SLEEPDEEP_Pos               2U                                            /*!< SCB 
 588:Drivers/CMSIS/Include/core_cm4.h **** #define SCB_SCR_SLEEPDEEP_Msk              (1UL << SCB_SCR_SLEEPDEEP_Pos)                 /*!< SCB 
 589:Drivers/CMSIS/Include/core_cm4.h **** 
 590:Drivers/CMSIS/Include/core_cm4.h **** #define SCB_SCR_SLEEPONEXIT_Pos             1U                                            /*!< SCB 
 591:Drivers/CMSIS/Include/core_cm4.h **** #define SCB_SCR_SLEEPONEXIT_Msk            (1UL << SCB_SCR_SLEEPONEXIT_Pos)               /*!< SCB 
 592:Drivers/CMSIS/Include/core_cm4.h **** 
 593:Drivers/CMSIS/Include/core_cm4.h **** /* SCB Configuration Control Register Definitions */
 594:Drivers/CMSIS/Include/core_cm4.h **** #define SCB_CCR_STKALIGN_Pos                9U                                            /*!< SCB 
 595:Drivers/CMSIS/Include/core_cm4.h **** #define SCB_CCR_STKALIGN_Msk               (1UL << SCB_CCR_STKALIGN_Pos)                  /*!< SCB 
 596:Drivers/CMSIS/Include/core_cm4.h **** 
 597:Drivers/CMSIS/Include/core_cm4.h **** #define SCB_CCR_BFHFNMIGN_Pos               8U                                            /*!< SCB 
 598:Drivers/CMSIS/Include/core_cm4.h **** #define SCB_CCR_BFHFNMIGN_Msk              (1UL << SCB_CCR_BFHFNMIGN_Pos)                 /*!< SCB 
 599:Drivers/CMSIS/Include/core_cm4.h **** 
 600:Drivers/CMSIS/Include/core_cm4.h **** #define SCB_CCR_DIV_0_TRP_Pos               4U                                            /*!< SCB 
 601:Drivers/CMSIS/Include/core_cm4.h **** #define SCB_CCR_DIV_0_TRP_Msk              (1UL << SCB_CCR_DIV_0_TRP_Pos)                 /*!< SCB 
 602:Drivers/CMSIS/Include/core_cm4.h **** 
 603:Drivers/CMSIS/Include/core_cm4.h **** #define SCB_CCR_UNALIGN_TRP_Pos             3U                                            /*!< SCB 
 604:Drivers/CMSIS/Include/core_cm4.h **** #define SCB_CCR_UNALIGN_TRP_Msk            (1UL << SCB_CCR_UNALIGN_TRP_Pos)               /*!< SCB 
 605:Drivers/CMSIS/Include/core_cm4.h **** 
 606:Drivers/CMSIS/Include/core_cm4.h **** #define SCB_CCR_USERSETMPEND_Pos            1U                                            /*!< SCB 
 607:Drivers/CMSIS/Include/core_cm4.h **** #define SCB_CCR_USERSETMPEND_Msk           (1UL << SCB_CCR_USERSETMPEND_Pos)              /*!< SCB 
 608:Drivers/CMSIS/Include/core_cm4.h **** 
 609:Drivers/CMSIS/Include/core_cm4.h **** #define SCB_CCR_NONBASETHRDENA_Pos          0U                                            /*!< SCB 
 610:Drivers/CMSIS/Include/core_cm4.h **** #define SCB_CCR_NONBASETHRDENA_Msk         (1UL /*<< SCB_CCR_NONBASETHRDENA_Pos*/)        /*!< SCB 
 611:Drivers/CMSIS/Include/core_cm4.h **** 
 612:Drivers/CMSIS/Include/core_cm4.h **** /* SCB System Handler Control and State Register Definitions */
 613:Drivers/CMSIS/Include/core_cm4.h **** #define SCB_SHCSR_USGFAULTENA_Pos          18U                                            /*!< SCB 
 614:Drivers/CMSIS/Include/core_cm4.h **** #define SCB_SHCSR_USGFAULTENA_Msk          (1UL << SCB_SHCSR_USGFAULTENA_Pos)             /*!< SCB 
 615:Drivers/CMSIS/Include/core_cm4.h **** 
 616:Drivers/CMSIS/Include/core_cm4.h **** #define SCB_SHCSR_BUSFAULTENA_Pos          17U                                            /*!< SCB 
 617:Drivers/CMSIS/Include/core_cm4.h **** #define SCB_SHCSR_BUSFAULTENA_Msk          (1UL << SCB_SHCSR_BUSFAULTENA_Pos)             /*!< SCB 
 618:Drivers/CMSIS/Include/core_cm4.h **** 
 619:Drivers/CMSIS/Include/core_cm4.h **** #define SCB_SHCSR_MEMFAULTENA_Pos          16U                                            /*!< SCB 
 620:Drivers/CMSIS/Include/core_cm4.h **** #define SCB_SHCSR_MEMFAULTENA_Msk          (1UL << SCB_SHCSR_MEMFAULTENA_Pos)             /*!< SCB 
 621:Drivers/CMSIS/Include/core_cm4.h **** 
 622:Drivers/CMSIS/Include/core_cm4.h **** #define SCB_SHCSR_SVCALLPENDED_Pos         15U                                            /*!< SCB 
 623:Drivers/CMSIS/Include/core_cm4.h **** #define SCB_SHCSR_SVCALLPENDED_Msk         (1UL << SCB_SHCSR_SVCALLPENDED_Pos)            /*!< SCB 
 624:Drivers/CMSIS/Include/core_cm4.h **** 
 625:Drivers/CMSIS/Include/core_cm4.h **** #define SCB_SHCSR_BUSFAULTPENDED_Pos       14U                                            /*!< SCB 
 626:Drivers/CMSIS/Include/core_cm4.h **** #define SCB_SHCSR_BUSFAULTPENDED_Msk       (1UL << SCB_SHCSR_BUSFAULTPENDED_Pos)          /*!< SCB 
 627:Drivers/CMSIS/Include/core_cm4.h **** 
 628:Drivers/CMSIS/Include/core_cm4.h **** #define SCB_SHCSR_MEMFAULTPENDED_Pos       13U                                            /*!< SCB 
 629:Drivers/CMSIS/Include/core_cm4.h **** #define SCB_SHCSR_MEMFAULTPENDED_Msk       (1UL << SCB_SHCSR_MEMFAULTPENDED_Pos)          /*!< SCB 
 630:Drivers/CMSIS/Include/core_cm4.h **** 
 631:Drivers/CMSIS/Include/core_cm4.h **** #define SCB_SHCSR_USGFAULTPENDED_Pos       12U                                            /*!< SCB 
 632:Drivers/CMSIS/Include/core_cm4.h **** #define SCB_SHCSR_USGFAULTPENDED_Msk       (1UL << SCB_SHCSR_USGFAULTPENDED_Pos)          /*!< SCB 
 633:Drivers/CMSIS/Include/core_cm4.h **** 
 634:Drivers/CMSIS/Include/core_cm4.h **** #define SCB_SHCSR_SYSTICKACT_Pos           11U                                            /*!< SCB 
ARM GAS  /tmp/ccMxhqvP.s 			page 37


 635:Drivers/CMSIS/Include/core_cm4.h **** #define SCB_SHCSR_SYSTICKACT_Msk           (1UL << SCB_SHCSR_SYSTICKACT_Pos)              /*!< SCB 
 636:Drivers/CMSIS/Include/core_cm4.h **** 
 637:Drivers/CMSIS/Include/core_cm4.h **** #define SCB_SHCSR_PENDSVACT_Pos            10U                                            /*!< SCB 
 638:Drivers/CMSIS/Include/core_cm4.h **** #define SCB_SHCSR_PENDSVACT_Msk            (1UL << SCB_SHCSR_PENDSVACT_Pos)               /*!< SCB 
 639:Drivers/CMSIS/Include/core_cm4.h **** 
 640:Drivers/CMSIS/Include/core_cm4.h **** #define SCB_SHCSR_MONITORACT_Pos            8U                                            /*!< SCB 
 641:Drivers/CMSIS/Include/core_cm4.h **** #define SCB_SHCSR_MONITORACT_Msk           (1UL << SCB_SHCSR_MONITORACT_Pos)              /*!< SCB 
 642:Drivers/CMSIS/Include/core_cm4.h **** 
 643:Drivers/CMSIS/Include/core_cm4.h **** #define SCB_SHCSR_SVCALLACT_Pos             7U                                            /*!< SCB 
 644:Drivers/CMSIS/Include/core_cm4.h **** #define SCB_SHCSR_SVCALLACT_Msk            (1UL << SCB_SHCSR_SVCALLACT_Pos)               /*!< SCB 
 645:Drivers/CMSIS/Include/core_cm4.h **** 
 646:Drivers/CMSIS/Include/core_cm4.h **** #define SCB_SHCSR_USGFAULTACT_Pos           3U                                            /*!< SCB 
 647:Drivers/CMSIS/Include/core_cm4.h **** #define SCB_SHCSR_USGFAULTACT_Msk          (1UL << SCB_SHCSR_USGFAULTACT_Pos)             /*!< SCB 
 648:Drivers/CMSIS/Include/core_cm4.h **** 
 649:Drivers/CMSIS/Include/core_cm4.h **** #define SCB_SHCSR_BUSFAULTACT_Pos           1U                                            /*!< SCB 
 650:Drivers/CMSIS/Include/core_cm4.h **** #define SCB_SHCSR_BUSFAULTACT_Msk          (1UL << SCB_SHCSR_BUSFAULTACT_Pos)             /*!< SCB 
 651:Drivers/CMSIS/Include/core_cm4.h **** 
 652:Drivers/CMSIS/Include/core_cm4.h **** #define SCB_SHCSR_MEMFAULTACT_Pos           0U                                            /*!< SCB 
 653:Drivers/CMSIS/Include/core_cm4.h **** #define SCB_SHCSR_MEMFAULTACT_Msk          (1UL /*<< SCB_SHCSR_MEMFAULTACT_Pos*/)         /*!< SCB 
 654:Drivers/CMSIS/Include/core_cm4.h **** 
 655:Drivers/CMSIS/Include/core_cm4.h **** /* SCB Configurable Fault Status Register Definitions */
 656:Drivers/CMSIS/Include/core_cm4.h **** #define SCB_CFSR_USGFAULTSR_Pos            16U                                            /*!< SCB 
 657:Drivers/CMSIS/Include/core_cm4.h **** #define SCB_CFSR_USGFAULTSR_Msk            (0xFFFFUL << SCB_CFSR_USGFAULTSR_Pos)          /*!< SCB 
 658:Drivers/CMSIS/Include/core_cm4.h **** 
 659:Drivers/CMSIS/Include/core_cm4.h **** #define SCB_CFSR_BUSFAULTSR_Pos             8U                                            /*!< SCB 
 660:Drivers/CMSIS/Include/core_cm4.h **** #define SCB_CFSR_BUSFAULTSR_Msk            (0xFFUL << SCB_CFSR_BUSFAULTSR_Pos)            /*!< SCB 
 661:Drivers/CMSIS/Include/core_cm4.h **** 
 662:Drivers/CMSIS/Include/core_cm4.h **** #define SCB_CFSR_MEMFAULTSR_Pos             0U                                            /*!< SCB 
 663:Drivers/CMSIS/Include/core_cm4.h **** #define SCB_CFSR_MEMFAULTSR_Msk            (0xFFUL /*<< SCB_CFSR_MEMFAULTSR_Pos*/)        /*!< SCB 
 664:Drivers/CMSIS/Include/core_cm4.h **** 
 665:Drivers/CMSIS/Include/core_cm4.h **** /* SCB Hard Fault Status Register Definitions */
 666:Drivers/CMSIS/Include/core_cm4.h **** #define SCB_HFSR_DEBUGEVT_Pos              31U                                            /*!< SCB 
 667:Drivers/CMSIS/Include/core_cm4.h **** #define SCB_HFSR_DEBUGEVT_Msk              (1UL << SCB_HFSR_DEBUGEVT_Pos)                 /*!< SCB 
 668:Drivers/CMSIS/Include/core_cm4.h **** 
 669:Drivers/CMSIS/Include/core_cm4.h **** #define SCB_HFSR_FORCED_Pos                30U                                            /*!< SCB 
 670:Drivers/CMSIS/Include/core_cm4.h **** #define SCB_HFSR_FORCED_Msk                (1UL << SCB_HFSR_FORCED_Pos)                   /*!< SCB 
 671:Drivers/CMSIS/Include/core_cm4.h **** 
 672:Drivers/CMSIS/Include/core_cm4.h **** #define SCB_HFSR_VECTTBL_Pos                1U                                            /*!< SCB 
 673:Drivers/CMSIS/Include/core_cm4.h **** #define SCB_HFSR_VECTTBL_Msk               (1UL << SCB_HFSR_VECTTBL_Pos)                  /*!< SCB 
 674:Drivers/CMSIS/Include/core_cm4.h **** 
 675:Drivers/CMSIS/Include/core_cm4.h **** /* SCB Debug Fault Status Register Definitions */
 676:Drivers/CMSIS/Include/core_cm4.h **** #define SCB_DFSR_EXTERNAL_Pos               4U                                            /*!< SCB 
 677:Drivers/CMSIS/Include/core_cm4.h **** #define SCB_DFSR_EXTERNAL_Msk              (1UL << SCB_DFSR_EXTERNAL_Pos)                 /*!< SCB 
 678:Drivers/CMSIS/Include/core_cm4.h **** 
 679:Drivers/CMSIS/Include/core_cm4.h **** #define SCB_DFSR_VCATCH_Pos                 3U                                            /*!< SCB 
 680:Drivers/CMSIS/Include/core_cm4.h **** #define SCB_DFSR_VCATCH_Msk                (1UL << SCB_DFSR_VCATCH_Pos)                   /*!< SCB 
 681:Drivers/CMSIS/Include/core_cm4.h **** 
 682:Drivers/CMSIS/Include/core_cm4.h **** #define SCB_DFSR_DWTTRAP_Pos                2U                                            /*!< SCB 
 683:Drivers/CMSIS/Include/core_cm4.h **** #define SCB_DFSR_DWTTRAP_Msk               (1UL << SCB_DFSR_DWTTRAP_Pos)                  /*!< SCB 
 684:Drivers/CMSIS/Include/core_cm4.h **** 
 685:Drivers/CMSIS/Include/core_cm4.h **** #define SCB_DFSR_BKPT_Pos                   1U                                            /*!< SCB 
 686:Drivers/CMSIS/Include/core_cm4.h **** #define SCB_DFSR_BKPT_Msk                  (1UL << SCB_DFSR_BKPT_Pos)                     /*!< SCB 
 687:Drivers/CMSIS/Include/core_cm4.h **** 
 688:Drivers/CMSIS/Include/core_cm4.h **** #define SCB_DFSR_HALTED_Pos                 0U                                            /*!< SCB 
 689:Drivers/CMSIS/Include/core_cm4.h **** #define SCB_DFSR_HALTED_Msk                (1UL /*<< SCB_DFSR_HALTED_Pos*/)               /*!< SCB 
 690:Drivers/CMSIS/Include/core_cm4.h **** 
 691:Drivers/CMSIS/Include/core_cm4.h **** /*@} end of group CMSIS_SCB */
ARM GAS  /tmp/ccMxhqvP.s 			page 38


 692:Drivers/CMSIS/Include/core_cm4.h **** 
 693:Drivers/CMSIS/Include/core_cm4.h **** 
 694:Drivers/CMSIS/Include/core_cm4.h **** /**
 695:Drivers/CMSIS/Include/core_cm4.h ****   \ingroup  CMSIS_core_register
 696:Drivers/CMSIS/Include/core_cm4.h ****   \defgroup CMSIS_SCnSCB System Controls not in SCB (SCnSCB)
 697:Drivers/CMSIS/Include/core_cm4.h ****   \brief    Type definitions for the System Control and ID Register not in the SCB
 698:Drivers/CMSIS/Include/core_cm4.h ****   @{
 699:Drivers/CMSIS/Include/core_cm4.h ****  */
 700:Drivers/CMSIS/Include/core_cm4.h **** 
 701:Drivers/CMSIS/Include/core_cm4.h **** /**
 702:Drivers/CMSIS/Include/core_cm4.h ****   \brief  Structure type to access the System Control and ID Register not in the SCB.
 703:Drivers/CMSIS/Include/core_cm4.h ****  */
 704:Drivers/CMSIS/Include/core_cm4.h **** typedef struct
 705:Drivers/CMSIS/Include/core_cm4.h **** {
 706:Drivers/CMSIS/Include/core_cm4.h ****         uint32_t RESERVED0[1U];
 707:Drivers/CMSIS/Include/core_cm4.h ****   __IM  uint32_t ICTR;                   /*!< Offset: 0x004 (R/ )  Interrupt Controller Type Regist
 708:Drivers/CMSIS/Include/core_cm4.h ****   __IOM uint32_t ACTLR;                  /*!< Offset: 0x008 (R/W)  Auxiliary Control Register */
 709:Drivers/CMSIS/Include/core_cm4.h **** } SCnSCB_Type;
 710:Drivers/CMSIS/Include/core_cm4.h **** 
 711:Drivers/CMSIS/Include/core_cm4.h **** /* Interrupt Controller Type Register Definitions */
 712:Drivers/CMSIS/Include/core_cm4.h **** #define SCnSCB_ICTR_INTLINESNUM_Pos         0U                                         /*!< ICTR: I
 713:Drivers/CMSIS/Include/core_cm4.h **** #define SCnSCB_ICTR_INTLINESNUM_Msk        (0xFUL /*<< SCnSCB_ICTR_INTLINESNUM_Pos*/)  /*!< ICTR: I
 714:Drivers/CMSIS/Include/core_cm4.h **** 
 715:Drivers/CMSIS/Include/core_cm4.h **** /* Auxiliary Control Register Definitions */
 716:Drivers/CMSIS/Include/core_cm4.h **** #define SCnSCB_ACTLR_DISOOFP_Pos            9U                                         /*!< ACTLR: 
 717:Drivers/CMSIS/Include/core_cm4.h **** #define SCnSCB_ACTLR_DISOOFP_Msk           (1UL << SCnSCB_ACTLR_DISOOFP_Pos)           /*!< ACTLR: 
 718:Drivers/CMSIS/Include/core_cm4.h **** 
 719:Drivers/CMSIS/Include/core_cm4.h **** #define SCnSCB_ACTLR_DISFPCA_Pos            8U                                         /*!< ACTLR: 
 720:Drivers/CMSIS/Include/core_cm4.h **** #define SCnSCB_ACTLR_DISFPCA_Msk           (1UL << SCnSCB_ACTLR_DISFPCA_Pos)           /*!< ACTLR: 
 721:Drivers/CMSIS/Include/core_cm4.h **** 
 722:Drivers/CMSIS/Include/core_cm4.h **** #define SCnSCB_ACTLR_DISFOLD_Pos            2U                                         /*!< ACTLR: 
 723:Drivers/CMSIS/Include/core_cm4.h **** #define SCnSCB_ACTLR_DISFOLD_Msk           (1UL << SCnSCB_ACTLR_DISFOLD_Pos)           /*!< ACTLR: 
 724:Drivers/CMSIS/Include/core_cm4.h **** 
 725:Drivers/CMSIS/Include/core_cm4.h **** #define SCnSCB_ACTLR_DISDEFWBUF_Pos         1U                                         /*!< ACTLR: 
 726:Drivers/CMSIS/Include/core_cm4.h **** #define SCnSCB_ACTLR_DISDEFWBUF_Msk        (1UL << SCnSCB_ACTLR_DISDEFWBUF_Pos)        /*!< ACTLR: 
 727:Drivers/CMSIS/Include/core_cm4.h **** 
 728:Drivers/CMSIS/Include/core_cm4.h **** #define SCnSCB_ACTLR_DISMCYCINT_Pos         0U                                         /*!< ACTLR: 
 729:Drivers/CMSIS/Include/core_cm4.h **** #define SCnSCB_ACTLR_DISMCYCINT_Msk        (1UL /*<< SCnSCB_ACTLR_DISMCYCINT_Pos*/)    /*!< ACTLR: 
 730:Drivers/CMSIS/Include/core_cm4.h **** 
 731:Drivers/CMSIS/Include/core_cm4.h **** /*@} end of group CMSIS_SCnotSCB */
 732:Drivers/CMSIS/Include/core_cm4.h **** 
 733:Drivers/CMSIS/Include/core_cm4.h **** 
 734:Drivers/CMSIS/Include/core_cm4.h **** /**
 735:Drivers/CMSIS/Include/core_cm4.h ****   \ingroup  CMSIS_core_register
 736:Drivers/CMSIS/Include/core_cm4.h ****   \defgroup CMSIS_SysTick     System Tick Timer (SysTick)
 737:Drivers/CMSIS/Include/core_cm4.h ****   \brief    Type definitions for the System Timer Registers.
 738:Drivers/CMSIS/Include/core_cm4.h ****   @{
 739:Drivers/CMSIS/Include/core_cm4.h ****  */
 740:Drivers/CMSIS/Include/core_cm4.h **** 
 741:Drivers/CMSIS/Include/core_cm4.h **** /**
 742:Drivers/CMSIS/Include/core_cm4.h ****   \brief  Structure type to access the System Timer (SysTick).
 743:Drivers/CMSIS/Include/core_cm4.h ****  */
 744:Drivers/CMSIS/Include/core_cm4.h **** typedef struct
 745:Drivers/CMSIS/Include/core_cm4.h **** {
 746:Drivers/CMSIS/Include/core_cm4.h ****   __IOM uint32_t CTRL;                   /*!< Offset: 0x000 (R/W)  SysTick Control and Status Regis
 747:Drivers/CMSIS/Include/core_cm4.h ****   __IOM uint32_t LOAD;                   /*!< Offset: 0x004 (R/W)  SysTick Reload Value Register */
 748:Drivers/CMSIS/Include/core_cm4.h ****   __IOM uint32_t VAL;                    /*!< Offset: 0x008 (R/W)  SysTick Current Value Register *
ARM GAS  /tmp/ccMxhqvP.s 			page 39


 749:Drivers/CMSIS/Include/core_cm4.h ****   __IM  uint32_t CALIB;                  /*!< Offset: 0x00C (R/ )  SysTick Calibration Register */
 750:Drivers/CMSIS/Include/core_cm4.h **** } SysTick_Type;
 751:Drivers/CMSIS/Include/core_cm4.h **** 
 752:Drivers/CMSIS/Include/core_cm4.h **** /* SysTick Control / Status Register Definitions */
 753:Drivers/CMSIS/Include/core_cm4.h **** #define SysTick_CTRL_COUNTFLAG_Pos         16U                                            /*!< SysT
 754:Drivers/CMSIS/Include/core_cm4.h **** #define SysTick_CTRL_COUNTFLAG_Msk         (1UL << SysTick_CTRL_COUNTFLAG_Pos)            /*!< SysT
 755:Drivers/CMSIS/Include/core_cm4.h **** 
 756:Drivers/CMSIS/Include/core_cm4.h **** #define SysTick_CTRL_CLKSOURCE_Pos          2U                                            /*!< SysT
 757:Drivers/CMSIS/Include/core_cm4.h **** #define SysTick_CTRL_CLKSOURCE_Msk         (1UL << SysTick_CTRL_CLKSOURCE_Pos)            /*!< SysT
 758:Drivers/CMSIS/Include/core_cm4.h **** 
 759:Drivers/CMSIS/Include/core_cm4.h **** #define SysTick_CTRL_TICKINT_Pos            1U                                            /*!< SysT
 760:Drivers/CMSIS/Include/core_cm4.h **** #define SysTick_CTRL_TICKINT_Msk           (1UL << SysTick_CTRL_TICKINT_Pos)              /*!< SysT
 761:Drivers/CMSIS/Include/core_cm4.h **** 
 762:Drivers/CMSIS/Include/core_cm4.h **** #define SysTick_CTRL_ENABLE_Pos             0U                                            /*!< SysT
 763:Drivers/CMSIS/Include/core_cm4.h **** #define SysTick_CTRL_ENABLE_Msk            (1UL /*<< SysTick_CTRL_ENABLE_Pos*/)           /*!< SysT
 764:Drivers/CMSIS/Include/core_cm4.h **** 
 765:Drivers/CMSIS/Include/core_cm4.h **** /* SysTick Reload Register Definitions */
 766:Drivers/CMSIS/Include/core_cm4.h **** #define SysTick_LOAD_RELOAD_Pos             0U                                            /*!< SysT
 767:Drivers/CMSIS/Include/core_cm4.h **** #define SysTick_LOAD_RELOAD_Msk            (0xFFFFFFUL /*<< SysTick_LOAD_RELOAD_Pos*/)    /*!< SysT
 768:Drivers/CMSIS/Include/core_cm4.h **** 
 769:Drivers/CMSIS/Include/core_cm4.h **** /* SysTick Current Register Definitions */
 770:Drivers/CMSIS/Include/core_cm4.h **** #define SysTick_VAL_CURRENT_Pos             0U                                            /*!< SysT
 771:Drivers/CMSIS/Include/core_cm4.h **** #define SysTick_VAL_CURRENT_Msk            (0xFFFFFFUL /*<< SysTick_VAL_CURRENT_Pos*/)    /*!< SysT
 772:Drivers/CMSIS/Include/core_cm4.h **** 
 773:Drivers/CMSIS/Include/core_cm4.h **** /* SysTick Calibration Register Definitions */
 774:Drivers/CMSIS/Include/core_cm4.h **** #define SysTick_CALIB_NOREF_Pos            31U                                            /*!< SysT
 775:Drivers/CMSIS/Include/core_cm4.h **** #define SysTick_CALIB_NOREF_Msk            (1UL << SysTick_CALIB_NOREF_Pos)               /*!< SysT
 776:Drivers/CMSIS/Include/core_cm4.h **** 
 777:Drivers/CMSIS/Include/core_cm4.h **** #define SysTick_CALIB_SKEW_Pos             30U                                            /*!< SysT
 778:Drivers/CMSIS/Include/core_cm4.h **** #define SysTick_CALIB_SKEW_Msk             (1UL << SysTick_CALIB_SKEW_Pos)                /*!< SysT
 779:Drivers/CMSIS/Include/core_cm4.h **** 
 780:Drivers/CMSIS/Include/core_cm4.h **** #define SysTick_CALIB_TENMS_Pos             0U                                            /*!< SysT
 781:Drivers/CMSIS/Include/core_cm4.h **** #define SysTick_CALIB_TENMS_Msk            (0xFFFFFFUL /*<< SysTick_CALIB_TENMS_Pos*/)    /*!< SysT
 782:Drivers/CMSIS/Include/core_cm4.h **** 
 783:Drivers/CMSIS/Include/core_cm4.h **** /*@} end of group CMSIS_SysTick */
 784:Drivers/CMSIS/Include/core_cm4.h **** 
 785:Drivers/CMSIS/Include/core_cm4.h **** 
 786:Drivers/CMSIS/Include/core_cm4.h **** /**
 787:Drivers/CMSIS/Include/core_cm4.h ****   \ingroup  CMSIS_core_register
 788:Drivers/CMSIS/Include/core_cm4.h ****   \defgroup CMSIS_ITM     Instrumentation Trace Macrocell (ITM)
 789:Drivers/CMSIS/Include/core_cm4.h ****   \brief    Type definitions for the Instrumentation Trace Macrocell (ITM)
 790:Drivers/CMSIS/Include/core_cm4.h ****   @{
 791:Drivers/CMSIS/Include/core_cm4.h ****  */
 792:Drivers/CMSIS/Include/core_cm4.h **** 
 793:Drivers/CMSIS/Include/core_cm4.h **** /**
 794:Drivers/CMSIS/Include/core_cm4.h ****   \brief  Structure type to access the Instrumentation Trace Macrocell Register (ITM).
 795:Drivers/CMSIS/Include/core_cm4.h ****  */
 796:Drivers/CMSIS/Include/core_cm4.h **** typedef struct
 797:Drivers/CMSIS/Include/core_cm4.h **** {
 798:Drivers/CMSIS/Include/core_cm4.h ****   __OM  union
 799:Drivers/CMSIS/Include/core_cm4.h ****   {
 800:Drivers/CMSIS/Include/core_cm4.h ****     __OM  uint8_t    u8;                 /*!< Offset: 0x000 ( /W)  ITM Stimulus Port 8-bit */
 801:Drivers/CMSIS/Include/core_cm4.h ****     __OM  uint16_t   u16;                /*!< Offset: 0x000 ( /W)  ITM Stimulus Port 16-bit */
 802:Drivers/CMSIS/Include/core_cm4.h ****     __OM  uint32_t   u32;                /*!< Offset: 0x000 ( /W)  ITM Stimulus Port 32-bit */
 803:Drivers/CMSIS/Include/core_cm4.h ****   }  PORT [32U];                         /*!< Offset: 0x000 ( /W)  ITM Stimulus Port Registers */
 804:Drivers/CMSIS/Include/core_cm4.h ****         uint32_t RESERVED0[864U];
 805:Drivers/CMSIS/Include/core_cm4.h ****   __IOM uint32_t TER;                    /*!< Offset: 0xE00 (R/W)  ITM Trace Enable Register */
ARM GAS  /tmp/ccMxhqvP.s 			page 40


 806:Drivers/CMSIS/Include/core_cm4.h ****         uint32_t RESERVED1[15U];
 807:Drivers/CMSIS/Include/core_cm4.h ****   __IOM uint32_t TPR;                    /*!< Offset: 0xE40 (R/W)  ITM Trace Privilege Register */
 808:Drivers/CMSIS/Include/core_cm4.h ****         uint32_t RESERVED2[15U];
 809:Drivers/CMSIS/Include/core_cm4.h ****   __IOM uint32_t TCR;                    /*!< Offset: 0xE80 (R/W)  ITM Trace Control Register */
 810:Drivers/CMSIS/Include/core_cm4.h ****         uint32_t RESERVED3[29U];
 811:Drivers/CMSIS/Include/core_cm4.h ****   __OM  uint32_t IWR;                    /*!< Offset: 0xEF8 ( /W)  ITM Integration Write Register *
 812:Drivers/CMSIS/Include/core_cm4.h ****   __IM  uint32_t IRR;                    /*!< Offset: 0xEFC (R/ )  ITM Integration Read Register */
 813:Drivers/CMSIS/Include/core_cm4.h ****   __IOM uint32_t IMCR;                   /*!< Offset: 0xF00 (R/W)  ITM Integration Mode Control Reg
 814:Drivers/CMSIS/Include/core_cm4.h ****         uint32_t RESERVED4[43U];
 815:Drivers/CMSIS/Include/core_cm4.h ****   __OM  uint32_t LAR;                    /*!< Offset: 0xFB0 ( /W)  ITM Lock Access Register */
 816:Drivers/CMSIS/Include/core_cm4.h ****   __IM  uint32_t LSR;                    /*!< Offset: 0xFB4 (R/ )  ITM Lock Status Register */
 817:Drivers/CMSIS/Include/core_cm4.h ****         uint32_t RESERVED5[6U];
 818:Drivers/CMSIS/Include/core_cm4.h ****   __IM  uint32_t PID4;                   /*!< Offset: 0xFD0 (R/ )  ITM Peripheral Identification Re
 819:Drivers/CMSIS/Include/core_cm4.h ****   __IM  uint32_t PID5;                   /*!< Offset: 0xFD4 (R/ )  ITM Peripheral Identification Re
 820:Drivers/CMSIS/Include/core_cm4.h ****   __IM  uint32_t PID6;                   /*!< Offset: 0xFD8 (R/ )  ITM Peripheral Identification Re
 821:Drivers/CMSIS/Include/core_cm4.h ****   __IM  uint32_t PID7;                   /*!< Offset: 0xFDC (R/ )  ITM Peripheral Identification Re
 822:Drivers/CMSIS/Include/core_cm4.h ****   __IM  uint32_t PID0;                   /*!< Offset: 0xFE0 (R/ )  ITM Peripheral Identification Re
 823:Drivers/CMSIS/Include/core_cm4.h ****   __IM  uint32_t PID1;                   /*!< Offset: 0xFE4 (R/ )  ITM Peripheral Identification Re
 824:Drivers/CMSIS/Include/core_cm4.h ****   __IM  uint32_t PID2;                   /*!< Offset: 0xFE8 (R/ )  ITM Peripheral Identification Re
 825:Drivers/CMSIS/Include/core_cm4.h ****   __IM  uint32_t PID3;                   /*!< Offset: 0xFEC (R/ )  ITM Peripheral Identification Re
 826:Drivers/CMSIS/Include/core_cm4.h ****   __IM  uint32_t CID0;                   /*!< Offset: 0xFF0 (R/ )  ITM Component  Identification Re
 827:Drivers/CMSIS/Include/core_cm4.h ****   __IM  uint32_t CID1;                   /*!< Offset: 0xFF4 (R/ )  ITM Component  Identification Re
 828:Drivers/CMSIS/Include/core_cm4.h ****   __IM  uint32_t CID2;                   /*!< Offset: 0xFF8 (R/ )  ITM Component  Identification Re
 829:Drivers/CMSIS/Include/core_cm4.h ****   __IM  uint32_t CID3;                   /*!< Offset: 0xFFC (R/ )  ITM Component  Identification Re
 830:Drivers/CMSIS/Include/core_cm4.h **** } ITM_Type;
 831:Drivers/CMSIS/Include/core_cm4.h **** 
 832:Drivers/CMSIS/Include/core_cm4.h **** /* ITM Trace Privilege Register Definitions */
 833:Drivers/CMSIS/Include/core_cm4.h **** #define ITM_TPR_PRIVMASK_Pos                0U                                            /*!< ITM 
 834:Drivers/CMSIS/Include/core_cm4.h **** #define ITM_TPR_PRIVMASK_Msk               (0xFUL /*<< ITM_TPR_PRIVMASK_Pos*/)            /*!< ITM 
 835:Drivers/CMSIS/Include/core_cm4.h **** 
 836:Drivers/CMSIS/Include/core_cm4.h **** /* ITM Trace Control Register Definitions */
 837:Drivers/CMSIS/Include/core_cm4.h **** #define ITM_TCR_BUSY_Pos                   23U                                            /*!< ITM 
 838:Drivers/CMSIS/Include/core_cm4.h **** #define ITM_TCR_BUSY_Msk                   (1UL << ITM_TCR_BUSY_Pos)                      /*!< ITM 
 839:Drivers/CMSIS/Include/core_cm4.h **** 
 840:Drivers/CMSIS/Include/core_cm4.h **** #define ITM_TCR_TraceBusID_Pos             16U                                            /*!< ITM 
 841:Drivers/CMSIS/Include/core_cm4.h **** #define ITM_TCR_TraceBusID_Msk             (0x7FUL << ITM_TCR_TraceBusID_Pos)             /*!< ITM 
 842:Drivers/CMSIS/Include/core_cm4.h **** 
 843:Drivers/CMSIS/Include/core_cm4.h **** #define ITM_TCR_GTSFREQ_Pos                10U                                            /*!< ITM 
 844:Drivers/CMSIS/Include/core_cm4.h **** #define ITM_TCR_GTSFREQ_Msk                (3UL << ITM_TCR_GTSFREQ_Pos)                   /*!< ITM 
 845:Drivers/CMSIS/Include/core_cm4.h **** 
 846:Drivers/CMSIS/Include/core_cm4.h **** #define ITM_TCR_TSPrescale_Pos              8U                                            /*!< ITM 
 847:Drivers/CMSIS/Include/core_cm4.h **** #define ITM_TCR_TSPrescale_Msk             (3UL << ITM_TCR_TSPrescale_Pos)                /*!< ITM 
 848:Drivers/CMSIS/Include/core_cm4.h **** 
 849:Drivers/CMSIS/Include/core_cm4.h **** #define ITM_TCR_SWOENA_Pos                  4U                                            /*!< ITM 
 850:Drivers/CMSIS/Include/core_cm4.h **** #define ITM_TCR_SWOENA_Msk                 (1UL << ITM_TCR_SWOENA_Pos)                    /*!< ITM 
 851:Drivers/CMSIS/Include/core_cm4.h **** 
 852:Drivers/CMSIS/Include/core_cm4.h **** #define ITM_TCR_DWTENA_Pos                  3U                                            /*!< ITM 
 853:Drivers/CMSIS/Include/core_cm4.h **** #define ITM_TCR_DWTENA_Msk                 (1UL << ITM_TCR_DWTENA_Pos)                    /*!< ITM 
 854:Drivers/CMSIS/Include/core_cm4.h **** 
 855:Drivers/CMSIS/Include/core_cm4.h **** #define ITM_TCR_SYNCENA_Pos                 2U                                            /*!< ITM 
 856:Drivers/CMSIS/Include/core_cm4.h **** #define ITM_TCR_SYNCENA_Msk                (1UL << ITM_TCR_SYNCENA_Pos)                   /*!< ITM 
 857:Drivers/CMSIS/Include/core_cm4.h **** 
 858:Drivers/CMSIS/Include/core_cm4.h **** #define ITM_TCR_TSENA_Pos                   1U                                            /*!< ITM 
 859:Drivers/CMSIS/Include/core_cm4.h **** #define ITM_TCR_TSENA_Msk                  (1UL << ITM_TCR_TSENA_Pos)                     /*!< ITM 
 860:Drivers/CMSIS/Include/core_cm4.h **** 
 861:Drivers/CMSIS/Include/core_cm4.h **** #define ITM_TCR_ITMENA_Pos                  0U                                            /*!< ITM 
 862:Drivers/CMSIS/Include/core_cm4.h **** #define ITM_TCR_ITMENA_Msk                 (1UL /*<< ITM_TCR_ITMENA_Pos*/)                /*!< ITM 
ARM GAS  /tmp/ccMxhqvP.s 			page 41


 863:Drivers/CMSIS/Include/core_cm4.h **** 
 864:Drivers/CMSIS/Include/core_cm4.h **** /* ITM Integration Write Register Definitions */
 865:Drivers/CMSIS/Include/core_cm4.h **** #define ITM_IWR_ATVALIDM_Pos                0U                                            /*!< ITM 
 866:Drivers/CMSIS/Include/core_cm4.h **** #define ITM_IWR_ATVALIDM_Msk               (1UL /*<< ITM_IWR_ATVALIDM_Pos*/)              /*!< ITM 
 867:Drivers/CMSIS/Include/core_cm4.h **** 
 868:Drivers/CMSIS/Include/core_cm4.h **** /* ITM Integration Read Register Definitions */
 869:Drivers/CMSIS/Include/core_cm4.h **** #define ITM_IRR_ATREADYM_Pos                0U                                            /*!< ITM 
 870:Drivers/CMSIS/Include/core_cm4.h **** #define ITM_IRR_ATREADYM_Msk               (1UL /*<< ITM_IRR_ATREADYM_Pos*/)              /*!< ITM 
 871:Drivers/CMSIS/Include/core_cm4.h **** 
 872:Drivers/CMSIS/Include/core_cm4.h **** /* ITM Integration Mode Control Register Definitions */
 873:Drivers/CMSIS/Include/core_cm4.h **** #define ITM_IMCR_INTEGRATION_Pos            0U                                            /*!< ITM 
 874:Drivers/CMSIS/Include/core_cm4.h **** #define ITM_IMCR_INTEGRATION_Msk           (1UL /*<< ITM_IMCR_INTEGRATION_Pos*/)          /*!< ITM 
 875:Drivers/CMSIS/Include/core_cm4.h **** 
 876:Drivers/CMSIS/Include/core_cm4.h **** /* ITM Lock Status Register Definitions */
 877:Drivers/CMSIS/Include/core_cm4.h **** #define ITM_LSR_ByteAcc_Pos                 2U                                            /*!< ITM 
 878:Drivers/CMSIS/Include/core_cm4.h **** #define ITM_LSR_ByteAcc_Msk                (1UL << ITM_LSR_ByteAcc_Pos)                   /*!< ITM 
 879:Drivers/CMSIS/Include/core_cm4.h **** 
 880:Drivers/CMSIS/Include/core_cm4.h **** #define ITM_LSR_Access_Pos                  1U                                            /*!< ITM 
 881:Drivers/CMSIS/Include/core_cm4.h **** #define ITM_LSR_Access_Msk                 (1UL << ITM_LSR_Access_Pos)                    /*!< ITM 
 882:Drivers/CMSIS/Include/core_cm4.h **** 
 883:Drivers/CMSIS/Include/core_cm4.h **** #define ITM_LSR_Present_Pos                 0U                                            /*!< ITM 
 884:Drivers/CMSIS/Include/core_cm4.h **** #define ITM_LSR_Present_Msk                (1UL /*<< ITM_LSR_Present_Pos*/)               /*!< ITM 
 885:Drivers/CMSIS/Include/core_cm4.h **** 
 886:Drivers/CMSIS/Include/core_cm4.h **** /*@}*/ /* end of group CMSIS_ITM */
 887:Drivers/CMSIS/Include/core_cm4.h **** 
 888:Drivers/CMSIS/Include/core_cm4.h **** 
 889:Drivers/CMSIS/Include/core_cm4.h **** /**
 890:Drivers/CMSIS/Include/core_cm4.h ****   \ingroup  CMSIS_core_register
 891:Drivers/CMSIS/Include/core_cm4.h ****   \defgroup CMSIS_DWT     Data Watchpoint and Trace (DWT)
 892:Drivers/CMSIS/Include/core_cm4.h ****   \brief    Type definitions for the Data Watchpoint and Trace (DWT)
 893:Drivers/CMSIS/Include/core_cm4.h ****   @{
 894:Drivers/CMSIS/Include/core_cm4.h ****  */
 895:Drivers/CMSIS/Include/core_cm4.h **** 
 896:Drivers/CMSIS/Include/core_cm4.h **** /**
 897:Drivers/CMSIS/Include/core_cm4.h ****   \brief  Structure type to access the Data Watchpoint and Trace Register (DWT).
 898:Drivers/CMSIS/Include/core_cm4.h ****  */
 899:Drivers/CMSIS/Include/core_cm4.h **** typedef struct
 900:Drivers/CMSIS/Include/core_cm4.h **** {
 901:Drivers/CMSIS/Include/core_cm4.h ****   __IOM uint32_t CTRL;                   /*!< Offset: 0x000 (R/W)  Control Register */
 902:Drivers/CMSIS/Include/core_cm4.h ****   __IOM uint32_t CYCCNT;                 /*!< Offset: 0x004 (R/W)  Cycle Count Register */
 903:Drivers/CMSIS/Include/core_cm4.h ****   __IOM uint32_t CPICNT;                 /*!< Offset: 0x008 (R/W)  CPI Count Register */
 904:Drivers/CMSIS/Include/core_cm4.h ****   __IOM uint32_t EXCCNT;                 /*!< Offset: 0x00C (R/W)  Exception Overhead Count Registe
 905:Drivers/CMSIS/Include/core_cm4.h ****   __IOM uint32_t SLEEPCNT;               /*!< Offset: 0x010 (R/W)  Sleep Count Register */
 906:Drivers/CMSIS/Include/core_cm4.h ****   __IOM uint32_t LSUCNT;                 /*!< Offset: 0x014 (R/W)  LSU Count Register */
 907:Drivers/CMSIS/Include/core_cm4.h ****   __IOM uint32_t FOLDCNT;                /*!< Offset: 0x018 (R/W)  Folded-instruction Count Registe
 908:Drivers/CMSIS/Include/core_cm4.h ****   __IM  uint32_t PCSR;                   /*!< Offset: 0x01C (R/ )  Program Counter Sample Register 
 909:Drivers/CMSIS/Include/core_cm4.h ****   __IOM uint32_t COMP0;                  /*!< Offset: 0x020 (R/W)  Comparator Register 0 */
 910:Drivers/CMSIS/Include/core_cm4.h ****   __IOM uint32_t MASK0;                  /*!< Offset: 0x024 (R/W)  Mask Register 0 */
 911:Drivers/CMSIS/Include/core_cm4.h ****   __IOM uint32_t FUNCTION0;              /*!< Offset: 0x028 (R/W)  Function Register 0 */
 912:Drivers/CMSIS/Include/core_cm4.h ****         uint32_t RESERVED0[1U];
 913:Drivers/CMSIS/Include/core_cm4.h ****   __IOM uint32_t COMP1;                  /*!< Offset: 0x030 (R/W)  Comparator Register 1 */
 914:Drivers/CMSIS/Include/core_cm4.h ****   __IOM uint32_t MASK1;                  /*!< Offset: 0x034 (R/W)  Mask Register 1 */
 915:Drivers/CMSIS/Include/core_cm4.h ****   __IOM uint32_t FUNCTION1;              /*!< Offset: 0x038 (R/W)  Function Register 1 */
 916:Drivers/CMSIS/Include/core_cm4.h ****         uint32_t RESERVED1[1U];
 917:Drivers/CMSIS/Include/core_cm4.h ****   __IOM uint32_t COMP2;                  /*!< Offset: 0x040 (R/W)  Comparator Register 2 */
 918:Drivers/CMSIS/Include/core_cm4.h ****   __IOM uint32_t MASK2;                  /*!< Offset: 0x044 (R/W)  Mask Register 2 */
 919:Drivers/CMSIS/Include/core_cm4.h ****   __IOM uint32_t FUNCTION2;              /*!< Offset: 0x048 (R/W)  Function Register 2 */
ARM GAS  /tmp/ccMxhqvP.s 			page 42


 920:Drivers/CMSIS/Include/core_cm4.h ****         uint32_t RESERVED2[1U];
 921:Drivers/CMSIS/Include/core_cm4.h ****   __IOM uint32_t COMP3;                  /*!< Offset: 0x050 (R/W)  Comparator Register 3 */
 922:Drivers/CMSIS/Include/core_cm4.h ****   __IOM uint32_t MASK3;                  /*!< Offset: 0x054 (R/W)  Mask Register 3 */
 923:Drivers/CMSIS/Include/core_cm4.h ****   __IOM uint32_t FUNCTION3;              /*!< Offset: 0x058 (R/W)  Function Register 3 */
 924:Drivers/CMSIS/Include/core_cm4.h **** } DWT_Type;
 925:Drivers/CMSIS/Include/core_cm4.h **** 
 926:Drivers/CMSIS/Include/core_cm4.h **** /* DWT Control Register Definitions */
 927:Drivers/CMSIS/Include/core_cm4.h **** #define DWT_CTRL_NUMCOMP_Pos               28U                                         /*!< DWT CTR
 928:Drivers/CMSIS/Include/core_cm4.h **** #define DWT_CTRL_NUMCOMP_Msk               (0xFUL << DWT_CTRL_NUMCOMP_Pos)             /*!< DWT CTR
 929:Drivers/CMSIS/Include/core_cm4.h **** 
 930:Drivers/CMSIS/Include/core_cm4.h **** #define DWT_CTRL_NOTRCPKT_Pos              27U                                         /*!< DWT CTR
 931:Drivers/CMSIS/Include/core_cm4.h **** #define DWT_CTRL_NOTRCPKT_Msk              (0x1UL << DWT_CTRL_NOTRCPKT_Pos)            /*!< DWT CTR
 932:Drivers/CMSIS/Include/core_cm4.h **** 
 933:Drivers/CMSIS/Include/core_cm4.h **** #define DWT_CTRL_NOEXTTRIG_Pos             26U                                         /*!< DWT CTR
 934:Drivers/CMSIS/Include/core_cm4.h **** #define DWT_CTRL_NOEXTTRIG_Msk             (0x1UL << DWT_CTRL_NOEXTTRIG_Pos)           /*!< DWT CTR
 935:Drivers/CMSIS/Include/core_cm4.h **** 
 936:Drivers/CMSIS/Include/core_cm4.h **** #define DWT_CTRL_NOCYCCNT_Pos              25U                                         /*!< DWT CTR
 937:Drivers/CMSIS/Include/core_cm4.h **** #define DWT_CTRL_NOCYCCNT_Msk              (0x1UL << DWT_CTRL_NOCYCCNT_Pos)            /*!< DWT CTR
 938:Drivers/CMSIS/Include/core_cm4.h **** 
 939:Drivers/CMSIS/Include/core_cm4.h **** #define DWT_CTRL_NOPRFCNT_Pos              24U                                         /*!< DWT CTR
 940:Drivers/CMSIS/Include/core_cm4.h **** #define DWT_CTRL_NOPRFCNT_Msk              (0x1UL << DWT_CTRL_NOPRFCNT_Pos)            /*!< DWT CTR
 941:Drivers/CMSIS/Include/core_cm4.h **** 
 942:Drivers/CMSIS/Include/core_cm4.h **** #define DWT_CTRL_CYCEVTENA_Pos             22U                                         /*!< DWT CTR
 943:Drivers/CMSIS/Include/core_cm4.h **** #define DWT_CTRL_CYCEVTENA_Msk             (0x1UL << DWT_CTRL_CYCEVTENA_Pos)           /*!< DWT CTR
 944:Drivers/CMSIS/Include/core_cm4.h **** 
 945:Drivers/CMSIS/Include/core_cm4.h **** #define DWT_CTRL_FOLDEVTENA_Pos            21U                                         /*!< DWT CTR
 946:Drivers/CMSIS/Include/core_cm4.h **** #define DWT_CTRL_FOLDEVTENA_Msk            (0x1UL << DWT_CTRL_FOLDEVTENA_Pos)          /*!< DWT CTR
 947:Drivers/CMSIS/Include/core_cm4.h **** 
 948:Drivers/CMSIS/Include/core_cm4.h **** #define DWT_CTRL_LSUEVTENA_Pos             20U                                         /*!< DWT CTR
 949:Drivers/CMSIS/Include/core_cm4.h **** #define DWT_CTRL_LSUEVTENA_Msk             (0x1UL << DWT_CTRL_LSUEVTENA_Pos)           /*!< DWT CTR
 950:Drivers/CMSIS/Include/core_cm4.h **** 
 951:Drivers/CMSIS/Include/core_cm4.h **** #define DWT_CTRL_SLEEPEVTENA_Pos           19U                                         /*!< DWT CTR
 952:Drivers/CMSIS/Include/core_cm4.h **** #define DWT_CTRL_SLEEPEVTENA_Msk           (0x1UL << DWT_CTRL_SLEEPEVTENA_Pos)         /*!< DWT CTR
 953:Drivers/CMSIS/Include/core_cm4.h **** 
 954:Drivers/CMSIS/Include/core_cm4.h **** #define DWT_CTRL_EXCEVTENA_Pos             18U                                         /*!< DWT CTR
 955:Drivers/CMSIS/Include/core_cm4.h **** #define DWT_CTRL_EXCEVTENA_Msk             (0x1UL << DWT_CTRL_EXCEVTENA_Pos)           /*!< DWT CTR
 956:Drivers/CMSIS/Include/core_cm4.h **** 
 957:Drivers/CMSIS/Include/core_cm4.h **** #define DWT_CTRL_CPIEVTENA_Pos             17U                                         /*!< DWT CTR
 958:Drivers/CMSIS/Include/core_cm4.h **** #define DWT_CTRL_CPIEVTENA_Msk             (0x1UL << DWT_CTRL_CPIEVTENA_Pos)           /*!< DWT CTR
 959:Drivers/CMSIS/Include/core_cm4.h **** 
 960:Drivers/CMSIS/Include/core_cm4.h **** #define DWT_CTRL_EXCTRCENA_Pos             16U                                         /*!< DWT CTR
 961:Drivers/CMSIS/Include/core_cm4.h **** #define DWT_CTRL_EXCTRCENA_Msk             (0x1UL << DWT_CTRL_EXCTRCENA_Pos)           /*!< DWT CTR
 962:Drivers/CMSIS/Include/core_cm4.h **** 
 963:Drivers/CMSIS/Include/core_cm4.h **** #define DWT_CTRL_PCSAMPLENA_Pos            12U                                         /*!< DWT CTR
 964:Drivers/CMSIS/Include/core_cm4.h **** #define DWT_CTRL_PCSAMPLENA_Msk            (0x1UL << DWT_CTRL_PCSAMPLENA_Pos)          /*!< DWT CTR
 965:Drivers/CMSIS/Include/core_cm4.h **** 
 966:Drivers/CMSIS/Include/core_cm4.h **** #define DWT_CTRL_SYNCTAP_Pos               10U                                         /*!< DWT CTR
 967:Drivers/CMSIS/Include/core_cm4.h **** #define DWT_CTRL_SYNCTAP_Msk               (0x3UL << DWT_CTRL_SYNCTAP_Pos)             /*!< DWT CTR
 968:Drivers/CMSIS/Include/core_cm4.h **** 
 969:Drivers/CMSIS/Include/core_cm4.h **** #define DWT_CTRL_CYCTAP_Pos                 9U                                         /*!< DWT CTR
 970:Drivers/CMSIS/Include/core_cm4.h **** #define DWT_CTRL_CYCTAP_Msk                (0x1UL << DWT_CTRL_CYCTAP_Pos)              /*!< DWT CTR
 971:Drivers/CMSIS/Include/core_cm4.h **** 
 972:Drivers/CMSIS/Include/core_cm4.h **** #define DWT_CTRL_POSTINIT_Pos               5U                                         /*!< DWT CTR
 973:Drivers/CMSIS/Include/core_cm4.h **** #define DWT_CTRL_POSTINIT_Msk              (0xFUL << DWT_CTRL_POSTINIT_Pos)            /*!< DWT CTR
 974:Drivers/CMSIS/Include/core_cm4.h **** 
 975:Drivers/CMSIS/Include/core_cm4.h **** #define DWT_CTRL_POSTPRESET_Pos             1U                                         /*!< DWT CTR
 976:Drivers/CMSIS/Include/core_cm4.h **** #define DWT_CTRL_POSTPRESET_Msk            (0xFUL << DWT_CTRL_POSTPRESET_Pos)          /*!< DWT CTR
ARM GAS  /tmp/ccMxhqvP.s 			page 43


 977:Drivers/CMSIS/Include/core_cm4.h **** 
 978:Drivers/CMSIS/Include/core_cm4.h **** #define DWT_CTRL_CYCCNTENA_Pos              0U                                         /*!< DWT CTR
 979:Drivers/CMSIS/Include/core_cm4.h **** #define DWT_CTRL_CYCCNTENA_Msk             (0x1UL /*<< DWT_CTRL_CYCCNTENA_Pos*/)       /*!< DWT CTR
 980:Drivers/CMSIS/Include/core_cm4.h **** 
 981:Drivers/CMSIS/Include/core_cm4.h **** /* DWT CPI Count Register Definitions */
 982:Drivers/CMSIS/Include/core_cm4.h **** #define DWT_CPICNT_CPICNT_Pos               0U                                         /*!< DWT CPI
 983:Drivers/CMSIS/Include/core_cm4.h **** #define DWT_CPICNT_CPICNT_Msk              (0xFFUL /*<< DWT_CPICNT_CPICNT_Pos*/)       /*!< DWT CPI
 984:Drivers/CMSIS/Include/core_cm4.h **** 
 985:Drivers/CMSIS/Include/core_cm4.h **** /* DWT Exception Overhead Count Register Definitions */
 986:Drivers/CMSIS/Include/core_cm4.h **** #define DWT_EXCCNT_EXCCNT_Pos               0U                                         /*!< DWT EXC
 987:Drivers/CMSIS/Include/core_cm4.h **** #define DWT_EXCCNT_EXCCNT_Msk              (0xFFUL /*<< DWT_EXCCNT_EXCCNT_Pos*/)       /*!< DWT EXC
 988:Drivers/CMSIS/Include/core_cm4.h **** 
 989:Drivers/CMSIS/Include/core_cm4.h **** /* DWT Sleep Count Register Definitions */
 990:Drivers/CMSIS/Include/core_cm4.h **** #define DWT_SLEEPCNT_SLEEPCNT_Pos           0U                                         /*!< DWT SLE
 991:Drivers/CMSIS/Include/core_cm4.h **** #define DWT_SLEEPCNT_SLEEPCNT_Msk          (0xFFUL /*<< DWT_SLEEPCNT_SLEEPCNT_Pos*/)   /*!< DWT SLE
 992:Drivers/CMSIS/Include/core_cm4.h **** 
 993:Drivers/CMSIS/Include/core_cm4.h **** /* DWT LSU Count Register Definitions */
 994:Drivers/CMSIS/Include/core_cm4.h **** #define DWT_LSUCNT_LSUCNT_Pos               0U                                         /*!< DWT LSU
 995:Drivers/CMSIS/Include/core_cm4.h **** #define DWT_LSUCNT_LSUCNT_Msk              (0xFFUL /*<< DWT_LSUCNT_LSUCNT_Pos*/)       /*!< DWT LSU
 996:Drivers/CMSIS/Include/core_cm4.h **** 
 997:Drivers/CMSIS/Include/core_cm4.h **** /* DWT Folded-instruction Count Register Definitions */
 998:Drivers/CMSIS/Include/core_cm4.h **** #define DWT_FOLDCNT_FOLDCNT_Pos             0U                                         /*!< DWT FOL
 999:Drivers/CMSIS/Include/core_cm4.h **** #define DWT_FOLDCNT_FOLDCNT_Msk            (0xFFUL /*<< DWT_FOLDCNT_FOLDCNT_Pos*/)     /*!< DWT FOL
1000:Drivers/CMSIS/Include/core_cm4.h **** 
1001:Drivers/CMSIS/Include/core_cm4.h **** /* DWT Comparator Mask Register Definitions */
1002:Drivers/CMSIS/Include/core_cm4.h **** #define DWT_MASK_MASK_Pos                   0U                                         /*!< DWT MAS
1003:Drivers/CMSIS/Include/core_cm4.h **** #define DWT_MASK_MASK_Msk                  (0x1FUL /*<< DWT_MASK_MASK_Pos*/)           /*!< DWT MAS
1004:Drivers/CMSIS/Include/core_cm4.h **** 
1005:Drivers/CMSIS/Include/core_cm4.h **** /* DWT Comparator Function Register Definitions */
1006:Drivers/CMSIS/Include/core_cm4.h **** #define DWT_FUNCTION_MATCHED_Pos           24U                                         /*!< DWT FUN
1007:Drivers/CMSIS/Include/core_cm4.h **** #define DWT_FUNCTION_MATCHED_Msk           (0x1UL << DWT_FUNCTION_MATCHED_Pos)         /*!< DWT FUN
1008:Drivers/CMSIS/Include/core_cm4.h **** 
1009:Drivers/CMSIS/Include/core_cm4.h **** #define DWT_FUNCTION_DATAVADDR1_Pos        16U                                         /*!< DWT FUN
1010:Drivers/CMSIS/Include/core_cm4.h **** #define DWT_FUNCTION_DATAVADDR1_Msk        (0xFUL << DWT_FUNCTION_DATAVADDR1_Pos)      /*!< DWT FUN
1011:Drivers/CMSIS/Include/core_cm4.h **** 
1012:Drivers/CMSIS/Include/core_cm4.h **** #define DWT_FUNCTION_DATAVADDR0_Pos        12U                                         /*!< DWT FUN
1013:Drivers/CMSIS/Include/core_cm4.h **** #define DWT_FUNCTION_DATAVADDR0_Msk        (0xFUL << DWT_FUNCTION_DATAVADDR0_Pos)      /*!< DWT FUN
1014:Drivers/CMSIS/Include/core_cm4.h **** 
1015:Drivers/CMSIS/Include/core_cm4.h **** #define DWT_FUNCTION_DATAVSIZE_Pos         10U                                         /*!< DWT FUN
1016:Drivers/CMSIS/Include/core_cm4.h **** #define DWT_FUNCTION_DATAVSIZE_Msk         (0x3UL << DWT_FUNCTION_DATAVSIZE_Pos)       /*!< DWT FUN
1017:Drivers/CMSIS/Include/core_cm4.h **** 
1018:Drivers/CMSIS/Include/core_cm4.h **** #define DWT_FUNCTION_LNK1ENA_Pos            9U                                         /*!< DWT FUN
1019:Drivers/CMSIS/Include/core_cm4.h **** #define DWT_FUNCTION_LNK1ENA_Msk           (0x1UL << DWT_FUNCTION_LNK1ENA_Pos)         /*!< DWT FUN
1020:Drivers/CMSIS/Include/core_cm4.h **** 
1021:Drivers/CMSIS/Include/core_cm4.h **** #define DWT_FUNCTION_DATAVMATCH_Pos         8U                                         /*!< DWT FUN
1022:Drivers/CMSIS/Include/core_cm4.h **** #define DWT_FUNCTION_DATAVMATCH_Msk        (0x1UL << DWT_FUNCTION_DATAVMATCH_Pos)      /*!< DWT FUN
1023:Drivers/CMSIS/Include/core_cm4.h **** 
1024:Drivers/CMSIS/Include/core_cm4.h **** #define DWT_FUNCTION_CYCMATCH_Pos           7U                                         /*!< DWT FUN
1025:Drivers/CMSIS/Include/core_cm4.h **** #define DWT_FUNCTION_CYCMATCH_Msk          (0x1UL << DWT_FUNCTION_CYCMATCH_Pos)        /*!< DWT FUN
1026:Drivers/CMSIS/Include/core_cm4.h **** 
1027:Drivers/CMSIS/Include/core_cm4.h **** #define DWT_FUNCTION_EMITRANGE_Pos          5U                                         /*!< DWT FUN
1028:Drivers/CMSIS/Include/core_cm4.h **** #define DWT_FUNCTION_EMITRANGE_Msk         (0x1UL << DWT_FUNCTION_EMITRANGE_Pos)       /*!< DWT FUN
1029:Drivers/CMSIS/Include/core_cm4.h **** 
1030:Drivers/CMSIS/Include/core_cm4.h **** #define DWT_FUNCTION_FUNCTION_Pos           0U                                         /*!< DWT FUN
1031:Drivers/CMSIS/Include/core_cm4.h **** #define DWT_FUNCTION_FUNCTION_Msk          (0xFUL /*<< DWT_FUNCTION_FUNCTION_Pos*/)    /*!< DWT FUN
1032:Drivers/CMSIS/Include/core_cm4.h **** 
1033:Drivers/CMSIS/Include/core_cm4.h **** /*@}*/ /* end of group CMSIS_DWT */
ARM GAS  /tmp/ccMxhqvP.s 			page 44


1034:Drivers/CMSIS/Include/core_cm4.h **** 
1035:Drivers/CMSIS/Include/core_cm4.h **** 
1036:Drivers/CMSIS/Include/core_cm4.h **** /**
1037:Drivers/CMSIS/Include/core_cm4.h ****   \ingroup  CMSIS_core_register
1038:Drivers/CMSIS/Include/core_cm4.h ****   \defgroup CMSIS_TPI     Trace Port Interface (TPI)
1039:Drivers/CMSIS/Include/core_cm4.h ****   \brief    Type definitions for the Trace Port Interface (TPI)
1040:Drivers/CMSIS/Include/core_cm4.h ****   @{
1041:Drivers/CMSIS/Include/core_cm4.h ****  */
1042:Drivers/CMSIS/Include/core_cm4.h **** 
1043:Drivers/CMSIS/Include/core_cm4.h **** /**
1044:Drivers/CMSIS/Include/core_cm4.h ****   \brief  Structure type to access the Trace Port Interface Register (TPI).
1045:Drivers/CMSIS/Include/core_cm4.h ****  */
1046:Drivers/CMSIS/Include/core_cm4.h **** typedef struct
1047:Drivers/CMSIS/Include/core_cm4.h **** {
1048:Drivers/CMSIS/Include/core_cm4.h ****   __IOM uint32_t SSPSR;                  /*!< Offset: 0x000 (R/ )  Supported Parallel Port Size Reg
1049:Drivers/CMSIS/Include/core_cm4.h ****   __IOM uint32_t CSPSR;                  /*!< Offset: 0x004 (R/W)  Current Parallel Port Size Regis
1050:Drivers/CMSIS/Include/core_cm4.h ****         uint32_t RESERVED0[2U];
1051:Drivers/CMSIS/Include/core_cm4.h ****   __IOM uint32_t ACPR;                   /*!< Offset: 0x010 (R/W)  Asynchronous Clock Prescaler Reg
1052:Drivers/CMSIS/Include/core_cm4.h ****         uint32_t RESERVED1[55U];
1053:Drivers/CMSIS/Include/core_cm4.h ****   __IOM uint32_t SPPR;                   /*!< Offset: 0x0F0 (R/W)  Selected Pin Protocol Register *
1054:Drivers/CMSIS/Include/core_cm4.h ****         uint32_t RESERVED2[131U];
1055:Drivers/CMSIS/Include/core_cm4.h ****   __IM  uint32_t FFSR;                   /*!< Offset: 0x300 (R/ )  Formatter and Flush Status Regis
1056:Drivers/CMSIS/Include/core_cm4.h ****   __IOM uint32_t FFCR;                   /*!< Offset: 0x304 (R/W)  Formatter and Flush Control Regi
1057:Drivers/CMSIS/Include/core_cm4.h ****   __IM  uint32_t FSCR;                   /*!< Offset: 0x308 (R/ )  Formatter Synchronization Counte
1058:Drivers/CMSIS/Include/core_cm4.h ****         uint32_t RESERVED3[759U];
1059:Drivers/CMSIS/Include/core_cm4.h ****   __IM  uint32_t TRIGGER;                /*!< Offset: 0xEE8 (R/ )  TRIGGER */
1060:Drivers/CMSIS/Include/core_cm4.h ****   __IM  uint32_t FIFO0;                  /*!< Offset: 0xEEC (R/ )  Integration ETM Data */
1061:Drivers/CMSIS/Include/core_cm4.h ****   __IM  uint32_t ITATBCTR2;              /*!< Offset: 0xEF0 (R/ )  ITATBCTR2 */
1062:Drivers/CMSIS/Include/core_cm4.h ****         uint32_t RESERVED4[1U];
1063:Drivers/CMSIS/Include/core_cm4.h ****   __IM  uint32_t ITATBCTR0;              /*!< Offset: 0xEF8 (R/ )  ITATBCTR0 */
1064:Drivers/CMSIS/Include/core_cm4.h ****   __IM  uint32_t FIFO1;                  /*!< Offset: 0xEFC (R/ )  Integration ITM Data */
1065:Drivers/CMSIS/Include/core_cm4.h ****   __IOM uint32_t ITCTRL;                 /*!< Offset: 0xF00 (R/W)  Integration Mode Control */
1066:Drivers/CMSIS/Include/core_cm4.h ****         uint32_t RESERVED5[39U];
1067:Drivers/CMSIS/Include/core_cm4.h ****   __IOM uint32_t CLAIMSET;               /*!< Offset: 0xFA0 (R/W)  Claim tag set */
1068:Drivers/CMSIS/Include/core_cm4.h ****   __IOM uint32_t CLAIMCLR;               /*!< Offset: 0xFA4 (R/W)  Claim tag clear */
1069:Drivers/CMSIS/Include/core_cm4.h ****         uint32_t RESERVED7[8U];
1070:Drivers/CMSIS/Include/core_cm4.h ****   __IM  uint32_t DEVID;                  /*!< Offset: 0xFC8 (R/ )  TPIU_DEVID */
1071:Drivers/CMSIS/Include/core_cm4.h ****   __IM  uint32_t DEVTYPE;                /*!< Offset: 0xFCC (R/ )  TPIU_DEVTYPE */
1072:Drivers/CMSIS/Include/core_cm4.h **** } TPI_Type;
1073:Drivers/CMSIS/Include/core_cm4.h **** 
1074:Drivers/CMSIS/Include/core_cm4.h **** /* TPI Asynchronous Clock Prescaler Register Definitions */
1075:Drivers/CMSIS/Include/core_cm4.h **** #define TPI_ACPR_PRESCALER_Pos              0U                                         /*!< TPI ACP
1076:Drivers/CMSIS/Include/core_cm4.h **** #define TPI_ACPR_PRESCALER_Msk             (0x1FFFUL /*<< TPI_ACPR_PRESCALER_Pos*/)    /*!< TPI ACP
1077:Drivers/CMSIS/Include/core_cm4.h **** 
1078:Drivers/CMSIS/Include/core_cm4.h **** /* TPI Selected Pin Protocol Register Definitions */
1079:Drivers/CMSIS/Include/core_cm4.h **** #define TPI_SPPR_TXMODE_Pos                 0U                                         /*!< TPI SPP
1080:Drivers/CMSIS/Include/core_cm4.h **** #define TPI_SPPR_TXMODE_Msk                (0x3UL /*<< TPI_SPPR_TXMODE_Pos*/)          /*!< TPI SPP
1081:Drivers/CMSIS/Include/core_cm4.h **** 
1082:Drivers/CMSIS/Include/core_cm4.h **** /* TPI Formatter and Flush Status Register Definitions */
1083:Drivers/CMSIS/Include/core_cm4.h **** #define TPI_FFSR_FtNonStop_Pos              3U                                         /*!< TPI FFS
1084:Drivers/CMSIS/Include/core_cm4.h **** #define TPI_FFSR_FtNonStop_Msk             (0x1UL << TPI_FFSR_FtNonStop_Pos)           /*!< TPI FFS
1085:Drivers/CMSIS/Include/core_cm4.h **** 
1086:Drivers/CMSIS/Include/core_cm4.h **** #define TPI_FFSR_TCPresent_Pos              2U                                         /*!< TPI FFS
1087:Drivers/CMSIS/Include/core_cm4.h **** #define TPI_FFSR_TCPresent_Msk             (0x1UL << TPI_FFSR_TCPresent_Pos)           /*!< TPI FFS
1088:Drivers/CMSIS/Include/core_cm4.h **** 
1089:Drivers/CMSIS/Include/core_cm4.h **** #define TPI_FFSR_FtStopped_Pos              1U                                         /*!< TPI FFS
1090:Drivers/CMSIS/Include/core_cm4.h **** #define TPI_FFSR_FtStopped_Msk             (0x1UL << TPI_FFSR_FtStopped_Pos)           /*!< TPI FFS
ARM GAS  /tmp/ccMxhqvP.s 			page 45


1091:Drivers/CMSIS/Include/core_cm4.h **** 
1092:Drivers/CMSIS/Include/core_cm4.h **** #define TPI_FFSR_FlInProg_Pos               0U                                         /*!< TPI FFS
1093:Drivers/CMSIS/Include/core_cm4.h **** #define TPI_FFSR_FlInProg_Msk              (0x1UL /*<< TPI_FFSR_FlInProg_Pos*/)        /*!< TPI FFS
1094:Drivers/CMSIS/Include/core_cm4.h **** 
1095:Drivers/CMSIS/Include/core_cm4.h **** /* TPI Formatter and Flush Control Register Definitions */
1096:Drivers/CMSIS/Include/core_cm4.h **** #define TPI_FFCR_TrigIn_Pos                 8U                                         /*!< TPI FFC
1097:Drivers/CMSIS/Include/core_cm4.h **** #define TPI_FFCR_TrigIn_Msk                (0x1UL << TPI_FFCR_TrigIn_Pos)              /*!< TPI FFC
1098:Drivers/CMSIS/Include/core_cm4.h **** 
1099:Drivers/CMSIS/Include/core_cm4.h **** #define TPI_FFCR_EnFCont_Pos                1U                                         /*!< TPI FFC
1100:Drivers/CMSIS/Include/core_cm4.h **** #define TPI_FFCR_EnFCont_Msk               (0x1UL << TPI_FFCR_EnFCont_Pos)             /*!< TPI FFC
1101:Drivers/CMSIS/Include/core_cm4.h **** 
1102:Drivers/CMSIS/Include/core_cm4.h **** /* TPI TRIGGER Register Definitions */
1103:Drivers/CMSIS/Include/core_cm4.h **** #define TPI_TRIGGER_TRIGGER_Pos             0U                                         /*!< TPI TRI
1104:Drivers/CMSIS/Include/core_cm4.h **** #define TPI_TRIGGER_TRIGGER_Msk            (0x1UL /*<< TPI_TRIGGER_TRIGGER_Pos*/)      /*!< TPI TRI
1105:Drivers/CMSIS/Include/core_cm4.h **** 
1106:Drivers/CMSIS/Include/core_cm4.h **** /* TPI Integration ETM Data Register Definitions (FIFO0) */
1107:Drivers/CMSIS/Include/core_cm4.h **** #define TPI_FIFO0_ITM_ATVALID_Pos          29U                                         /*!< TPI FIF
1108:Drivers/CMSIS/Include/core_cm4.h **** #define TPI_FIFO0_ITM_ATVALID_Msk          (0x3UL << TPI_FIFO0_ITM_ATVALID_Pos)        /*!< TPI FIF
1109:Drivers/CMSIS/Include/core_cm4.h **** 
1110:Drivers/CMSIS/Include/core_cm4.h **** #define TPI_FIFO0_ITM_bytecount_Pos        27U                                         /*!< TPI FIF
1111:Drivers/CMSIS/Include/core_cm4.h **** #define TPI_FIFO0_ITM_bytecount_Msk        (0x3UL << TPI_FIFO0_ITM_bytecount_Pos)      /*!< TPI FIF
1112:Drivers/CMSIS/Include/core_cm4.h **** 
1113:Drivers/CMSIS/Include/core_cm4.h **** #define TPI_FIFO0_ETM_ATVALID_Pos          26U                                         /*!< TPI FIF
1114:Drivers/CMSIS/Include/core_cm4.h **** #define TPI_FIFO0_ETM_ATVALID_Msk          (0x3UL << TPI_FIFO0_ETM_ATVALID_Pos)        /*!< TPI FIF
1115:Drivers/CMSIS/Include/core_cm4.h **** 
1116:Drivers/CMSIS/Include/core_cm4.h **** #define TPI_FIFO0_ETM_bytecount_Pos        24U                                         /*!< TPI FIF
1117:Drivers/CMSIS/Include/core_cm4.h **** #define TPI_FIFO0_ETM_bytecount_Msk        (0x3UL << TPI_FIFO0_ETM_bytecount_Pos)      /*!< TPI FIF
1118:Drivers/CMSIS/Include/core_cm4.h **** 
1119:Drivers/CMSIS/Include/core_cm4.h **** #define TPI_FIFO0_ETM2_Pos                 16U                                         /*!< TPI FIF
1120:Drivers/CMSIS/Include/core_cm4.h **** #define TPI_FIFO0_ETM2_Msk                 (0xFFUL << TPI_FIFO0_ETM2_Pos)              /*!< TPI FIF
1121:Drivers/CMSIS/Include/core_cm4.h **** 
1122:Drivers/CMSIS/Include/core_cm4.h **** #define TPI_FIFO0_ETM1_Pos                  8U                                         /*!< TPI FIF
1123:Drivers/CMSIS/Include/core_cm4.h **** #define TPI_FIFO0_ETM1_Msk                 (0xFFUL << TPI_FIFO0_ETM1_Pos)              /*!< TPI FIF
1124:Drivers/CMSIS/Include/core_cm4.h **** 
1125:Drivers/CMSIS/Include/core_cm4.h **** #define TPI_FIFO0_ETM0_Pos                  0U                                         /*!< TPI FIF
